
ASEM-51 V1.3                                         Copyright (c) 2002 by W.W. Heinz                                         PAGE 1





       MCS-51 Family Macro Assembler   A S E M - 5 1   V 1.3
       =====================================================



	Source File:	DEFLASH_010615.asm
	Object File:	DEFLASH_010615.hex
	List File:	DEFLASH_010615.lst



 Line  I  Addr  Code            Source

    1:				;LAST EDITED ON 28/4/2014
    2:				;ADDRESS OF 8 ZONE THERMOCOUPLE TO BE CHANGED & TESTED
    3:				;PROGRAM CHANGED SO THAT ON EMERGENCY PRESSED IT DOES NOT GO INTO MANUAL MODE
    4:				;ALSO THE M/C STARTS FROM WHERE IT HAD BEEN STOPPED
    5:				;--------------------------------------------------------
    6:				;LAST EDITED ON 10/6/2013
    7:				;PROGRAM ADDED FOR 6 ZONE TEMPERATURE
    8:				;PROGRAM ADDED FOR SEALING O/P & TIMERS
    9:				;PROGRAM ADDED FOR TEMP ZONE SEL
   10:				;TIMER OF MOULD CLOSE TIME TO BE ADDED IS PENDING
   11:				;---------------------------------------------------------
   12:				;LAST EDITED ON 3/2/2013
   13:				;TESTED 4 ZONE TEMP CONTROLLER ,LOW LIMIT,EXTRUDER O/P
   14:				;PENDING PRODUCTION,ERRORS,RECEIPE
   15:				;---------------------------------------------------------
   16:				;PROGRAM TESTED FOR SUPREME SEQUENCE COMPLETE MODBUS ASCII
   17:				;ALSO TESTED I/P BITS, FLAG BITS (READ) & O/PS.WITH MODBUS PROTOCOL
   18:				;LAST EDITED ON 13/12/12
   19:				;-----------------------------------------------------------
   20:				;PROGRAM TESTED WITH TOUCH SCREEN,LED DISPLAY
   21:				;LED DISPLAY WAS TESTED WITHOUT KEY & TIMER LED & ALSO WITHOUT RUNNING SCREEN
   22:				;LAST EDITED ON 5/12/12
   23:				;------------------------------------------------------------
   24:				;LAST EDITED ON 14/11/2012
   25:				;BATTERY BACKUP & NON BATTERY BACKUP BITS & MEM. LOCNS WERE DEFINED
   26:				;---------------------------------------------------------------
   27:				;LAST EDITED ON 28/10/2012
   28:				;TESTED PROGRAM FOR FN CODE 10H (MULTIPLE DATA REGISTER PRESET)
   29:				;----------------------------------------------------
   30:				;LAST EDITED ON 27/10/2012
   31:				;TESTED PROGRAM FOR FN CODE 10H IN DEBUG MODE
   32:				;-----------------------------------------------------
   33:				;LAST EDITED ON 3/9/2012
   34:				;PROGRAM NOT TESTED FOR FN CODE 0F & 10H REST ALL FN CODE PROGRAM TESTED
   35:				;---------------------------------------------------
   36:				;EDITED LAST ON 3/7/12
   37:				;RX_BUF WAS CHANGED TO 0400H OF EXTERNAL RAM LOCATION
   38:				;PROGRAM WAS TESTED FOR BIT ON/OFF & DATA REG READ / WRITE
   39:				;TESTED SUPREME SEQ. WITH SINGLE & DOUBLE CUT WITH MODBUS ASCII
   40:				;AT A TIME THE FN CODE 01 WILL BE ABLE TO READ ONLY 16 BITS MAX WITH THIS PROGRAM
   41:				;EDITED LAST ON 12/12/12
   42:				;----------------------------------------------------
   43:				;EDITED LAST ON 29/6/2012

ASEM-51 V1.3                                         Copyright (c) 2002 by W.W. Heinz                                         PAGE 2



 Line  I  Addr  Code            Source

   44:				;TESTED PROGRAM FOR TIMER HANDLER & ALSO LADDER
   45:				;PUSH OF ACC & PUSH PSW WAS NOT USED IN SERIAL INTERRUPT ROUTINE WHICH WAS GIVING PROBLEM
   46:				;----------------------------------------------------
   47:				;EDITED LAST ON 28/6/12
   48:				;PROGRAM TESTED FOR TRANSMIT,RECEIVE & ALSO MADE PROVISION FOR LADDER
   49:				;---------------------------------------------------
   50:				;EDITED ON 26/6/2012
   51:				;TESTED PROGRAM FOR BIT READING WITH CORRECT ADDRESS
   52:				;TESTED PROGRAM FOR BIT FORCING
   53:				;-----------------------------------------------------
   54:				;EDITED LAST ON 25/6/12
   55:				;CHECKED PROGRAM FOR REGISTER READING TX BUF SET TO EXTERNAL RAM
   56:				;CHECKED PROGRAM FOR PRESET DATA REG(FUNCTION CODE 6)
   57:				;------------------------------------------------------
   58:				;EDITED LAST ON 24/6/12
   59:				;PROGRAMMED WAS CHECKED FOR 3 REG READING AT A TIME  WITH DATA FROM EXTERNAL RAM LOCN 1000H ONWARDS
   60:				;------------------------------------------------------
   61:				;EDITED LAST ON 21/6/12
   62:				;THE COMMUNICATION WITH HMI WAS TESTED SUCCESSFULLY
   63:				;ULTRA MODBUS PROTOCOL WAS USED
   64:				;NO OF BYTES IS EQUAL TO NO OF REGISTERS TO READ X 2
   65:				;IF THE MASTER HAS REQUESTED FOR 1 DATA REG THEN IN
   66:				;REPLY THE SLAVE HAS TO PUT NO OF BYTES =2
   67:				;TIMER 1 IS USED AS BAUD RATE GENERATOR
   68:				;TESTED PROGRAM FOR COMMUNICATION
   69:				;----------------------------------------------------
   70:				;FN CODE 01  IS READ COIL STATUS                 :DONE
   71:				;FN CODE 02  IS READ INPUT STATUS
   72:				;FN CODE 03  IS READ HOLDING REGISTERS           :DONE
   73:				;FN CODE 04  IS READ INPUT REGISTERS
   74:				;FN CODE 05  IS READ SINGLE COIL                 :DONE
   75:				;FN CODE 06  IS PRESET SINGLE REGISTERS          :DONE
   76:				;FN CODE 15(0FH) IS FORCE MULTIPLE COILS         :DONE
   77:				;FN CODE 16(10H) IS FORCE MULTIPLE REGISTERS
   78:
   79:
   80:				;P1.0 IS HEATER ZONE 6
   81:				;P1.1 IS SEALING O/P
   82:
   83:
   84:				;------------------------------------------------------
   85:		N      0018	TEMP_CAL_FACTOR_HI   EQU  024
   86:		N      00A0	TEMP_CAL_FACTOR_LO   EQU  0A0H
   87:				;-------------------------------------------------------
   88:
   89:
   90:
   91:
   92:
   93:
   94:				;---------------------------------------------------------
   95:				;DEFINE I/O ADDRESS
   96:				;----------------------------------------------------------
   97:		N      E800	OUTPUT_ADDRESS    EQU    0E800H               ;0F000H
   98:		N      F800	INPUT_ADDRESS     EQU    0F800H                     ;0F000H
   99:

ASEM-51 V1.3                                         Copyright (c) 2002 by W.W. Heinz                                         PAGE 3



 Line  I  Addr  Code            Source

  100:		N      F818	TEMP_IP_12_L      EQU    0F818H                         ;0F018H
  101:		N      F819	TEMP_IP_12_H      EQU    0F819H                        ;0F019H
  102:
  103:
  104:
  105:
  106:
  107:
  108:				;----------------------------------------------------
  109:				;define bit variables here...
  110:				;----------------------------------------------------
  111:				;----------------------------------------------------
  112:				;INTERNAL RAM LOCATIONS
  113:				;----------------------------------------------------
  114:
  115:		N      0008	BYTE_CNT		      EQU	08H
  116:		N      0009	TEMP			      EQU	09H
  117:		N      000A	TIMECT            EQU   0AH
  118:		N      000B	bit_cnt		      EQU	0BH
  119:		N      000C	lrc_code      		EQU	0CH
  120:		N      000D	lrc_hi			   EQU	0DH
  121:		N      000E	lrc_lo			   EQU	0EH
  122:		N      000F	count_1s		      EQU	0FH
  123:		N      0010	TEMP1             EQU   10H        ;MSB
  124:		N      0011	TEMP2             EQU   11H        ;LSB                       ;40H                 ;25H
  125:		N      001A	RSLT_0            EQU   1AH
  126:		N      001B	RSLT_1            EQU   1BH        ;40H
  127:		N      001C	SECOND_CLK        EQU   1CH
  128:		N      001D	PREV_RECEIPE      EQU   1DH
  129:		N      001E	PREV_DCINP0       EQU   1EH
  130:		N      001F	PREV_DCINP1       EQU   1FH
  131:
  132:				;**************************************************************************************************
  133:				;DIRECT ADDRESSING BITS STARTS FROM HERE
  134:				;**************************************************************************************************
  135:
  136:		N      0020	GENERAL_PURPOSE_BITS_1    EQU   20H
  137:
  138:		N      0000	RCVE_OVER                 EQU	  00H
  139:		N      0001	TRANS_OVER                EQU	  01H
  140:		N      0002	BIT_READ_MORE_THAN_8      EQU	  02H
  141:		N      0003	TEN_MSEC_BIT              EQU     03H
  142:		N      0004	FIRST_BYTE                EQU	  04H
  143:		N      0005	LAST_BYTE                 EQU	  05H

  144:		N      0006	DELAY_OVER                EQU     06H
  145:		N      0007	B_FIRST_CYCLE             EQU     07H
  146:				;----------------------------------------------------
  147:		N      0021	GENERAL_PURPOSE_BITS_2    EQU   21H
  148:
  149:		N      0008	HUND_MSEC_BIT             EQU   08H
  150:		N      0009	GENERAL_BIT_1             EQU   09H
  151:		N      000A	GENERAL_BIT_2             EQU   0AH
  152:		N      000B	GENERAL_BIT_3             EQU   0BH
  153:		N      000C	GENERAL_BIT_4             EQU   0CH
  154:		N      000D	GENERAL_BIT_5             EQU   0DH

ASEM-51 V1.3                                         Copyright (c) 2002 by W.W. Heinz                                         PAGE 4



 Line  I  Addr  Code            Source

  155:		N      000E	GENERAL_BIT_6             EQU   0EH
  156:		N      000F	GENERAL_BIT_7             EQU   0FH
  157:				;----------------------------------------------------
  158:		N      0022	TMR0_3_ENABLE_DONE        EQU    22H                 ;22H
  159:
  160:		N      0010	MOULD_IN_TM00E            EQU    10H    ;MOULD IN TIME
  161:		N      0010	TM00E                     EQU    10H
  162:
  163:		N      0011	MOULD_IN_TM00D            EQU    11H
  164:		N      0011	TM00D                     EQU    11H
  165:
  166:		N      0012	MOULD_CLOSE_DLY_TM01E     EQU    12H    ;MOULD CLOSE DELAY
  167:		N      0012	TM01E                     EQU    12H
  168:
  169:		N      0013	MOULD_CLOSE_DLY_TM01D     EQU    13H
  170:		N      0013	TM01D                     EQU    13H
  171:
  172:		N      0014	CUTTER_DLY_TM02E          EQU    14H
  173:		N      0014	TM02E                     EQU    14H    ;CUTTER DELAY
  174:
  175:		N      0015	CUTTER_DLY_TM02D          EQU    15H
  176:		N      0015	TM02D                     EQU    15H
  177:
  178:		N      0016	CUTTER_ON_TM03E           EQU    16H
  179:		N      0016	TM03E                     EQU    16H    ;CUTTER ON TIME
  180:
  181:		N      0017	CUTTER_ON_TM03D           EQU    17H
  182:		N      0017	TM03D                     EQU    17H
  183:				;-----------------------------------------------------
  184:		N      0023	TMR4_7_ENABLE_DONE        EQU    23H
  185:
  186:		N      0018	BLOW_PIN_DN_DLY_TM04E     EQU    18H
  187:		N      0018	TM04E                     EQU    18H     ;BLOW PIN DN DELAY
  188:
  189:		N      0019	BLOW_PIN_DN_DLY_TM04D     EQU    19H
  190:		N      0019	TM04D                     EQU    19H
  191:
  192:		N      001A	PREBLOW_TM05E             EQU    1AH
  193:		N      001A	TM05E                     EQU    1AH     ;PRE BLOW TIME
  194:
  195:		N      001B	PREBLOW_TM05D             EQU    1BH
  196:		N      001B	TM05D                     EQU    1BH
  197:
  198:		N      001C	BLOW_DELAY_TM06E          EQU    1CH
  199:		N      001C	TM06E                     EQU    1CH     ;BLOW DELAY TIME
  200:
  201:		N      001D	BLOW_DELAY_TM06D          EQU    1DH
  202:		N      001D	TM06D                     EQU    1DH
  203:
  204:		N      001E	BLOWING_TM07E             EQU    1EH
  205:		N      001E	TM07E                     EQU    1EH      ;BLOWING TIME
  206:
  207:		N      001F	BLOWING_TM07D             EQU    1FH
  208:		N      001F	TM07D                     EQU    1FH
  209:
  210:				;-----------------------------------------------------

ASEM-51 V1.3                                         Copyright (c) 2002 by W.W. Heinz                                         PAGE 5



 Line  I  Addr  Code            Source

  211:		N      0024	TMR08_11_ENABLE_DONE      EQU    24H
  212:
  213:		N      0020	EXHAUST_TM08E             EQU    20H
  214:		N      0020	TM08E                     EQU    20H      ;EXHAUST TIME
  215:
  216:		N      0021	EXHAUST_TM08D             EQU    21H
  217:		N      0021	TM08D                     EQU    21H
  218:
  219:		N      0022	MOULDIN_SLOW_TM09E        EQU    22H
  220:		N      0022	TM09E                     EQU    22H      ;MOULD IN SLOW TIME
  221:
  222:		N      0023	MOULDIN_SLOW_TM09D        EQU    23H
  223:		N      0023	TM09D                     EQU    23H
  224:
  225:		N      0024	MOULDCLOSE_SLOW_TM10E     EQU    24H
  226:		N      0024	TM10E                     EQU    24H      ;MOULD CLOSE SLOW
  227:
  228:		N      0025	MOULDCLOSE_SLOW_TM10D     EQU    25H
  229:		N      0025	TM10D                     EQU    25H
  230:
  231:		N      0026	MOULDOUT_SLOW_TM11E       EQU    26H
  232:		N      0026	TM11E                     EQU    26H      ;MOULD OUT SLOW
  233:
  234:		N      0027	MOULDOUT_SLOW_TM11D       EQU    27H
  235:		N      0027	TM11D                     EQU    27H
  236:				;----------------------------------------------------
  237:		N      0025	TMR12_15_ENABLE_DONE      EQU    25H
  238:
  239:		N      0028	PARISON_DLY_TM12E         EQU    28H
  240:		N      0028	TM12E                     EQU    28H       ;PARISON DELAY
  241:
  242:		N      0029	PARISON_DLY_TM12D         EQU    29H
  243:		N      0029	TM12D                     EQU    29H
  244:
  245:		N      002A	PARISON_ON_TIME_TM13E     EQU    2AH
  246:		N      002A	TM13E                     EQU    2AH       ;PARISON ON TIME
  247:
  248:		N      002B	PARISON_ON_TIME_TM13D     EQU    2BH
  249:		N      002B	TM13D                     EQU    2BH
  250:
  251:		N      002C	MOULDIN_DLY_TM14E         EQU    2CH
  252:		N      002C	TM14E                     EQU    2CH       ;MOULD IN DELAY
  253:
  254:		N      002D	MOULDIN_DLY_TM14D         EQU    2DH
  255:		N      002D	TM14D                     EQU    2DH
  256:
  257:		N      002E	CUTTERON_TIME2_TM15E      EQU    2EH
  258:		N      002E	TM15E                     EQU    2EH       ;2ND TIMER FOR CUTTER ITS VALUE IS EQUAL TO TMS03
  259:
  260:		N      002F	CUTTERON_TIME2_TM15D      EQU    2FH
  261:		N      002F	TM15D                     EQU    2FH
  262:				;----------------------------------------------------
  263:		N      0026	TMR16_19_ENABLE_DONE      EQU    26H
  264:
  265:		N      0030	TM16E                     EQU    30H      ;CYCLE TIME
  266:		N      0031	TM16D                     EQU    31H

ASEM-51 V1.3                                         Copyright (c) 2002 by W.W. Heinz                                         PAGE 6



 Line  I  Addr  Code            Source

  267:
  268:		N      0032	SEALING_DELAY_TM17E       EQU    32H      ;SEALING DELAY
  269:		N      0032	TM17E                     EQU    32H
  270:
  271:		N      0033	SEALING_DELAY_TM17D       EQU    33H
  272:		N      0033	TM17D                     EQU    33H
  273:
  274:		N      0034	SEALING_TIME_TM18E        EQU    34H       ;SEALING TIME
  275:		N      0034	TM18E                     EQU    34H
  276:
  277:		N      0035	SEALING_TIME_TM18D        EQU    35H
  278:		N      0035	TM18D                     EQU    35H
  279:
  280:		N      0036	MOULDOUT_DLY_TM19E        EQU    36H
  281:		N      0036	TM19E                     EQU    36H
  282:
  283:		N      0037	MOULDOUT_DLY_TM19D        EQU    37H
  284:		N      0037	TM19D                     EQU    37H
  285:
  286:
  287:				;----------------------------------------------------
  288:		N      0027	OUT0_7                    EQU    27H
  289:
  290:		N      0038	MOULD_CLOSE_OP            EQU    38H   ;MOULD OPEN  OUT0
  291:		N      0039	MOULD_OPEN_OP             EQU    39H   ;MOULD CLOSE OUT1
  292:		N      003A	BLOW_PINDN_OP             EQU    3AH   ;MOULD IN
  293:		N      003B	MOULD_IN_OP               EQU    3BH   ;MOULD OUT
  294:		N      003C	MOULD_OUT_OP              EQU    3CH   ;BLOW PIN DOWN
  295:		N      003D	CUTTER1_OP                EQU    3DH   ;BLOWING
  296:		N      003E	BIGPUMP_OP                EQU    3EH   ;CUTTER 1
  297:		N      003F	BLOWING_OP                EQU    3FH   ;CUTTER 2
  298:				;-----------------------------------------------------
  299:		N      0028	TM100_TM103               EQU    28H
  300:
  301:
  302:		N      0040	TM100E                    EQU    40H              ;ALL ERROR DEBOUNCING TIMERS
  303:		N      0040	MLD_CLS_TM_E              EQU    40H
  304:
  305:		N      0041	TM100D                    EQU    41H
  306:		N      0041	MLD_CLS_TM_D              EQU    41H
  307:
  308:		N      0042	TM101E                    EQU    42H
  309:		N      0042	AUTO_LUBRICATION_TIM_E    EQU    42H
  310:
  311:		N      0043	TM101D                    EQU    43H
  312:		N      0043	AUTO_LUBRICATION_TIM_D    EQU    43H
  313:
  314:		N      0044	TM102E                    EQU    44H
  315:
  316:		N      0045	TM102D                    EQU    45H
  317:		N      0046	TM103E                    EQU    46H
  318:		N      0047	TM103D                    EQU    47H
  319:
  320:
  321:				;-----------------------------------------------------
  322:		N      0029	DC_INPUT0                 EQU    29H

ASEM-51 V1.3                                         Copyright (c) 2002 by W.W. Heinz                                         PAGE 7



 Line  I  Addr  Code            Source

  323:
  324:		N      0048	MOULD_OPEN_IP             EQU    48H    ;INP0
  325:		N      0049	BLOW_PINUP_IP             EQU    49H    ;INP1
  326:		N      004A	EMERGENCY_IP              EQU    4AH    ;INP2
  327:		N      004B	EXTRUDER_MTR              EQU    4BH    ;INP3
  328:		N      004C	MOULD_IN_IP               EQU    4CH    ;INP4
  329:		N      004D	MOULD_OUT_IP              EQU    4DH    ;INP5
  330:		N      004E	MOULD_IN_SLOW_IP          EQU    4EH    ;INP6
  331:		N      004F	MOULD_OUT_SLOW_IP         EQU    4FH    ;INP7
  332:				;-------------------------------------------------------
  333:		N      002A	DC_INPUT1                 EQU    2AH
  334:
  335:		N      0050	MOULD_CLOSE_PB_IP         EQU    50H     ;INP8
  336:		N      0051	MOULD_OPEN_PB_IP          EQU    51H     ;INP9
  337:		N      0052	MOULD_IN_PB_IP            EQU    52H     ;INP10
  338:		N      0053	MOULD_OUT_PB_IP           EQU    53H
  339:		N      0054	BLOW_PINUP_PB_IP          EQU    54H
  340:		N      0055	BLOW_PINDN_PB_IP          EQU    55H
  341:		N      0056	CLS_SLWDN_IP              EQU    56H
  342:		N      0057	MOULD_CLOSE_IP            EQU    57H
  343:
  344:				;-------------------------------------------------------
  345:		N      002B	RLY01_08                  EQU    2BH
  346:
  347:		N      0058	RLY01                     EQU    58H
  348:		N      0058	LOCKING_SEL               EQU    58H                                     ;LOCKING SEL
  349:				;-----------------------------------
  350:		N      0059	RLY02                     EQU    59H
  351:		N      0059	HEATER_ON_OFF             EQU    59H      ;RLY02 IS HEATER ON OFF
  352:				;-----------------------------------
  353:		N      005A	RLY03                     EQU    5AH
  354:		N      005A	AUTO_MAN_SEL              EQU    5AH
  355:				;-----------------------------------
  356:		N      005B	RLY04                     EQU    5BH
  357:				;-----------------------------------
  358:		N      005C	RLY05                     EQU    5CH      ;HOME POSN REACHED
  359:		N      005C	B_HOME_POSN               EQU    5CH
  360:				;-----------------------------------
  361:		N      005D	RLY06                     EQU    5DH      ;DOUBLE CUT SEL
  362:		N      005D	DOUBLE_CUT_SEL            EQU    5DH
  363:				;-----------------------------------
  364:		N      005E	RLY07                     EQU    5EH      ;USED INSTEAD OF RLY14
  365:		N      005F	RLY08                     EQU    5FH      ;USED INSTEAD OF RLY15
  366:
  367:				;-----------------------------------------------------
  368:		N      002C	OUT8_15                   EQU    2CH
  369:
  370:		N      0060	SMALLPUMP_OP              EQU    60H
  371:				;BIGPUMP_OP                EQU    61H
  372:		N      0061	LUBRICATION_OP            EQU    61H
  373:		N      0062	HEATER1                   EQU    62H
  374:		N      0063	HEATER2                   EQU    63H   ;HEATER 1
  375:		N      0064	HEATER3                   EQU    64H   ;HEATER 2
  376:		N      0065	HEATER4                   EQU    65H   ;HEATER 3
  377:		N      0066	HEATER5                   EQU    66H   ;HEATER 4
  378:		N      0067	EXTRUDER_OP               EQU    67H   ;HEATER 5

ASEM-51 V1.3                                         Copyright (c) 2002 by W.W. Heinz                                         PAGE 8



 Line  I  Addr  Code            Source

  379:
  380:				;-----------------------------------
  381:		N      002D	RLY17_24                  EQU    2DH
  382:				;-----------------------------------
  383:				;RLY17                     EQU    68H
  384:		N      0068	B_PIN_DN_OP               EQU    68H
  385:		N      0069	DEFLASH_SEL               EQU    69H
  386:
  387:		N      0069	RLY18                     EQU    69H
  388:		N      006A	RLY19                     EQU    6AH
  389:		N      006B	RLY20                     EQU    6BH
  390:		N      006C	RLY21                     EQU    6CH
  391:		N      006D	RLY22                     EQU    6DH
  392:		N      006E	RLY23                     EQU    6EH
  393:		N      006F	RLY24                     EQU    6FH
  394:
  395:				;----------------------------------------------------
  396:		N      002E	RLY25_32                  EQU    2EH
  397:
  398:		N      0070	LOW_LIM_Z1                EQU    70H
  399:		N      0070	RLY25                     EQU    70H  ;USED IN PROGRAM OF LOW LIMIT ZONE1
  400:
  401:		N      0071	LOW_LIM_Z2                EQU    71H
  402:		N      0071	RLY26                     EQU    71H  ;USED IN PROGRAM OF LOW LIMIT ZONE2
  403:
  404:		N      0072	LOW_LIM_Z3                EQU    72H
  405:		N      0072	RLY27                     EQU    72H  ;USED IN PROGRAM OF LOW LIMIT ZONE3
  406:
  407:		N      0073	LOW_LIM_Z4                EQU    73H
  408:		N      0073	RLY28                     EQU    73H  ;USED IN PROGRAM OF LOW LIMIT ZONE4
  409:
  410:		N      0074	LOW_LIM_Z5                EQU    74H
  411:		N      0074	RLY29                     EQU    74H  ;USED IN PROGRAM OF LOW LIMIT ZONE5
  412:
  413:		N      0075	LOW_LIM_Z6                EQU    75H
  414:		N      0075	RLY30                     EQU    75H  ;USED IN PROGRAM OF LOW LIMIT ZONE6
  415:
  416:		N      0076	LOW_LIM_Z7                EQU    76H
  417:		N      0076	RLY31                     EQU    76H  ;USED IN PROGRAM OF LOW LIMIT ZONE7
  418:
  419:		N      0077	LOW_LIM_Z8                EQU    77H
  420:		N      0077	RLY32                     EQU    77H  ;USED IN PROGRAM OF LOW LIMIT ZONE8
  421:				;---------------------------------------------------
  422:		N      002F	RLY33_40                  EQU    2FH
  423:
  424:		N      0078	RLY33                     EQU    78H
  425:		N      0079	RLY34                     EQU    79H
  426:		N      007A	RLY35                     EQU    7AH
  427:		N      007B	RLY36                     EQU    7BH
  428:		N      007C	RLY37                     EQU    7CH
  429:		N      007D	RLY38                     EQU    7DH
  430:		N      007E	RLY39                     EQU    7EH
  431:		N      007F	RLY40                     EQU    7FH
  432:				;**************************************************************************************************
  433:				;DIRECT ADDRESSING BITS END FROM HERE
  434:				;**************************************************************************************************

ASEM-51 V1.3                                         Copyright (c) 2002 by W.W. Heinz                                         PAGE 9



 Line  I  Addr  Code            Source

  435:		N      0030	OUT16_23                  EQU    30H
  436:
  437:		N      00E0	DEFLASH_OP                EQU    0E0H
  438:		N      00E1	ROTARY_OP                 EQU    0E1H
  439:		N      00E2	BOTTEM_OP                 EQU    0E2H
  440:		N      00E3	LIFTUP_OP                 EQU    0E3H
  441:				;---------------------------------------------------
  442:				;RLY09_16                  EQU    30H
  443:
  444:				;RLY09                     EQU    0E0H
  445:				;RLY10                     EQU    0E1H
  446:				;RLY11                     EQU    0E2H
  447:				;RLY12                     EQU    0E3H
  448:				;RLY13                     EQU    0E4H
  449:				;RLY14                     EQU    0E5H
  450:				;RLY15                     EQU    0E6H
  451:				;RLY16                     EQU    0E7H
  452:
  453:				;-------------------------------------------------------
  454:		N      0031	A2D_CHANNEL               EQU    31H
  455:		N      0032	CTR_PREV_CLK              EQU    32H
  456:				;CTR_CLK                   EQU    33H
  457:
  458:				;COUNTER_BITS              EQU   33H
  459:
  460:		N      0033	CTR_CLK                   EQU   33H
  461:
  462:		N      00E0	CT00C             EQU   0E0H
  463:		N      00E1	CT01C             EQU   0E1H
  464:		N      00E2	CT02C             EQU   0E2H
  465:		N      00E3	CT03C             EQU   0E3H
  466:		N      00E4	CT04C             EQU   0E4H
  467:		N      00E5	CT05C             EQU   0E5H
  468:		N      00E6	CT06C             EQU   0E6H
  469:		N      00E7	CT07C             EQU   0E7H
  470:
  471:		N      0034	CTR_RESET         EQU   34H
  472:
  473:		N      00E0	CT00R             EQU   0E0H
  474:		N      00E1	CT01R             EQU   0E1H
  475:		N      00E2	CT02R             EQU   0E2H
  476:		N      00E3	CT03R             EQU   0E3H
  477:		N      00E4	CT04R             EQU   0E4H
  478:		N      00E5	CT05R             EQU   0E5H
  479:		N      00E6	CT06R             EQU   0E6H
  480:		N      00E7	CT07R             EQU   0E7H
  481:
  482:
  483:		N      0035	CTR_DONE          EQU   35H
  484:
  485:		N      00E0	CT00D             EQU   0E0H
  486:		N      00E1	CT01D             EQU   0E1H
  487:		N      00E2	CT02D             EQU   0E2H
  488:		N      00E3	CT03D             EQU   0E3H
  489:		N      00E4	CT04D             EQU   0E4H
  490:		N      00E5	CT05D             EQU   0E5H

ASEM-51 V1.3                                        Copyright (c) 2002 by W.W. Heinz                                         PAGE 10



 Line  I  Addr  Code            Source

  491:		N      00E6	CT06D             EQU   0E6H
  492:		N      00E7	CT07D             EQU   0E7H
  493:
  494:
  495:		N      0036	POWER_ON_STATE    EQU   36H
  496:		N      0037	IP_DEBOUNCE       EQU   37H
  497:		N      0038	TC_DEBOUNCE       EQU   38H
  498:		N      0039	REMAINDER         EQU   39H
  499:
  500:				;-------------------------------------------------------------------
  501:		N      0080	SCRATCHPAD_0              EQU    80H
  502:		N      0081	SCRATCHPAD_1              EQU    81H
  503:		N      0082	SCRATCHPAD_2              EQU    82H
  504:		N      0083	SCRATCHPAD_3              EQU    83H
  505:
  506:				;------------------------------------------------------------------------------------------
  507:				;EXTERNAL RAM LOCATIONS
  508:				;------------------------------------------------------------------------------------------
  509:		N      0400	RX_BUF                      EQU   0400H
  510:		N      0500	TX_BUF                      EQU   0500H
  511:		N      1000	START_ADDRESS_DATA_REG      EQU   1000H
  512:
  513:				;STARTING ADDRESS OF RAM IS 1000H WHICH STANDS FOR DATA REG 1 HMI
  514:				;LAST ADDRESS OF RAM IS 5E1E WHICH STANDS FOR DATA REG 10000 OF HMI
  515:
  516:
  517:
  518:		N      0F00	BIT_START_ADDRESS_INPUT     EQU   0F00H
  519:
  520:		N      1000	START_CURRENT_LOCNS         EQU   1000H
  521:
  522:
  523:				;---------------------------------------------------------
  524:
  525:
  526:
  527:		N      103E	LOW_LIMIT_H                 EQU   103EH
  528:		N      103F	LOW_LIMIT_L                 EQU   103FH
  529:
  530:		N      1040	ZONE1_SET_H                 EQU   1040H   ;33
  531:		N      1041	ZONE1_SET_L                 EQU   1041H
  532:
  533:		N      1042	ZONE2_SET_H                 EQU   1042H   ;34
  534:		N      1043	ZONE2_SET_L                 EQU   1043H
  535:
  536:		N      1044	ZONE3_SET_H                 EQU   1044H    ;35
  537:		N      1045	ZONE3_SET_L                 EQU   1045H
  538:
  539:		N      1046	ZONE4_SET_H                 EQU   1046H    ;36
  540:		N      1047	ZONE4_SET_L                 EQU   1047H
  541:
  542:		N      1048	ZONE5_SET_H                 EQU   1048H    ;37
  543:		N      1049	ZONE5_SET_L                 EQU   1049H
  544:
  545:		N      104A	ZONE6_SET_H                 EQU   104AH    ;38
  546:		N      104B	ZONE6_SET_L                 EQU   104BH

ASEM-51 V1.3                                        Copyright (c) 2002 by W.W. Heinz                                         PAGE 11



 Line  I  Addr  Code            Source

  547:
  548:		N      104C	ZONE7_SET_H                 EQU   104CH    ;39
  549:		N      104D	ZONE7_SET_L                 EQU   104DH
  550:
  551:		N      104E	ZONE8_SET_H                 EQU   104EH    ;40
  552:		N      104F	ZONE8_SET_L                 EQU   104FH
  553:
  554:				;------------------------------------------------------
  555:		N      1050	TMS00H                      EQU   1050H  ;41
  556:		N      1051	TMS00L                      EQU   1051H
  557:
  558:		N      1052	TMS01H                      EQU   1052H  ;42
  559:		N      1053	TMS01L                      EQU   1053H
  560:
  561:		N      1054	TMS02H                      EQU   1054H   ;43
  562:		N      1055	TMS02L                      EQU   1055H
  563:
  564:		N      1056	TMS03H                      EQU   1056H   ;44
  565:		N      1057	TMS03L                      EQU   1057H
  566:
  567:		N      1058	TMS04H                      EQU   1058H   ;45
  568:		N      1059	TMS04L                      EQU   1059H
  569:
  570:		N      105A	TMS05H                      EQU   105AH   ;46
  571:		N      105B	TMS05L                      EQU   105BH
  572:
  573:		N      105C	TMS06H                      EQU   105CH   ;47
  574:		N      105D	TMS06L                      EQU   105DH
  575:
  576:		N      105E	TMS07H                      EQU   105EH   ;48
  577:		N      105F	TMS07L                      EQU   105FH
  578:
  579:		N      1060	TMS08H                      EQU   1060H   ;49
  580:		N      1061	TMS08L                      EQU   1061H
  581:
  582:		N      1062	TMS09H                      EQU   1062H   ;50   MOULD IN SLOW
  583:		N      1063	TMS09L                      EQU   1063H
  584:
  585:		N      1064	TMS10H                      EQU   1064H   ;51   MOULD CLOSE SLOW
  586:		N      1065	TMS10L                      EQU   1065H
  587:
  588:		N      1066	TMS11H                      EQU   1066H   ;52    MOULD OUT SLOW
  589:		N      1067	TMS11L                      EQU   1067H
  590:
  591:		N      1068	TMS12H                      EQU   1068H   ;53
  592:		N      1069	TMS12L                      EQU   1069H
  593:
  594:		N      106A	TMS13H                      EQU   106AH   ;54
  595:		N      106B	TMS13L                      EQU   106BH
  596:
  597:		N      106C	TMS14H                      EQU   106CH   ;55
  598:		N      106D	TMS14L                      EQU   106DH
  599:
  600:		N      106E	TMS15H                      EQU   106EH   ;56
  601:		N      106F	TMS15L                      EQU   106FH
  602:

ASEM-51 V1.3                                        Copyright (c) 2002 by W.W. Heinz                                         PAGE 12



 Line  I  Addr  Code            Source

  603:		N      1070	TMS16H                      EQU   1070H   ;57
  604:		N      1071	TMS16L                      EQU   1071H
  605:
  606:		N      1072	TMS17H                      EQU   1072H   ;58
  607:		N      1073	TMS17L                      EQU   1073H
  608:
  609:		N      1074	TMS18H                      EQU   1074H   ;59  NOT USED
  610:		N      1075	TMS18L                      EQU   1075H
  611:
  612:		N      1076	TMS19H                      EQU   1076H   ;60
  613:		N      1077	TMS19L                      EQU   1077H
  614:
  615:		N      1078	TMS100H                     EQU   1078H   ;61
  616:		N      1079	TMS100L                     EQU   1079H
  617:
  618:		N      107A	TMS102H                     EQU   107AH
  619:		N      107B	TMS102L                     EQU   107BH
  620:
  621:		N      107C	TMS103H                     EQU   107CH
  622:		N      107D	TMS103L                     EQU   107DH
  623:
  624:		N      107E	TMS104H                     EQU   107EH   ;64
  625:		N      107F	TMS104L                     EQU   107FH
  626:
  627:		N      1080	TMS105H                     EQU   1080H   ;65
  628:		N      1081	TMS105L                     EQU   1081H
  629:
  630:		N      1082	TMS106H                     EQU   1082H    ;66
  631:		N      1083	TMS106L                     EQU   1083H
  632:
  633:		N      1084	TMS107H                     EQU   1084H    ;67
  634:		N      1085	TMS107L                     EQU   1085H
  635:
  636:		N      1086	TMS108H                     EQU   1086H   ;68
  637:		N      1087	TMS108L                     EQU   1087H
  638:
  639:		N      1088	TMS109H                     EQU   1088H   ;69
  640:		N      1089	TMS109L                     EQU   1089H
  641:
  642:		N      108A	TMS110H                     EQU   108AH    ;70
  643:		N      108B	TMS110L                     EQU   108BH
  644:
  645:		N      108C	TMS111H                     EQU   108CH    ;71
  646:		N      108D	TMS111L                     EQU   108DH
  647:				;--------------------------------------------------------------------
  648:		N      1090	CTS00H                      EQU   1090H
  649:		N      1091	CTS00L                      EQU   1091H
  650:
  651:		N      1092	CTS01H                      EQU   1092H
  652:		N      1093	CTS01L                      EQU   1093H
  653:
  654:		N      1094	CTS02H                      EQU   1094H
  655:		N      1095	CTS02L                      EQU   1095H
  656:
  657:		N      1096	CTS03H                      EQU   1096H
  658:		N      1097	CTS03L                      EQU   1097H

ASEM-51 V1.3                                        Copyright (c) 2002 by W.W. Heinz                                         PAGE 13



 Line  I  Addr  Code            Source

  659:
  660:		N      1098	CTS04H                      EQU   1098H
  661:		N      1099	CTS04L                      EQU   1099H
  662:
  663:
  664:		N      109C	CTS06H                      EQU   109CH
  665:		N      109D	CTS06L                      EQU   109DH
  666:
  667:		N      109E	CTS07H                      EQU   109EH
  668:		N      109F	CTS07L                      EQU   109FH
  669:
  670:				;--------------------------------------------------------------------------------
  671:				;CTC00H                      EQU   10B0H   ;88
  672:				;CTC00L                      EQU   10B1H
  673:
  674:				;CTC01H                      EQU   10B2H   ;89
  675:				;CTC01L                      EQU   10B3H
  676:
  677:				;CTC02H                      EQU   10B4H   ;90
  678:				;CTC02L                      EQU   10B5H
  679:
  680:				;CTC03H                      EQU   10B6H   ;91
  681:				;CTC03L                      EQU   10B7H
  682:
  683:				;CTC04H                      EQU   10B8H    ;92
  684:				;CTC04L                      EQU   10B9H
  685:
  686:
  687:				;;CTC06H                      EQU   10BCH     ;94
  688:				;CTC06L                      EQU   10BDH
  689:
  690:				;CTC07H                      EQU   10BEH     ;95
  691:				;CTC07L                      EQU   10BFH
  692:
  693:				;------------------------------------------------------------------------------
  694:		N      2300	CTC00H                      EQU   2300H   ;2433                   PRODUCTION RESET PROG
  695:		N      2301	CTC00L                      EQU   2301H
  696:
  697:		N      2302	CTC01H                      EQU   2302H   ;2434
  698:		N      2303	CTC01L                      EQU   2303H
  699:
  700:		N      2304	CTC02H                      EQU   2304H   ;2435
  701:		N      2305	CTC02L                      EQU   2305H
  702:
  703:		N      2306	CTC03H                      EQU   2306H   ;2436
  704:		N      2307	CTC03L                      EQU   2307H
  705:
  706:		N      2308	CTC04H                      EQU   2308H    ;2437
  707:		N      2309	CTC04L                      EQU   2309H
  708:
  709:		N      230A	CTC05H                      EQU   230AH    ;2438
  710:		N      230B	CTC05L                      EQU   230BH
  711:
  712:		N      230C	CTC06H                      EQU   230CH     ;2439
  713:		N      230D	CTC06L                      EQU   230DH
  714:

ASEM-51 V1.3                                        Copyright (c) 2002 by W.W. Heinz                                         PAGE 14



 Line  I  Addr  Code            Source

  715:		N      230E	CTC07H                      EQU   230EH     ;2440
  716:		N      230F	CTC07L                      EQU   230FH
  717:
  718:				;-----------------------------------------------------------------------------
  719:
  720:		N      118E	TMS101H                     EQU   118EH    ;200
  721:		N      118F	TMS101L                     EQU   118FH
  722:
  723:		N      1190	CTS05H                      EQU   1190H    ;201
  724:		N      1191	CTS05L                      EQU   1191H
  725:
  726:
  727:				;CTC05H                      EQU   1192H    ;202
  728:				;CTC05L                      EQU   1193H
  729:
  730:				;-----------------------------------------------------------------------------
  731:				;2388H(5000) ONWARDS LOCN ARE WITHOUT BATTERY BACKUP WORDS
  732:				;-----------------------------------------------------------------------------
  733:		N      2388	NON_BATBACKUP_WORDS         EQU   2388H
  734:
  735:
  736:		N      2388	TMC00H                      EQU   2388H    ; 2501    MOULD IN TIME
  737:		N      2389	TMC00L                      EQU   2389H
  738:
  739:		N      238A	TMC01H                      EQU   238AH    ;2502
  740:		N      238B	TMC01L                      EQU   238BH
  741:
  742:		N      238C	TMC02H                      EQU   238CH    ;2503
  743:		N      238D	TMC02L                      EQU   238DH
  744:
  745:		N      238E	TMC03H                      EQU   238EH    ;2504
  746:		N      238F	TMC03L                      EQU   238FH
  747:
  748:		N      2390	TMC04H                      EQU   2390H    ; 2505
  749:		N      2391	TMC04L                      EQU   2391H
  750:
  751:		N      2392	TMC05H                      EQU   2392H     ;2506
  752:		N      2393	TMC05L                      EQU   2393H
  753:
  754:		N      2394	TMC06H                      EQU   2394H     ;2507
  755:		N      2395	TMC06L                      EQU   2395H
  756:
  757:		N      2396	TMC07H                      EQU   2396H     ;2508
  758:		N      2397	TMC07L                      EQU   2397H
  759:
  760:		N      2398	TMC08H                      EQU   2398H     ;2509
  761:		N      2399	TMC08L                      EQU   2399H
  762:
  763:		N      239A	TMC09H                      EQU   239AH     ;2510   MOULD IN SLOW CUR TIMER
  764:		N      239B	TMC09L                      EQU   239BH
  765:
  766:		N      239C	TMC10H                      EQU   239CH     ;2511   MOULD CLOSE SLOW CUR TIMER
  767:		N      239D	TMC10L                      EQU   239DH
  768:
  769:		N      239E	TMC11H                      EQU   239EH    ; 2512    MOULD OUT SLOW
  770:		N      239F	TMC11L                      EQU   239FH

ASEM-51 V1.3                                        Copyright (c) 2002 by W.W. Heinz                                         PAGE 15



 Line  I  Addr  Code            Source

  771:
  772:		N      23A0	TMC12H                      EQU   23A0H    ; 2513
  773:		N      23A1	TMC12L                      EQU   23A1H
  774:
  775:		N      23A2	TMC13H                      EQU   23A2H    ; 2514
  776:		N      23A3	TMC13L                      EQU   23A3H
  777:
  778:		N      23A4	TMC14H                      EQU   23A4H    ; 2515
  779:		N      23A5	TMC14L                      EQU   23A5H
  780:
  781:		N      23A6	TMC15H                      EQU   23A6H    ; 2516
  782:		N      23A7	TMC15L                      EQU   23A7H
  783:
  784:		N      23A8	TMC16H                      EQU   23A8H    ;2517
  785:		N      23A9	TMC16L                      EQU   23A9H
  786:
  787:		N      23AA	TMC17H                      EQU   23AAH    ; 2518
  788:		N      23AB	TMC17L                      EQU   23ABH
  789:
  790:		N      23AC	TMC18H                      EQU   23ACH    ; 2519
  791:		N      23AD	TMC18L                      EQU   23ADH
  792:
  793:		N      23AE	TMC19H                      EQU   23AEH    ; 2520
  794:		N      23AF	TMC19L                      EQU   23AFH
  795:
  796:		N      23B0	TMC20H                      EQU   23B0H    ; 2521
  797:		N      23B1	TMC20L                      EQU   23B1H
  798:
  799:		N      23B2	TMC21H                      EQU   23B2H
  800:		N      23B3	TMC21L                      EQU   23B3H
  801:
  802:		N      23B4	TMC22H                      EQU   23B4H
  803:		N      23B5	TMC22L                      EQU   23B5H
  804:
  805:		N      23B6	TMC23H                      EQU   23B6H
  806:		N      23B7	TMC23L                      EQU   23B7H
  807:
  808:		N      23B8	TMC24H                      EQU   23B8H
  809:		N      23B9	TMC24L                      EQU   23B9H
  810:
  811:		N      23BA	TMC25H                      EQU   23BAH
  812:		N      23BB	TMC25L                      EQU   23BBH
  813:
  814:		N      23BC	TMC26H                      EQU   23BCH
  815:		N      23BD	TMC26L                      EQU   23BDH
  816:
  817:		N      23BE	TMC27H                      EQU   23BEH
  818:		N      23BF	TMC27L                      EQU   23BFH
  819:
  820:		N      23C0	CYCLE_TIME_H                EQU   23C0H    ;2529
  821:		N      23C1	CYCLE_TIME_L                EQU   23C1H
  822:
  823:		N      23C2	TMC40H                      EQU   23C2H
  824:		N      23C3	TMC40L                      EQU   23C3H
  825:
  826:		N      23C4	TMC41H                      EQU   23C4H

ASEM-51 V1.3                                        Copyright (c) 2002 by W.W. Heinz                                         PAGE 16



 Line  I  Addr  Code            Source

  827:		N      23C5	TMC41L                      EQU   23C5H
  828:
  829:		N      23C6	TMC42H                      EQU   23C6H
  830:		N      23C7	TMC42L                      EQU   23C7H
  831:
  832:		N      23C8	TMC43H                      EQU   23C8H   ;
  833:		N      23C9	TMC43L                      EQU   23C9H
  834:
  835:
  836:
  837:				;----------------------------------------------------
  838:		N      23CA	ALARM_1_H                   EQU   23CAH
  839:
  840:		N      00E0	ZONE5_LOW_LIMIT_ERR         EQU   0E0H
  841:		N      00E1	ZONE6_LOW_LIMIT_ERR         EQU   0E1H
  842:		N      00E2	ZONE7_LOW_LIMIT_ERR         EQU   0E2H
  843:		N      00E3	ZONE8_LOW_LIMIT_ERR         EQU   0E3H
  844:		N      00E4	MOULD_IN_ERR                EQU   0E4H
  845:				;---------------------------------------------------
  846:		N      23CB	ALARM_1_L                   EQU   23CBH
  847:
  848:		N      00E0	EMERGENCY_PRESSED           EQU   0E0H
  849:		N      00E1	MOULD_OUT_ERR               EQU   0E1H
  850:		N      00E2	MOULD_OPEN_ERR              EQU   0E2H
  851:		N      00E3	BLOW_PIN_DN_ERR             EQU   0E3H
  852:		N      00E4	ZONE1_LOW_LIMIT_ERR         EQU   0E4H
  853:		N      00E5	ZONE2_LOW_LIMIT_ERR         EQU   0E5H
  854:		N      00E6	ZONE3_LOW_LIMIT_ERR         EQU   0E6H
  855:		N      00E7	ZONE4_LOW_LIMIT_ERR         EQU   0E7H
  856:
  857:				;------------------------------------------------------
  858:
  859:		N      2420	TEMP_CUR_VALUES             EQU   2420H
  860:
  861:		N      2420	ZONE1_COUNTS_H              EQU   2420H
  862:		N      2420	CH00H                       EQU   2420H
  863:
  864:		N      2421	ZONE1_COUNTS_L              EQU   2421H
  865:		N      2421	CH00L                       EQU   2421H
  866:
  867:		N      2422	ZONE2_COUNTS_H              EQU   2422H
  868:		N      2422	CH01H                       EQU   2422H
  869:
  870:		N      2423	ZONE2_COUNTS_L              EQU   2423H
  871:		N      2423	CH01L                       EQU   2423H
  872:
  873:		N      2424	ZONE3_COUNTS_H              EQU   2424H
  874:		N      2424	CH02H                       EQU   2424H
  875:
  876:		N      2425	ZONE3_COUNTS_L              EQU   2425H
  877:		N      2425	CH02L                       EQU   2425H
  878:
  879:		N      2426	ZONE4_COUNTS_H              EQU   2426H
  880:		N      2426	CH03H                       EQU   2426H
  881:
  882:		N      2427	ZONE4_COUNTS_L              EQU   2427H

ASEM-51 V1.3                                        Copyright (c) 2002 by W.W. Heinz                                         PAGE 17



 Line  I  Addr  Code            Source

  883:		N      2427	CH03L                       EQU   2427H
  884:
  885:		N      2428	ZONE5_COUNTS_H              EQU   2428H
  886:		N      2428	CH04H                       EQU   2428H
  887:
  888:		N      2429	ZONE5_COUNTS_L              EQU   2429H
  889:		N      2429	CH04L                       EQU   2429H
  890:
  891:		N      242A	ZONE6_COUNTS_H              EQU   242AH
  892:		N      242A	CH05H                       EQU   242AH
  893:
  894:		N      242B	ZONE6_COUNTS_L              EQU   242BH
  895:		N      242B	CH05L                       EQU   242BH
  896:
  897:		N      242C	ZONE7_COUNTS_H              EQU   242CH
  898:		N      242C	CH06H                       EQU   242CH
  899:
  900:		N      242D	ZONE7_COUNTS_L              EQU   242DH
  901:		N      242D	CH06L                       EQU   242DH
  902:
  903:		N      242E	ZONE8_COUNTS_H              EQU   242EH
  904:		N      242E	CH07H                       EQU   242EH
  905:
  906:		N      242F	ZONE8_COUNTS_L              EQU   242FH
  907:		N      242F	CH07L                       EQU   242FH
  908:				;-------------------------------------------------------------
  909:		N      2440	ZONE8_ACT_TEMP_H            EQU   2440H    ;2593
  910:		N      2440	CH19H                       EQU   2440H
  911:
  912:		N      2441	ZONE8_ACT_TEMP_L            EQU   2441H    ;259
  913:		N      2441	CH19L                       EQU   2441H
  914:
  915:		N      2442	ZONE1_ACT_TEMP_H            EQU   2442H     ; 0+ & 0-  ON THERMOCOUPLE CARD
  916:		N      2442	CH20H                       EQU   2442H
  917:
  918:		N      2443	ZONE1_ACT_TEMP_L            EQU   2443H
  919:		N      2443	CH20L                       EQU   2443H
  920:
  921:		N      2444	ZONE2_ACT_TEMP_H            EQU   2444H      ;1+ & 1-  ON THERMOCOUPLE CARD
  922:		N      2444	CH21H                       EQU   2444H
  923:
  924:		N      2445	ZONE2_ACT_TEMP_L            EQU   2445H
  925:		N      2445	CH21L                       EQU   2445H
  926:
  927:		N      2446	ZONE3_ACT_TEMP_H            EQU   2446H
  928:		N      2446	CH22H                       EQU   2446H
  929:
  930:		N      2447	ZONE3_ACT_TEMP_L            EQU   2447H
  931:		N      2447	CH22L                       EQU   2447H
  932:
  933:		N      2448	ZONE4_ACT_TEMP_H            EQU   2448H
  934:		N      2448	CH23H                       EQU   2448H
  935:
  936:		N      2449	ZONE4_ACT_TEMP_L            EQU   2449H
  937:		N      2449	CH23L                       EQU   2449H
  938:

ASEM-51 V1.3                                        Copyright (c) 2002 by W.W. Heinz                                         PAGE 18



 Line  I  Addr  Code            Source

  939:		N      244A	ZONE5_ACT_TEMP_H            EQU   244AH
  940:		N      244A	CH24H                       EQU   244AH
  941:
  942:		N      244B	ZONE5_ACT_TEMP_L            EQU   244BH
  943:		N      244B	CH24L                       EQU   244BH
  944:
  945:		N      244C	ZONE6_ACT_TEMP_H            EQU   244CH
  946:		N      244C	CH25H                       EQU   244CH
  947:
  948:		N      244D	ZONE6_ACT_TEMP_L            EQU   244DH
  949:		N      244D	CH25L                       EQU   244DH
  950:
  951:		N      244E	ZONE7_ACT_TEMP_H            EQU   244EH
  952:		N      244E	CH26H                       EQU   244EH
  953:
  954:		N      244F	ZONE7_ACT_TEMP_L            EQU   244FH
  955:		N      244F	CH26L                       EQU   244FH
  956:				;-------------------------------------------------
  957:
  958:		N      2480	TMS20H                      EQU   2480H
  959:		N      2481	TMS20L                      EQU   2481H
  960:
  961:		N      2482	TMS21H                      EQU   2482H
  962:		N      2483	TMS21L                      EQU   2483H
  963:
  964:		N      2484	TMS22H                      EQU   2484H
  965:		N      2485	TMS22L                      EQU   2485H
  966:
  967:		N      2486	TMS23H                      EQU   2486H
  968:		N      2487	TMS23L                      EQU   2487H
  969:
  970:		N      2488	TMS24H                      EQU   2488H
  971:		N      2489	TMS24L                      EQU   2489H
  972:
  973:		N      248A	TMS25H                      EQU   248AH
  974:		N      248B	TMS25L                      EQU   248BH
  975:
  976:		N      248C	TMS26H                      EQU   248CH
  977:		N      248D	TMS26L                      EQU   248DH
  978:
  979:		N      248E	TMS27H                      EQU   248EH
  980:		N      248F	TMS27L                      EQU   248FH
  981:
  982:		N      2490	TMS40H                      EQU   2490H         ;ERROR TIMER STARTS FROM TM40
  983:		N      2491	TMS40L                      EQU   2491H
  984:
  985:		N      2492	TMS41H                      EQU   2492H
  986:		N      2493	TMS41L                      EQU   2493H
  987:
  988:		N      2494	TMS42H                      EQU   2494H
  989:		N      2495	TMS42L                      EQU   2495H
  990:
  991:		N      2496	TMS43H                      EQU   2496H
  992:		N      2497	TMS43L                      EQU   2497H
  993:				;----------------------------------------------------
  994:				;--------------------------------------------------------------------

ASEM-51 V1.3                                        Copyright (c) 2002 by W.W. Heinz                                         PAGE 19



 Line  I  Addr  Code            Source

  995:		N      24A0	TMS28H                      EQU   24A0H
  996:		N      24A1	TMS28L                      EQU   24A1H
  997:
  998:		N      24A2	TMS29H                      EQU   24A2H
  999:		N      24A3	TMS29L                      EQU   24A3H
 1000:
 1001:		N      24A4	TMS30H                      EQU   24A4H
 1002:		N      24A5	TMS30L                      EQU   24A5H
 1003:
 1004:		N      24A6	TMS31H                      EQU   24A6H
 1005:		N      24A7	TMS31L                      EQU   24A7H
 1006:
 1007:		N      24A8	TMS32H                      EQU   24A8H
 1008:		N      24A9	TMS32L                      EQU   24A9H
 1009:
 1010:		N      24AA	TMS33H                      EQU   24AAH
 1011:		N      24AB	TMS33L                      EQU   24ABH
 1012:				;------------------------------------------------------------
 1013:
 1014:		N      24AC	TMC28H                      EQU   24ACH
 1015:		N      24AD	TMC28L                      EQU   24ADH
 1016:
 1017:		N      24AE	TMC29H                      EQU   24AEH
 1018:		N      24AF	TMC29L                      EQU   24AFH
 1019:
 1020:		N      24B0	TMC30H                      EQU   24B0H
 1021:		N      24B1	TMC30L                      EQU   24B1H
 1022:
 1023:		N      24B2	TMC31H                      EQU   24B2H
 1024:		N      24B3	TMC31L                      EQU   24B3H
 1025:
 1026:		N      24B4	TMC32H                      EQU   24B4H
 1027:		N      24B5	TMC32L                      EQU   24B5H
 1028:
 1029:		N      24B6	TMC100H                     EQU   24B6H
 1030:		N      24B7	TMC100L                     EQU   24B7H
 1031:
 1032:		N      24B8	TMC101H                     EQU   24B8H
 1033:		N      24B9	TMC101L                     EQU   24B9H
 1034:
 1035:				;-----------------------------------------------
 1036:				;DEFLASHING CURRENT TIMERS
 1037:				;-----------------------------------------------
 1038:		N      24BA	TMC104H                     EQU   24BAH    ;2654
 1039:		N      24BB	TMC104L                     EQU   24BBH
 1040:
 1041:		N      24BC	TMC105H                     EQU   24BCH   ;2655
 1042:		N      24BD	TMC105L                     EQU   24BDH
 1043:
 1044:		N      24BE	TMC106H                     EQU   24BEH   ;2656
 1045:		N      24BF	TMC106L                     EQU   24BFH
 1046:
 1047:		N      24C0	TMC107H                     EQU   24C0H  ;2657
 1048:		N      24C1	TMC107L                     EQU   24C1H
 1049:				;---------------------------------------------------
 1050:		N      24C2	TMC108H                     EQU   24C2H   ;2658

ASEM-51 V1.3                                        Copyright (c) 2002 by W.W. Heinz                                         PAGE 20



 Line  I  Addr  Code            Source

 1051:		N      24C3	TMC108L                     EQU   24C3H
 1052:
 1053:		N      24C4	TMC109H                     EQU   24C4H   ;2659
 1054:		N      24C5	TMC109L                     EQU   24C5H
 1055:
 1056:		N      24C6	TMC110H                     EQU   24C6H   ;2660
 1057:		N      24C7	TMC110L                     EQU   24C7H
 1058:
 1059:		N      24C8	TMC111H                     EQU   24C8H   ;2661
 1060:		N      24C9	TMC111L                     EQU   24C9H
 1061:
 1062:				;--------------------------------------------------------------
 1063:				;DATA REG END ADDRESS IS 5E1E. START ADDRESS OF BIT IS 05F00H
 1064:				;------------------------------------
 1065:
 1066:		N      5F00	BIT_START_ADDRESS           EQU    05F00H
 1067:
 1068:
 1069:		N      5F00	OUTPUT00_07                 EQU    05F00H
 1070:		N      00E0	OUT00                       EQU    0E0H
 1071:		N      00E1	OUT01                       EQU    0E1H
 1072:		N      00E2	OUT02                       EQU    0E2H
 1073:		N      00E3	OUT03                       EQU    0E3H
 1074:		N      00E4	OUT04                       EQU    0E4H
 1075:		N      00E5	OUT05                       EQU    0E5H
 1076:		N      00E6	OUT06                       EQU    0E6H
 1077:		N      00E7	OUT07                       EQU    0E7H
 1078:
 1079:
 1080:		N      5F01	OUTPUT08_15                 EQU    05F01H
 1081:		N      00E0	OUT08                       EQU    0E0H
 1082:		N      00E1	OUT09                       EQU    0E1H
 1083:		N      00E2	OUT10                       EQU    0E2H
 1084:		N      00E3	OUT11                       EQU    0E3H
 1085:		N      00E4	OUT12                       EQU    0E4H
 1086:		N      00E5	OUT13                       EQU    0E5H
 1087:		N      00E6	OUT14                       EQU    0E6H
 1088:		N      00E7	OUT15                       EQU    0E7H
 1089:				;---------------------------------------------
 1090:		N      5F02	OUTPUT16_23                 EQU    05F02H
 1091:		N      00E0	OUT16                       EQU    0E0H
 1092:		N      00E1	OUT17                       EQU    0E1H
 1093:		N      00E2	OUT18                       EQU    0E2H
 1094:		N      00E3	OUT19                       EQU    0E3H
 1095:		N      00E4	OUT20                       EQU    0E4H
 1096:		N      00E5	OUT21                       EQU    0E5H
 1097:		N      00E6	OUT22                       EQU    0E6H
 1098:		N      00E7	OUT23                       EQU    0E7H
 1099:
 1100:				;---------------------------------------------------------------------------
 1101:				;BATTERY BACKUP BITS ARE FROM 513 TO 1537 (1024 BITS ARE BATTERY BACKUP
 1102:				;---------------------------------------------------------------------------
 1103:		N      5F40	FLAG_ADDRESS_RLY512          EQU    05F40H                       ;05F00H
 1104:				;---------------------------------------------------------------------------
 1105:		N      5F40	RLY512_519                   EQU    05F40H
 1106:

ASEM-51 V1.3                                        Copyright (c) 2002 by W.W. Heinz                                         PAGE 21



 Line  I  Addr  Code            Source

 1107:		N      00E0	RLY512                       EQU    0E0H
 1108:		N      00E0	LUBRICATION_PB               EQU    0E0H
 1109:
 1110:		N      00E1	RLY513                       EQU    0E1H
 1111:		N      00E1	LUB_RESET                    EQU    0E1H
 1112:
 1113:		N      00E2	RLY514                       EQU    0E2H
 1114:		N      00E3	RLY515                       EQU    0E3H
 1115:		N      00E4	RLY516                       EQU    0E4H
 1116:		N      00E5	RLY517                       EQU    0E5H
 1117:		N      00E6	RLY518                       EQU    0E6H
 1118:		N      00E7	RLY519                       EQU    0E7H
 1119:				;----------------------------------------------------------------------------
 1120:		N      5F41	RLY520_527                   EQU    05F41H
 1121:
 1122:		N      00E0	RLY520                       EQU    0E0H
 1123:		N      00E0	LOCKING_PB                   EQU    0E0H
 1124:
 1125:		N      00E1	RLY521                       EQU    0E1H
 1126:		N      00E2	RLY522                       EQU    0E2H
 1127:		N      00E3	RLY523                       EQU    0E3H
 1128:		N      00E4	RLY524                       EQU    0E4H
 1129:		N      00E5	RLY525                       EQU    0E5H
 1130:		N      00E6	RLY526                       EQU    0E6H
 1131:		N      00E7	RLY527                       EQU    0E7H
 1132:				;------------------------------------------------------------
 1133:				;DISPLAY PUSH BUTTONS FOR MANUAL OPERATION
 1134:				;------------------------------------------------------------
 1135:
 1136:		N      5F42	RLY528_535                   EQU    05F42H
 1137:
 1138:		N      00E0	RLY528                       EQU    0E0H
 1139:		N      00E0	MOULD_CLOSE_PB               EQU    0E0H
 1140:				;---------------------------------------
 1141:		N      00E1	RLY529                       EQU    0E1H
 1142:		N      00E1	MOULD_OPEN_PB                EQU    0E1H
 1143:				;---------------------------------------
 1144:		N      00E2	RLY530                       EQU    0E2H
 1145:		N      00E2	BLOW_PIN_DN_PB               EQU    0E2H
 1146:				;---------------------------------------
 1147:		N      00E3	RLY531                       EQU    0E3H
 1148:		N      00E3	MOULD_IN_PB                  EQU    0E3H
 1149:				;---------------------------------------
 1150:		N      00E4	RLY532                       EQU    0E4H
 1151:		N      00E4	MOULD_OUT_PB                 EQU    0E4H
 1152:				;---------------------------------------
 1153:		N      00E5	RLY533                       EQU    0E5H
 1154:		N      00E5	CUTTER1_PB                   EQU    0E5H
 1155:				;---------------------------------------
 1156:		N      00E6	RLY534                       EQU    0E6H
 1157:		N      00E6	BLOWING_PB                   EQU    0E6H
 1158:				;---------------------------------------
 1159:		N      00E7	RLY535                       EQU    0E7H
 1160:		N      00E7	CUTTER2_PB                   EQU    0E7H
 1161:				;--------------------------------------------------
 1162:

ASEM-51 V1.3                                        Copyright (c) 2002 by W.W. Heinz                                         PAGE 22



 Line  I  Addr  Code            Source

 1163:		N      5F43	RLY536_543                   EQU    05F43H
 1164:
 1165:		N      00E0	RLY536                       EQU    0E0H
 1166:		N      00E0	AUTO_MAN_SEL_BIT             EQU    0E0H
 1167:				;---------------------------------------
 1168:		N      00E1	RLY537                       EQU    0E1H
 1169:		N      00E1	HEATER_ON_OFF_BIT            EQU    0E1H
 1170:				;---------------------------------------
 1171:		N      00E2	RLY538                       EQU    0E2H
 1172:		N      00E2	DOUBLE_CUT_SEL_BIT           EQU    0E2H
 1173:				;---------------------------------------
 1174:		N      00E3	RLY539                       EQU    0E3H
 1175:		N      00E3	LOCKING_SEL_BIT              EQU    0E3H
 1176:				;---------------------------------------
 1177:		N      00E4	RLY540                       EQU    0E4H
 1178:		N      00E4	EXTRUDER_ON                  EQU    0E4H
 1179:				;---------------------------------------
 1180:		N      00E5	RLY541                       EQU    0E5H
 1181:		N      00E5	SEALING_SEL                  EQU    0E5H
 1182:				;---------------------------------------
 1183:		N      00E6	RLY542                       EQU    0E6H
 1184:		N      00E6	EXTRUDER_OFF                 EQU    0E6H
 1185:				;---------------------------------------
 1186:		N      00E7	RLY543                       EQU    0E7H
 1187:		N      00E7	DEFLASH_SEL_BIT              EQU    0E7H
 1188:				;------------------------------------------
 1189:
 1190:		N      5F44	RLY544_551                   EQU    05F44H
 1191:
 1192:		N      00E0	RLY544                       EQU    0E0H
 1193:		N      00E0	SEALING_PB                   EQU    0E0H
 1194:				;---------------------------------------
 1195:
 1196:		N      00E1	RLY545                       EQU    0E1H
 1197:		N      00E1	LUBRICATION_SEL              EQU    0E1H
 1198:
 1199:		N      00E2	RLY546                       EQU    0E2H
 1200:		N      00E2	DEFLASH_PB                   EQU    0E2H
 1201:
 1202:		N      00E3	RLY547                       EQU    0E3H
 1203:		N      00E3	ROTARY_PB                    EQU    0E3H
 1204:
 1205:		N      00E4	RLY548                       EQU    0E4H
 1206:		N      00E4	BOTTOM_UP_PB                 EQU    0E4H
 1207:
 1208:		N      00E5	RLY549                       EQU    0E5H
 1209:		N      00E5	LIFTUP_PB                    EQU    0E5H
 1210:
 1211:		N      00E6	RLY550                       EQU    0E6H
 1212:		N      00E7	RLY551                       EQU    0E7H
 1213:
 1214:
 1215:				;-------------------------------------------
 1216:		N      5F45	RLY552_559                   EQU    05F45H
 1217:
 1218:		N      00E0	RLY552                       EQU    0E0H

ASEM-51 V1.3                                        Copyright (c) 2002 by W.W. Heinz                                         PAGE 23



 Line  I  Addr  Code            Source

 1219:		N      00E0	ZONE1_SEL                    EQU    0E0H
 1220:				;---------------------------------------
 1221:		N      00E1	RLY553                       EQU    0E1H
 1222:		N      00E1	ZONE2_SEL                    EQU    0E1H
 1223:				;---------------------------------------
 1224:		N      00E2	RLY554                       EQU    0E2H
 1225:		N      00E2	ZONE3_SEL                    EQU    0E2H
 1226:				;---------------------------------------
 1227:		N      00E3	RLY555                       EQU    0E3H
 1228:		N      00E3	ZONE4_SEL                    EQU    0E3H
 1229:				;---------------------------------------
 1230:		N      00E4	RLY556                       EQU    0E4H
 1231:		N      00E4	ZONE5_SEL                    EQU    0E4H
 1232:				;---------------------------------------
 1233:		N      00E5	RLY557                       EQU    0E5H
 1234:		N      00E5	ZONE6_SEL                    EQU    0E5H
 1235:				;---------------------------------------
 1236:		N      00E6	RLY558                       EQU    0E6H
 1237:		N      00E6	ZONE7_SEL                    EQU    0E6H
 1238:				;---------------------------------------
 1239:		N      00E7	RLY559                       EQU    0E7H
 1240:		N      00E7	ZONE8_SEL                    EQU    0E7H
 1241:				;-----------------------------------------------------------------------------
 1242:
 1243:		N      5F46	RLY560_567                   EQU    05F46H
 1244:
 1245:
 1246:
 1247:
 1248:		N      5F4A	RLY592_599                   EQU    05F4AH
 1249:
 1250:
 1251:
 1252:
 1253:				;--------------------------------------------------------------------------
 1254:				;NON BATTERY BACK UP BITS STARTS FROM 1538 TO 2562
 1255:				;--------------------------------------------------------------------------
 1256:		N      5FC0	NON_BAT_BACKUP_BITS          EQU    05FC0H
 1257:
 1258:
 1259:		N      5FC0	RLY1536_1543                 EQU    05FC0H
 1260:		N      5FC0	TM20_ENABLE_1                EQU    05FC0H
 1261:
 1262:		N      00E0	TM20E                        EQU    0E0H
 1263:		N      00E0	RLY1537                      EQU    0E0H
 1264:				;---------------------------------------
 1265:		N      00E1	TM20D                        EQU    0E1H
 1266:		N      00E1	RLY1538                      EQU    0E1H
 1267:				;---------------------------------------
 1268:		N      00E2	TM21E                        EQU    0E2H
 1269:		N      00E2	RLY1539                      EQU    0E2H
 1270:				;---------------------------------------
 1271:		N      00E3	TM21D                        EQU    0E3H
 1272:		N      00E3	RLY1540                      EQU    0E3H
 1273:				;---------------------------------------
 1274:		N      00E4	TM22E                        EQU    0E4H

ASEM-51 V1.3                                        Copyright (c) 2002 by W.W. Heinz                                         PAGE 24



 Line  I  Addr  Code            Source

 1275:		N      00E4	RLY1541                      EQU    0E4H
 1276:				;---------------------------------------
 1277:		N      00E5	TM22D                        EQU    0E5H
 1278:		N      00E5	RLY1542                      EQU    0E5H
 1279:				;---------------------------------------
 1280:		N      00E6	TM23E                        EQU    0E6H
 1281:		N      00E6	RLY1543                      EQU    0E6H
 1282:				;---------------------------------------
 1283:		N      00E7	TM23D                        EQU    0E7H
 1284:		N      00E7	RLY1544                      EQU    0E7H
 1285:
 1286:
 1287:				;-----------------------------------------------------------------
 1288:		N      5FC1	RLY1544_1551                 EQU    05FC1H
 1289:		N      5FC1	TM24_ENABLE_1                EQU    05FC1H
 1290:
 1291:		N      00E0	TM24E                        EQU    0E0H
 1292:		N      00E0	RLY1545                      EQU    0E0H
 1293:				;---------------------------------------
 1294:		N      00E1	TM24D                        EQU    0E1H
 1295:		N      00E1	RLY1546                      EQU    0E1H
 1296:				;---------------------------------------
 1297:		N      00E2	TM25E                        EQU    0E2H
 1298:		N      00E2	RLY1547                      EQU    0E2H
 1299:				;---------------------------------------
 1300:		N      00E3	TM25D                        EQU    0E3H
 1301:		N      00E3	RLY1548                      EQU    0E3H
 1302:				;---------------------------------------
 1303:		N      00E4	TM26E                        EQU    0E4H
 1304:		N      00E4	RLY1549                      EQU    0E4H
 1305:				;---------------------------------------
 1306:		N      00E5	TM26D                        EQU    0E5H
 1307:		N      00E5	RLY1550                      EQU    0E5H
 1308:				;---------------------------------------
 1309:		N      00E6	TM27E                        EQU    0E6H
 1310:		N      00E6	RLY1551                      EQU    0E6H
 1311:				;---------------------------------------
 1312:		N      00E7	TM27D                        EQU    0E7H
 1313:		N      00E7	RLY1552                      EQU    0E7H
 1314:				;-----------------------------------------------------------------------
 1315:
 1316:
 1317:		N      5FC2	RLY1552_1559                 EQU    05FC2H
 1318:		N      5FC2	TM28_ENABLE_1                EQU    05FC2H
 1319:
 1320:
 1321:		N      00E0	TM28E                        EQU    0E0H
 1322:		N      00E0	RLY1553                      EQU    0E0H
 1323:				;---------------------------------------
 1324:		N      00E1	TM28D                        EQU    0E1H
 1325:		N      00E1	RLY1554                      EQU    0E1H
 1326:				;---------------------------------------
 1327:		N      00E2	TM29E                        EQU    0E2H
 1328:		N      00E2	RLY1555                      EQU    0E2H
 1329:				;---------------------------------------
 1330:		N      00E3	TM29D                        EQU    0E3H

ASEM-51 V1.3                                        Copyright (c) 2002 by W.W. Heinz                                         PAGE 25



 Line  I  Addr  Code            Source

 1331:		N      00E3	RLY1556                      EQU    0E3H
 1332:				;---------------------------------------
 1333:		N      00E4	TM30E                        EQU    0E4H
 1334:		N      00E4	RLY1557                      EQU    0E4H
 1335:				;---------------------------------------
 1336:		N      00E5	TM30D                        EQU    0E5H
 1337:		N      00E5	RLY1558                      EQU    0E5H
 1338:				;---------------------------------------
 1339:		N      00E6	TM31E                        EQU    0E6H
 1340:		N      00E6	RLY1559                      EQU    0E6H
 1341:				;---------------------------------------
 1342:		N      00E7	TM31D                        EQU    0E7H
 1343:		N      00E7	RLY1560                      EQU    0E7H
 1344:				;------------------------------------------
 1345:
 1346:
 1347:		N      5FC3	RLY1560_1567                 EQU    05FC3H
 1348:		N      5FC3	TM40_ENABLE_1                EQU    05FC3H
 1349:
 1350:		N      00E0	TM40E                        EQU    0E0H
 1351:		N      00E1	TM40D                        EQU    0E1H
 1352:		N      00E2	TM41E                        EQU    0E2H
 1353:		N      00E3	TM41D                        EQU    0E3H
 1354:		N      00E4	TM42E                        EQU    0E4H
 1355:		N      00E5	TM42D                        EQU    0E5H
 1356:		N      00E6	TM43E                        EQU    0E6H
 1357:		N      00E7	TM43D                        EQU    0E7H
 1358:
 1359:
 1360:		N      5FC4	ALARM_BIT_1_H                EQU    05FC4H
 1361:		N      5FC4	RLY1568_1575                 EQU    05FC4H
 1362:
 1363:		N      5FC5	ALARM_BIT_1_L                EQU    05FC5H
 1364:		N      5FC5	RLY1576_1583                 EQU    05FC5H
 1365:
 1366:
 1367:
 1368:		N      5FC7	TM104_ENABLE_1               EQU    05FC7H
 1369:
 1370:		N      00E0	TM104E                       EQU    0E0H
 1371:		N      00E0	DEFLASH_DLY_START_TM104E     EQU    0E0H
 1372:
 1373:		N      00E1	TM104D                       EQU    0E1H
 1374:		N      00E1	DEFLASH_DLY_START_TM104D     EQU    0E1H
 1375:
 1376:		N      00E2	TM105E                       EQU    0E2H
 1377:		N      00E2	DEFLASH_IN_TM105E            EQU    0E2H
 1378:
 1379:		N      00E3	TM105D                       EQU    0E3H
 1380:		N      00E3	DEFLASH_IN_TM105D            EQU    0E3H
 1381:
 1382:		N      00E4	TM106E                       EQU    0E4H
 1383:		N      00E4	ROTARY_CUT_DLY_TM106E        EQU    0E4H
 1384:
 1385:		N      00E5	TM106D                       EQU    0E5H
 1386:		N      00E5	ROTARY_CUT_DLY_TM106D        EQU    0E5H

ASEM-51 V1.3                                        Copyright (c) 2002 by W.W. Heinz                                         PAGE 26



 Line  I  Addr  Code            Source

 1387:
 1388:		N      00E6	TM107E                       EQU    0E6H
 1389:		N      00E6	ROTARY_CUT_TM107E            EQU    0E6H
 1390:
 1391:		N      00E7	TM107D                       EQU    0E7H
 1392:		N      00E7	ROTARY_CUT_TM107D            EQU    0E7H
 1393:				;--------------------------------------------------------------------------
 1394:		N      5FC8	TM108_ENABLE_1               EQU    05FC8H
 1395:
 1396:		N      00E0	TM108E                       EQU    0E0H
 1397:		N      00E0	BOTTEM_DLY_START_TM108E      EQU    0E0H
 1398:
 1399:		N      00E1	TM108D                       EQU    0E1H
 1400:		N      00E1	BOTTEM_DLY_START_TM108D      EQU    0E1H
 1401:
 1402:		N      00E2	TM109E                       EQU    0E2H
 1403:		N      00E2	BOTTEM_ON_TM109E             EQU    0E2H
 1404:
 1405:		N      00E3	TM109D                       EQU    0E3H
 1406:		N      00E3	BOTTEM_ON_TM109D             EQU    0E3H
 1407:
 1408:		N      00E4	TM110E                       EQU    0E4H
 1409:		N      00E4	LIFTUP_DLY_TM110E            EQU    0E4H
 1410:
 1411:		N      00E5	TM110D                       EQU    0E5H
 1412:		N      00E5	LIFTUP_DLY_TM110D            EQU    0E5H
 1413:
 1414:		N      00E6	TM111E                       EQU    0E6H
 1415:		N      00E6	LIFTUP_ON_TM111E             EQU    0E6H
 1416:
 1417:		N      00E7	TM111D                       EQU    0E7H
 1418:		N      00E7	LIFTUP_ON_TM111D             EQU    0E7H
 1419:
 1420:				;-----------------------------------------------------------------------------------------------
 1421:				;FIXED CHARACTER DEFINITION
 1422:				;-------------------------------------------------------------------------------------------------
 1423:
 1424:		N      000D	END_CHARACTER_1     EQU   0DH                            ;5AH
 1425:		N      000A	END_CHARACTER_2     EQU   0AH
 1426:		N      003A	HEADER              EQU   3AH
 1427:				;-----------------------------------------------------------------------------------------------
 1428:
 1429:		N      0000		org	0000h
 1430:	  0000	02 00 92		LJMP  MAIN                     ;	main
 1431:
 1432:
 1433:		N      000B		ORG     000BH
 1434:	  000B	02 00 61		LJMP    ISR_T0          ;	isr_t0		;timer0 interrupt
 1435:
 1436:		N      0023		ORG	0023H
 1437:	  0023	02 07 2D		LJMP	SERIAL		;serial interrupt
 1438:
 1439:				;-----------------------------------------------------------------------------------------------
 1440:				;initialises stack pointer,bits & bytes variables
 1441:				;-----------------------------------------------------------------------------------------------
 1442:

ASEM-51 V1.3                                        Copyright (c) 2002 by W.W. Heinz                                         PAGE 27



 Line  I  Addr  Code            Source

 1443:	  0026			   init:
 1444:
 1445:	  0026	75 A8 00		mov	ie,#00h				;interrupt enable reg.=00h
 1446:	  0029	75 89 00		mov	tmod,#00h			;timer mode control reg.=00h
 1447:	  002C	75 88 00		mov	tcon,#00h			;timer control=00h
 1448:	  002F	75 98 00		mov	scon,#00h			;serial port control reg.=00h
 1449:	  0032	75 8A 00		mov	tl0,#00h			;timer0=00h
 1450:	  0035	75 8C 00		mov	th0,#00h
 1451:	  0038	75 8B 00		mov	tl1,#00h			;timer1=00h
 1452:	  003B	75 8D 00		mov	th1,#00h
 1453:	  003E	75 08 00		mov	byte_cnt,#00h
 1454:	  0041	75 0F FF		mov	count_1s,#0ffh			;3.64*255*03=2784ms
 1455:	  0044	75 B8 10		mov	ip,#10h
 1456:	  0047	22		   RET
 1457:				;---------------------------------------------------
 1458:	  0048				INIT_1:
 1459:
 1460:	  0048	C2 00			clr	rcve_over
 1461:	  004A	C2 01			clr	trans_over
 1462:	  004C	C2 05			clr	last_byte
 1463:	  004E	C2 06			clr	delay_over
 1464:	  0050	22		   RET
 1465:				;-----------------------------------------------------------------------------------------------
 1466:				;initialises timer0 for time interval of 3.5 char
 1467:				;-----------------------------------------------------------------------------------------------
 1468:				;--------------------------------------------------------------------
 1469:				;(89h)
 1470:				;TMOD-->GATE, C/T, M1,	M0, GATE, C/T, M1, M0, T/C (timer1,timer0)
 1471:				;init timer 0  for 3.5 char time
 1472:	  0051			   init_timer0:
 1473:
 1474:	  0051	43 89 01		ORL	TMOD,#01H		;t0 in 16 bit timer mode.
 1475:	  0054	75 8A DF		MOV	TL0,#0DFH		;Init timer0 with count for 3.64 msec
 1476:	  0057	75 8C F9		MOV	TH0,#0F9H		;count=0f2dfh for 3.64msec.
 1477:	  005A	D2 8C			SETB	TR0			   ;start timer 0.
 1478:	  005C	D2 A9		   SETB	ET0			   ;enable timer 0 Interrupt.
 1479:	  005E	D2 AF			SETB	EA
 1480:	  0060	22			RET
 1481:
 1482:				;--------------------------------------------------------------------
 1483:				;isr for timer0 interrupt
 1484:				;--------------------------------------------------------------------
 1485:
 1486:	  0061			   isr_t0:
 1487:
 1488:
 1489:
 1490:	  0061	75 8A DF	   MOV   TL0,#0DFH
 1491:	  0064	75 8C F9	   MOV   TH0,#0F9H   ;FC FOR 11.0592 MHZ CRYSTAL & F9 FOR 22 MHZ CRYSTAL
 1492:	  0067	05 0A			INC   TIMECT
 1493:	  0069	05 1C			INC   SECOND_CLK
 1494:	  006B	05 37			INC   IP_DEBOUNCE
 1495:	  006D	05 38		   INC   TC_DEBOUNCE
 1496:	  006F	D5 0F 02		DJNZ	COUNT_1S,OUT_ISRT0		;3.64*255
 1497:	  0072	D2 06			SETB	DELAY_OVER			;3sec delay is over


ASEM-51 V1.3                                        Copyright (c) 2002 by W.W. Heinz                                         PAGE 28



 Line  I  Addr  Code            Source

 1498:
 1499:
 1500:	  0074			   OUT_ISRT0:
 1501:
 1502:
 1503:
 1504:	  0074	32			RETI
 1505:
 1506:				;--------------------------------------------------------------------
 1507:	  0075			   INIT_TIMER1:
 1508:
 1509:	  0075	43 89 20		ORL	  TMOD,#20H  		;t1 in 8 bit auto reload mode.
 1510:	  0078	75 8D FD		MOV     TH1,#0FDH               ;init. TH1 with count for
 1511:									;9600 baud (11.059MHz)
 1512:	  007B	D2 8E			SETB    TR1                     ;Start timer 1 (baud rate)
 1513:	  007D	22			RET
 1514:
 1515:				;-----------------------------------------------------------------------------------------------
 1516:				;initialises to receive data on serial port
 1517:				;-----------------------------------------------------------------------------------------------
 1518:
 1519:	  007E			   init_rcve:
 1520:
 1521:	  007E	75 98 50	   MOV	SCON,#50H       			;mode-1,8-bit,ren enabled
 1522:	  0081	43 A8 90		ORL	IE,#10010000B			;enable serial interrupt
 1523:
 1524:	  0084	12 00 75		LCALL	INIT_TIMER1
 1525:	  0087	22		   RET
 1526:
 1527:				;-----------------------------------------------------------------------------------------------
 1528:				;initialises to xmit data on serial port
 1529:				;-----------------------------------------------------------------------------------------------
 1530:
 1531:	  0088			   INIT_XMIT:
 1532:
 1533:	  0088	75 98 40		MOV	SCON,#40H			;mode1,8-bit,ren disabled
 1534:	  008B	43 A8 90		ORL	IE,#10010000B			;enable serial interrupt
 1535:	  008E	12 00 75	   LCALL	INIT_TIMER1
 1536:	  0091	22			RET
 1537:
 1538:				;-----------------------------------------------------------------------------------------------
 1539:				;POWER ON INITALISATION
 1540:				;-----------------------------------------------------------------------------------------------
 1541:	  0092			   MAIN:
 1542:
 1543:	  0092	75 81 E0		MOV	 SP,#0E0H
 1544:	  0095	75 8E 03	   MOV    8EH,#03
 1545:
 1546:	  0098	74 00		   MOV    A,#0
 1547:	  009A	90 23 05	   MOV    DPTR,#CTC02L
 1548:	  009D	F0			MOVX   @DPTR,A
 1549:
 1550:
 1551:	  009E	E5 36		   MOV    A,POWER_ON_STATE
 1552:	  00A0	B4 55 02	   CJNE   A,#55H,WDT_RST_NOT_ENAB
 1553:	  00A3	80 38		   SJMP   WDT_RST_BYPASS

ASEM-51 V1.3                                        Copyright (c) 2002 by W.W. Heinz                                         PAGE 29



 Line  I  Addr  Code            Source

 1554:
 1555:	  00A5			   WDT_RST_NOT_ENAB:
 1556:
 1557:	  00A5	90 5F 00	   MOV    DPTR,#OUTPUT00_07
 1558:	  00A8	74 00		   MOV    A,#0
 1559:	  00AA	F0		   MOVX   @DPTR,A
 1560:	  00AB	90 E8 00	   MOV    DPTR,#OUTPUT_ADDRESS
 1561:	  00AE	F0		   MOVX   @DPTR,A
 1562:
 1563:	  00AF	78 00		   MOV    R0,#0
 1564:	  00B1	7F FF		   MOV    R7,#255
 1565:	  00B3	74 00		   MOV    A,#0
 1566:
 1567:	  00B5			   CLEAR_NXT_INT_RAM:
 1568:
 1569:	  00B5	F6		   MOV    @R0,A
 1570:	  00B6	08		   INC    R0
 1571:	  00B7	DF FC		   DJNZ   R7,CLEAR_NXT_INT_RAM
 1572:
 1573:
 1574:
 1575:				;----------------------------------------------------------------------------------------------
 1576:				;RESET ALL NON BATTERY BACKUP BITS
 1577:				;128 BYTES CORRESPOND TO 1024 BITS 128X8
 1578:				;----------------------------------------------------------------------------------------------
 1579:	  00B9	7D 80		   MOV    R5,#128
 1580:	  00BB	90 5F C0	   MOV    DPTR,#RLY1536_1543   ;NON BATTERY BACKUP FLAG ADDRESS STARTS HERE
 1581:
 1582:	  00BE			   NON_BATT_BITS:
 1583:
 1584:	  00BE	F0		   MOVX   @DPTR,A
 1585:	  00BF	A3		   INC    DPTR
 1586:	  00C0	DD FC		   DJNZ   R5,NON_BATT_BITS
 1587:				;-----------------------------------------------------------
 1588:				;NON BATTERY BACK UP WORDS ARE SET TO 0 ON POWER ON
 1589:				;-----------------------------------------------------------
 1590:	  00C2	90 23 88	   MOV    DPTR,#NON_BATBACKUP_WORDS
 1591:	  00C5	74 00		   MOV    A,#0H
 1592:
 1593:	  00C7	7E 04		   MOV    R6,#4
 1594:
 1595:	  00C9			   NEXT_LOCN1:
 1596:
 1597:	  00C9	7D FA		   MOV    R5,#250
 1598:
 1599:	  00CB			   NEXT_LOCN:
 1600:
 1601:	  00CB	F0		   MOVX   @DPTR,A
 1602:	  00CC	A3		   INC    DPTR
 1603:	  00CD	DD FC		   DJNZ   R5,NEXT_LOCN
 1604:	  00CF	DE F8		   DJNZ   R6,NEXT_LOCN1
 1605:				;-------------------------------------------
 1606:				;POWER ON RESET OF CERTAIN BITS
 1607:				;-------------------------------------------
 1608:
 1609:

ASEM-51 V1.3                                        Copyright (c) 2002 by W.W. Heinz                                         PAGE 30



 Line  I  Addr  Code            Source

 1610:	  00D1	90 5F 43	  	 MOV   DPTR,#RLY536_543
 1611:	  00D4	E0		    MOVX  A,@DPTR
 1612:	  00D5	C3		    CLR   C
 1613:	  00D6	92 E0		    MOV   AUTO_MAN_SEL_BIT,C
 1614:	  00D8	92 E1		    MOV   HEATER_ON_OFF_BIT,C
 1615:	  00DA	92 E4		    MOV   EXTRUDER_ON,C
 1616:	  00DC	F0		    MOVX  @DPTR,A
 1617:
 1618:	  00DD			    WDT_RST_BYPASS:
 1619:				;-----------------------------------------------------------------
 1620:	  00DD	12 00 26	   LCALL  INIT
 1621:	  00E0	12 00 51	   LCALL	 INIT_TIMER0
 1622:				;----------------------------------------------------------------------------------------------
 1623:				;SERIAL INITALISATION
 1624:				;----------------------------------------------------------------------------------------------
 1625:	  00E3			   MAIN_LOOP:
 1626:
 1627:	  00E3	12 06 F2	   LCALL  INITALISE_RECEIVE
 1628:				;------------------------------------------------------------------
 1629:				;START OF MAIN PROGRAM
 1630:				;-----------------------------------------------------------------
 1631:
 1632:	  00E6			   MAIN_ROUTINE:
 1633:
 1634:	  00E6	75 36 55	   MOV    POWER_ON_STATE,#55H
 1635:
 1636:	  00E9	12 06 E0	   LCALL  CHECK_SERIAL_COMMUNICATION
 1637:	  00EC	12 18 58	   LCALL  LADDER_INIT_2
 1638:	  00EF	12 09 37	   LCALL  RESET_WATCHDOG
 1639:	  00F2	12 08 A3	   LCALL  READ_INPUTS
 1640:	  00F5	12 09 3E	   LCALL  TMR_HANDLER
 1641:	  00F8	12 09 37	   LCALL  RESET_WATCHDOG
 1642:	  00FB	12 21 C3	   LCALL  CTR_HANDLER
 1643:	  00FE	12 18 A0	   LCALL  LADDER
 1644:	  0101	12 06 E0		LCALL  CHECK_SERIAL_COMMUNICATION
 1645:	  0104	12 09 37		LCALL  RESET_WATCHDOG
 1646:	  0107	12 08 78		LCALL  LOAD_OUTPUT
 1647:	  010A	12 23 3A	   LCALL  PROD_COUNTER
 1648:				;----------------------------
 1649:	  010D	E5 38		   MOV    A,TC_DEBOUNCE
 1650:	  010F	C3		  	CLR    C
 1651:	  0110	94 60		  	SUBB   A,#96
 1652:	  0112	50 0C		  	JNC    NOT_MY_SCAN_TC
 1653:	  0114	75 38 00	  	MOV    TC_DEBOUNCE,#0
 1654:	  0117	12 08 D0	   LCALL  READ_ADC
 1655:	  011A	12 1C 49	   LCALL  ZONE_DISPLAY
 1656:	  011D	12 1D 50	   LCALL  CONTROL_TEMP
 1657:				;-----------------------------
 1658:	  0120			   NOT_MY_SCAN_TC:
 1659:
 1660:	  0120	12 09 37		LCALL  RESET_WATCHDOG
 1661:	  0123	12 1F 71		LCALL  LOW_LIMIT_CHK
 1662:	  0126	12 20 7A		LCALL  CHECK_ALARAM
 1663:				;------------------------------------
 1664:	  0129	90 23 CA	   MOV    DPTR,#ALARM_1_H
 1665:	  012C	E0		   MOVX   A,@DPTR

ASEM-51 V1.3                                        Copyright (c) 2002 by W.W. Heinz                                         PAGE 31



 Line  I  Addr  Code            Source

 1666:	  012D	90 5F C4	   MOV    DPTR,#ALARM_BIT_1_H
 1667:	  0130	F0		   MOVX   @DPTR,A
 1668:
 1669:	  0131	90 23 CB	   MOV    DPTR,#ALARM_1_L
 1670:	  0134	E0		   MOVX   A,@DPTR
 1671:	  0135	90 5F C5	   MOV    DPTR,#ALARM_BIT_1_L
 1672:	  0138	F0		   MOVX   @DPTR,A
 1673:				;-------------------------------------
 1674:
 1675:	  0139	D2 07			SETB   B_FIRST_CYCLE
 1676:	  013B	20 06 A5		JB	    DELAY_OVER,MAIN_LOOP
 1677:	  013E	D2 07		   SETB   B_FIRST_CYCLE
 1678:				;------------------------------------------
 1679:				;WATCHDOG TEST PROGRAM
 1680:				;-----------------------------------------
 1681:				;	MOV    DPTR,#CTC02L
 1682:				;	MOVX   A,@DPTR
 1683:				;	CJNE   A,#05,DO_NOT_HANG_UP
 1684:
 1685:				;	HANG_UP:
 1686:
 1687:				;	SJMP   HANG_UP
 1688:
 1689:
 1690:				;	DO_NOT_HANG_UP:
 1691:				;-------------------------------------------
 1692:	  0140	02 00 E6		LJMP   MAIN_ROUTINE

 1693:
 1694:	  0143				DOWN:
 1695:
 1696:	  0143				TRANSMIT:
 1697:
 1698:	  0143	C2 AC			CLR    IE.4
 1699:	  0145	C2 00			CLR	 RCVE_OVER
 1700:
 1701:				  ; TRANSMIT:
 1702:
 1703:	  0147	90 04 00	   MOV    DPTR,#RX_BUF
 1704:	  014A	A3		   INC    DPTR
 1705:	  014B	A3		   INC    DPTR
 1706:	  014C	A3		   INC    DPTR
 1707:	  014D	E0		   MOVX   A,@DPTR
 1708:	  014E	B4 31 02	   CJNE   A,#31H,CHECK_QUERY_LESS_THAN_10H
 1709:	  0151	80 26		   SJMP   CHECK_FN_CODE_10_QUERY
 1710:
 1711:	  0153			   CHECK_QUERY_LESS_THAN_10H:
 1712:
 1713:	  0153	A3		   INC    DPTR
 1714:	  0154	E0		   MOVX   A,@DPTR
 1715:	  0155	B4 33 03	   CJNE   A,#33H,CHECK_FN_CODE_06_QUERY
 1716:	  0158	02 01 83	   LJMP   FN_CODE_03_REPLY
 1717:
 1718:	  015B			   CHECK_FN_CODE_06_QUERY:
 1719:
 1720:	  015B	B4 36 03	   CJNE   A,#36H,CHECK_FN_01_QUERY

ASEM-51 V1.3                                        Copyright (c) 2002 by W.W. Heinz                                         PAGE 32



 Line  I  Addr  Code            Source

 1721:	  015E	02 01 E9	   LJMP   FN_CODE_06_QUERY
 1722:
 1723:	  0161			   CHECK_FN_01_QUERY:
 1724:
 1725:	  0161	B4 31 03	   CJNE   A,#31H,CHECK_FN_CODE_02_QUERY
 1726:	  0164	02 02 49	   LJMP   FN_CODE_01_QUERY
 1727:
 1728:	  0167			   CHECK_FN_CODE_02_QUERY:
 1729:
 1730:	  0167	B4 32 03	   CJNE   A,#32H,CHECK_FN_CODE_05_QUERY
 1731:	  016A	02 03 98	   LJMP   FN_CODE_02_QUERY
 1732:
 1733:
 1734:	  016D			   CHECK_FN_CODE_05_QUERY:
 1735:
 1736:	  016D	B4 35 03	   CJNE   A,#35H,CHECK_FN_CODE_0F_QUERY
 1737:	  0170	02 04 E7	   LJMP   FN_CODE_05_QUERY
 1738:
 1739:	  0173			   CHECK_FN_CODE_0F_QUERY:
 1740:
 1741:	  0173	B4 46 0B	   CJNE   A,#46H,JUMP_BACK                      ;MAIN_LOOP                          ;
 1742:	  0176	02 05 B3	   LJMP   FN_CODE_0F_QUERY
 1743:
 1744:
 1745:	  0179			   CHECK_FN_CODE_10_QUERY:
 1746:
 1747:	  0179	A3		   INC    DPTR
 1748:	  017A	E0		   MOVX   A,@DPTR
 1749:	  017B	B4 30 03	   CJNE   A,#30H,JUMP_BACK                          ;MAIN_LOOP
 1750:	  017E	02 06 31	   LJMP   FN_CODE_10_QUERY
 1751:
 1752:
 1753:	  0181			   JUMP_BACK:
 1754:
 1755:	  0181	01 E3		   AJMP   MAIN_LOOP
 1756:
 1757:				;************************************************************************
 1758:				;
 1759:
 1760:	  0183			   FN_CODE_03_REPLY:
 1761:
 1762:	  0183	12 07 08	   LCALL  CAL_START_ADDRESS
 1763:
 1764:	  0186			   TRANSMIT_DATA:
 1765:
 1766:	  0186	12 07 EB	   LCALL  ASCII_TO_HEX    ;NO OF REGISTERS TO READ WILL NOT EXCEED 16 HENCE THESE LOCN ARE DISCARDED
 1767:	  0189	12 07 EB	   LCALL  ASCII_TO_HEX
 1768:	  018C	F5 08		   MOV    BYTE_CNT,A    ;BYTE_COUNT
 1769:				;----------------------------------------------
 1770:	  018E	12 07 1E	  	LCALL HEADER_SLAVE_ID
 1771:				;------------------------------------------------
 1772:	  0191	A3		   INC   DPTR
 1773:	  0192	74 30			MOV   A,#30H    ;FUNCTION CODE
 1774:	  0194	F0		   MOVX  @DPTR,A
 1775:	  0195	A3		   INC   DPTR
 1776:	  0196	74 33		   MOV   A,#33H

ASEM-51 V1.3                                        Copyright (c) 2002 by W.W. Heinz                                         PAGE 33



 Line  I  Addr  Code            Source

 1777:	  0198	F0		   MOVX  @DPTR,A
 1778:	  0199	A3		   INC   DPTR
 1779:				;------------------------------------------------
 1780:				;BYTE COUNT
 1781:				;------------------------------------------------
 1782:	  019A	E5 08		   MOV   A,BYTE_CNT
 1783:	  019C	C3		   CLR   C
 1784:	  019D	33		   RLC   A
 1785:	  019E	F0		   MOVX  @DPTR,A
 1786:	  019F	12 08 07	   LCALL HEX_TO_ASCII
 1787:
 1788:				;------------------------------------------------------
 1789:
 1790:	  01A2	E5 08		   MOV   A,BYTE_CNT
 1791:	  01A4	C3		   CLR   C
 1792:	  01A5	33		   RLC   A
 1793:	  01A6	FF		   MOV   R7,A
 1794:
 1795:	  01A7			   CAL_DPTR:
 1796:
 1797:	  01A7	C0 83		   PUSH  DPH
 1798:	  01A9	C0 82		   PUSH  DPL
 1799:	  01AB	90 10 00	   MOV   DPTR,#START_ADDRESS_DATA_REG          ;-2               ;-2
 1800:	  01AE	E5 82		   MOV   A,DPL
 1801:	  01B0	25 11		   ADD   A,TEMP2
 1802:	  01B2	F5 82		   MOV   DPL,A
 1803:	  01B4	E5 83		   MOV   A,DPH
 1804:	  01B6	35 10		   ADDC  A,TEMP1
 1805:	  01B8	F5 83		   MOV   DPH,A
 1806:
 1807:	  01BA			   GET_NEXT_DATA:
 1808:
 1809:	  01BA	E0		   MOVX  A,@DPTR                                     ;LCALL GET_RAM_DATA
 1810:	  01BB	D0 82		   POP   DPL
 1811:	  01BD	D0 83		   POP   DPH
 1812:	  01BF	05 11		   INC   TEMP2
 1813:	  01C1	50 02		   JNC   NO_DPTR_INCREASE
 1814:	  01C3	05 10		   INC   TEMP1
 1815:
 1816:	  01C5			   NO_DPTR_INCREASE:
 1817:
 1818:	  01C5	12 08 07	   LCALL HEX_TO_ASCII   ; 1 BYTE DONE
 1819:	  01C8	DF DD		   DJNZ  R7,CAL_DPTR                          ; GET_NEXT_DATA
 1820:
 1821:				;--------------------------------------------------------------------
 1822:	  01CA	E5 08			MOV   A,BYTE_CNT
 1823:	  01CC	75 F0 04		MOV   B,#4
 1824:	  01CF	A4		   MUL   AB
 1825:	  01D0	24 06		   ADD   A,#6
 1826:	  01D2	FF			MOV	R7,A             ;BYTE COUNT WHOSE LRC IS TO BE CALCULATED
 1827:	  01D3	90 05 00		MOV	DPTR,#TX_BUF                              ;R0,#TX_BUF
 1828:	  01D6	A3			INC   DPTR
 1829:				;----------------------------------------------------
 1830:	  01D7	12 07 C1		LCALL	CAL_LRC		;MODBUS ASCII CHECK IT SHOULD BE DIVIDE BY 2
 1831:				;---------------------------------------------------
 1832:	  01DA	E5 08			MOV   A,BYTE_CNT

ASEM-51 V1.3                                        Copyright (c) 2002 by W.W. Heinz                                         PAGE 34



 Line  I  Addr  Code            Source

 1833:	  01DC	75 F0 04		MOV   B,#4
 1834:	  01DF	A4			MUL   AB
 1835:	  01E0	24 07			ADD   A,#7
 1836:	  01E2	FF			MOV   R7,A
 1837:	  01E3	12 07 8E		LCALL ADD_LRC_ASC
 1838:	  01E6	02 06 D0		LJMP  TRANSMIT_DATA_START
 1839:				;--------------------------------------------------------
 1840:				;FN CODE 03 READ DAT REGS ENDS HERE
 1841:				;--------------------------------------------------------
 1842:				;*********************************************************************************************
 1843:				;-----------------------------------------
 1844:				;MOVES THE DATA INTO THE PRESET REGISTER
 1845:				;-----------------------------------------
 1846:
 1847:
 1848:
 1849:	  01E9			   FN_CODE_06_QUERY:
 1850:
 1851:	  01E9	12 07 08	   LCALL  CAL_START_ADDRESS
 1852:	  01EC	12 07 EB	   LCALL  ASCII_TO_HEX
 1853:	  01EF	F5 F0		   MOV    B,A
 1854:	  01F1	C0 83		   PUSH   DPH
 1855:	  01F3	C0 82		   PUSH   DPL
 1856:	  01F5	90 10 00	   MOV    DPTR,#START_ADDRESS_DATA_REG
 1857:	  01F8	E5 82		   MOV    A,DPL
 1858:	  01FA	C3		   CLR    C
 1859:	  01FB	25 11		   ADD    A,TEMP2
 1860:	  01FD	F5 82		   MOV    DPL,A
 1861:	  01FF	E5 83		   MOV    A,DPH
 1862:	  0201	35 10		   ADDC   A,TEMP1
 1863:	  0203	F5 83		   MOV    DPH,A
 1864:	  0205	E5 F0		   MOV    A,B
 1865:	  0207	F0		   MOVX   @DPTR,A
 1866:	  0208	D0 82		   POP    DPL
 1867:	  020A	D0 83		   POP    DPH
 1868:	  020C	12 07 EB	   LCALL  ASCII_TO_HEX
 1869:	  020F	F5 F0		   MOV    B,A
 1870:	  0211	90 10 01	   MOV   DPTR,#START_ADDRESS_DATA_REG+1
 1871:	  0214	E5 82		   MOV   A,DPL
 1872:	  0216	C3		   CLR   C
 1873:	  0217	25 11		   ADD   A,TEMP2
 1874:	  0219	F5 82		   MOV   DPL,A
 1875:	  021B	E5 83		   MOV   A,DPH
 1876:	  021D	35 10		   ADDC  A,TEMP1
 1877:	  021F	F5 83		   MOV   DPH,A
 1878:	  0221	E5 F0		   MOV   A,B
 1879:	  0223	F0		   MOVX  @DPTR,A
 1880:
 1881:				;-----------------------------------------------
 1882:	  0224			   TRANSMIT_REPLY:
 1883:
 1884:				 ; 	LCALL HEADER_SLAVE_ID
 1885:				;------------------------------------------------
 1886:				 ;  INC   DPTR
 1887:	  0224	75 08 00	   MOV   BYTE_CNT,#0
 1888:

ASEM-51 V1.3                                        Copyright (c) 2002 by W.W. Heinz                                         PAGE 35



 Line  I  Addr  Code            Source

 1889:	  0227			   REPEAT_TRANSFER_FROM_RX_TX:
 1890:
 1891:	  0227	90 04 00	   MOV   DPTR,#RX_BUF
 1892:	  022A	E5 08		   MOV   A,BYTE_CNT
 1893:	  022C	C3		   CLR   C
 1894:	  022D	25 82		   ADD   A,DPL
 1895:	  022F	F5 82		   MOV   DPL,A
 1896:	  0231	E0		   MOVX  A,@DPTR
 1897:	  0232	F5 F0		   MOV   B,A
 1898:	  0234	90 05 00	   MOV   DPTR,#TX_BUF
 1899:	  0237	E5 08		   MOV   A,BYTE_CNT
 1900:	  0239	C3		   CLR   C
 1901:	  023A	25 82		   ADD   A,DPL
 1902:	  023C	F5 82		   MOV   DPL,A
 1903:	  023E	E5 F0		   MOV   A,B
 1904:	  0240	F0		   MOVX  @DPTR,A
 1905:	  0241	05 08		   INC   BYTE_CNT
 1906:	  0243	B4 0A E1	   CJNE  A,#END_CHARACTER_2,REPEAT_TRANSFER_FROM_RX_TX
 1907:
 1908:
 1909:	  0246	02 06 D0	   LJMP  TRANSMIT_DATA_START
 1910:				;----------------------------------------------------
 1911:				;START OF FN 01 QUERY
 1912:				;----------------------------------------------------
 1913:				;START OF QUERY FOR DELTA KINCO REPLACEMENT
 1914:				;----------------------------------------------------
 1915:	  0249			   FN_CODE_01_QUERY:
 1916:
 1917:	  0249	75 1A 00	   MOV    RSLT_0,#0
 1918:	  024C	A3		   INC    DPTR
 1919:	  024D	12 07 EB	   LCALL  ASCII_TO_HEX
 1920:	  0250	75 F0 20	   MOV    B,#32
 1921:	  0253	A4		   MUL    AB
 1922:	  0254	F5 10		   MOV    TEMP1,A
 1923:				;-----------------------------------------
 1924:	  0256	12 07 EB	   LCALL  ASCII_TO_HEX
 1925:	  0259	75 F0 08	   MOV    B,#8
 1926:	  025C	84		   DIV    AB
 1927:	  025D	C3		   CLR    C
 1928:	  025E	25 10		   ADD    A,TEMP1
 1929:	  0260	F5 11		   MOV    TEMP2,A
 1930:	  0262	E5 F0		   MOV    A,B       ;RETREIVE REMAINDER
 1931:	  0264	C3		   CLR    C
 1932:	  0265	FD		   MOV    R5,A
 1933:	  0266	12 07 EB	   LCALL  ASCII_TO_HEX    ;NO OF BITS TO READ WILL NOT EXCEED 256 HENCE THESE LOCN ARE DISCARDED
 1934:	  0269	12 07 EB	   LCALL  ASCII_TO_HEX
 1935:	  026C	F5 08		   MOV    BYTE_CNT,A    ;BYTE_COUNT
 1936:
 1937:
 1938:	  026E			   LOAD_TRANSMIT_BUFFER_FN_CODE_01:
 1939:
 1940:	  026E	12 07 1E	   LCALL  HEADER_SLAVE_ID
 1941:				;--------------------------------------
 1942:	  0271	A3		   INC   DPTR
 1943:	  0272	74 30			MOV   A,#30H    ;FUNCTION CODE
 1944:	  0274	F0		   MOVX  @DPTR,A

ASEM-51 V1.3                                        Copyright (c) 2002 by W.W. Heinz                                         PAGE 36



 Line  I  Addr  Code            Source

 1945:	  0275	A3		   INC   DPTR
 1946:	  0276	74 31		   MOV   A,#31H
 1947:	  0278	F0		   MOVX  @DPTR,A
 1948:	  0279	A3		   INC   DPTR
 1949:				;---------------------------------------
 1950:
 1951:
 1952:	  027A	C2 02		   CLR   BIT_READ_MORE_THAN_8
 1953:
 1954:	  027C	E5 08		   MOV   A,BYTE_CNT
 1955:	  027E	C3		   CLR   C
 1956:	  027F	94 09		   SUBB  A,#09
 1957:	  0281	50 09		   JNC   DOWN_FN_01
 1958:	  0283	74 01		   MOV   A,#01
 1959:	  0285	F5 1A		   MOV   RSLT_0,A
 1960:	  0287	12 08 07	   LCALL HEX_TO_ASCII
 1961:	  028A	80 1E		   SJMP  BYTE_CNT_LOADED_FN_CODE_01
 1962:				;--------------------------------------------------------------------------------
 1963:				;BELOW ROUTINE WILL LOAD 01 IF BIT TO READ IS LESS THAN 8 OR ELSE IT WILL LOAD 02
 1964:				;--------------------------------------------------------------------------------
 1965:	  028C			   DOWN_FN_01:
 1966:
 1967:	  028C	D2 02		   SETB  BIT_READ_MORE_THAN_8
 1968:	  028E	E5 08		   MOV   A,BYTE_CNT
 1969:	  0290	75 F0 08	   MOV   B,#08
 1970:	  0293	84		   DIV   AB
 1971:	  0294	F5 08		   MOV   BYTE_CNT,A
 1972:	  0296	E5 F0		   MOV   A,B
 1973:	  0298	B4 00 04	   CJNE  A,#0,INCREMENT_BYTE_CNT
 1974:	  029B	E5 08		   MOV   A,BYTE_CNT
 1975:	  029D	80 03		   SJMP  NO_INCREMENT_BYTE_CNT
 1976:
 1977:	  029F			   INCREMENT_BYTE_CNT:
 1978:
 1979:	  029F	E5 08		   MOV   A,BYTE_CNT
 1980:	  02A1	04		   INC   A
 1981:
 1982:	  02A2			   NO_INCREMENT_BYTE_CNT:
 1983:
 1984:	  02A2	F5 1A		   MOV   RSLT_0,A
 1985:	  02A4	12 08 07	   LCALL HEX_TO_ASCII   ;BYTE_CNT LOADED IN TRANSMIT BUFFER
 1986:	  02A7	E5 F0		   MOV   A,B
 1987:	  02A9	FF		   MOV   R7,A
 1988:				;------------------------------------------------------------------
 1989:
 1990:	  02AA			   BYTE_CNT_LOADED_FN_CODE_01:
 1991:
 1992:
 1993:
 1994:	  02AA	E5 08		   MOV   A,BYTE_CNT
 1995:	  02AC	B4 01 00	   CJNE  A,#01,CHECK_FOR_MORE_THAN_1_BIT
 1996:
 1997:	  02AF			   CHECK_FOR_MORE_THAN_1_BIT:
 1998:
 1999:	  02AF	50 31		   JNC   READ_MORE_THAN_1_BIT
 2000:

ASEM-51 V1.3                                        Copyright (c) 2002 by W.W. Heinz                                         PAGE 37



 Line  I  Addr  Code            Source

 2001:	  02B1	74 30		   MOV   A,#30H
 2002:	  02B3	F0		   MOVX  @DPTR,A
 2003:	  02B4	A3		   INC   DPTR
 2004:
 2005:				;---------------------------
 2006:	  02B5	C0 83		   PUSH   DPH
 2007:	  02B7	C0 82		   PUSH   DPL
 2008:	  02B9	90 5F 00	   MOV    DPTR,#BIT_START_ADDRESS
 2009:	  02BC	E5 82		   MOV    A,DPL
 2010:	  02BE	25 11		   ADD    A,TEMP2
 2011:	  02C0	F5 82		   MOV    DPL,A
 2012:	  02C2	E5 83		   MOV    A,DPH
 2013:	  02C4	34 00		   ADDC   A,#0
 2014:	  02C6	F5 83		   MOV    DPH,A
 2015:	  02C8	E0		   MOVX   A,@DPTR
 2016:	  02C9	C3		   CLR    C
 2017:
 2018:	  02CA			   CHECK_NEXT_BIT:
 2019:
 2020:	  02CA	BD 00 03	   CJNE  R5,#00H,REPEAT
 2021:	  02CD	13		   RRC   A
 2022:	  02CE	80 04		   SJMP  LOCATE_BIT
 2023:
 2024:
 2025:	  02D0			   REPEAT:
 2026:
 2027:	  02D0	1D		   DEC   R5
 2028:	  02D1	13		   RRC   A
 2029:	  02D2	80 F6		   SJMP  CHECK_NEXT_BIT
 2030:
 2031:	  02D4			   LOCATE_BIT:
 2032:
 2033:				  ; RRC   A
 2034:	  02D4	50 06		   JNC   BIT_NOT_ON
 2035:	  02D6	74 31		   MOV   A,#31H
 2036:	  02D8	F0		   MOVX  @DPTR,A
 2037:	  02D9	02 03 79	   LJMP  REPLY_BIT_LOADED                    ;TRANSMIT_START_FN_CODE_05
 2038:
 2039:	  02DC			   BIT_NOT_ON:
 2040:
 2041:	  02DC	74 30		   MOV   A,#30H
 2042:	  02DE	F0		   MOVX  @DPTR,A
 2043:	  02DF	02 03 79	   LJMP  REPLY_BIT_LOADED
 2044:				;--------------------------------------------
 2045:	  02E2			   READ_MORE_THAN_1_BIT:
 2046:
 2047:	  02E2	20 02 1E	   JB    BIT_READ_MORE_THAN_8,MORE_THAN_EIGHT_TO_READ
 2048:	  02E5	C0 83		   PUSH   DPH
 2049:	  02E7	C0 82		   PUSH   DPL
 2050:	  02E9	90 5F 00	   MOV    DPTR,#BIT_START_ADDRESS
 2051:	  02EC	E5 82		   MOV    A,DPL
 2052:	  02EE	25 11		   ADD    A,TEMP2
 2053:	  02F0	F5 82		   MOV    DPL,A
 2054:	  02F2	E5 83		   MOV    A,DPH
 2055:	  02F4	34 00		   ADDC   A,#0
 2056:	  02F6	F5 83		   MOV    DPH,A

ASEM-51 V1.3                                        Copyright (c) 2002 by W.W. Heinz                                         PAGE 38



 Line  I  Addr  Code            Source

 2057:	  02F8	E0		   MOVX   A,@DPTR
 2058:	  02F9	F5 10		   MOV    TEMP1,A
 2059:	  02FB	E5 08		   MOV    A,BYTE_CNT
 2060:	  02FD	D0 82		   POP    DPL
 2061:	  02FF	D0 83		   POP    DPH
 2062:	  0301	80 39		   SJMP  READ_LESS_THAN_EIGHT
 2063:
 2064:
 2065:	  0303			   MORE_THAN_EIGHT_TO_READ:
 2066:				;---------------------------------------------
 2067:	  0303	C0 83		   PUSH   DPH
 2068:	  0305	C0 82		   PUSH   DPL
 2069:	  0307	90 5F 00	   MOV    DPTR,#BIT_START_ADDRESS
 2070:	  030A	E5 82		   MOV    A,DPL
 2071:	  030C	25 11		   ADD    A,TEMP2
 2072:	  030E	F5 82		   MOV    DPL,A
 2073:	  0310	E5 83		   MOV    A,DPH
 2074:	  0312	34 00		   ADDC   A,#0
 2075:	  0314	F5 83		   MOV    DPH,A
 2076:	  0316	E0		   MOVX   A,@DPTR
 2077:	  0317	FD		   MOV    R5,A
 2078:	  0318	A3		   INC    DPTR
 2079:	  0319	E0		   MOVX   A,@DPTR
 2080:	  031A	FE		   MOV    R6,A
 2081:	  031B	E5 11		   MOV    A,TEMP2
 2082:	  031D	C3		   CLR    C
 2083:	  031E	24 01		   ADD    A,#01
 2084:	  0320	F5 11		   MOV    TEMP2,A
 2085:	  0322	E5 10		   MOV    A,TEMP1
 2086:	  0324	34 00		   ADDC   A,#0
 2087:	  0326	F5 10		   MOV    TEMP1,A
 2088:	  0328	ED		   MOV    A,R5         ;RETREIVE DATA
 2089:	  0329	D0 82		   POP    DPL
 2090:	  032B	D0 83		   POP    DPH
 2091:	  032D	12 08 07	   LCALL  HEX_TO_ASCII
 2092:	  0330	E5 08		   MOV    A,BYTE_CNT       ;RETREIVE BYTE COUNT
 2093:	  0332	14		   DEC    A
 2094:	  0333	F5 08		   MOV    BYTE_CNT,A
 2095:	  0335	B4 01 CB	   CJNE   A,#01,MORE_THAN_EIGHT_TO_READ
 2096:				;---------------------------------------
 2097:
 2098:	  0338	EE		   MOV   A,R6
 2099:	  0339	F5 10		   MOV   TEMP1,A
 2100:
 2101:
 2102:	  033B	EF		   MOV   A,R7      ;RETREIVE THE REMAINDER OF NO. OF BITS BY 8
 2103:
 2104:	  033C			   READ_LESS_THAN_EIGHT:
 2105:
 2106:
 2107:	  033C	B4 02 06	   CJNE   A,#02,CHECK_2
 2108:	  033F	E5 10		   MOV    A,TEMP1
 2109:	  0341	54 03		   ANL    A,#00000011B
 2110:	  0343	61 76		   AJMP   TRANSMIT_START_FN_CODE_01
 2111:
 2112:	  0345			   CHECK_2:

ASEM-51 V1.3                                        Copyright (c) 2002 by W.W. Heinz                                         PAGE 39



 Line  I  Addr  Code            Source

 2113:
 2114:	  0345	B4 03 06	   CJNE   A,#03,CHECK_3
 2115:	  0348	E5 10		   MOV    A,TEMP1
 2116:	  034A	54 07		   ANL    A,#00000111B
 2117:	  034C	61 76		   AJMP   TRANSMIT_START_FN_CODE_01
 2118:
 2119:	  034E			   CHECK_3:
 2120:
 2121:	  034E	B4 04 06	   CJNE   A,#04,CHECK_4
 2122:	  0351	E5 10		   MOV    A,TEMP1
 2123:	  0353	54 0F		   ANL    A,#00001111B
 2124:	  0355	61 76		   AJMP   TRANSMIT_START_FN_CODE_01
 2125:
 2126:	  0357			   CHECK_4:
 2127:
 2128:	  0357	B4 05 06	   CJNE   A,#05,CHECK_5
 2129:	  035A	E5 10		   MOV    A,TEMP1
 2130:	  035C	54 1F		   ANL    A,#00011111B
 2131:	  035E	61 76		   AJMP   TRANSMIT_START_FN_CODE_01
 2132:
 2133:	  0360			   CHECK_5:
 2134:
 2135:	  0360	B4 06 06	   CJNE   A,#06,CHECK_6
 2136:	  0363	E5 10		   MOV    A,TEMP1
 2137:	  0365	54 3F		   ANL    A,#00111111B
 2138:	  0367	61 76		   AJMP   TRANSMIT_START_FN_CODE_01
 2139:
 2140:	  0369			   CHECK_6:
 2141:
 2142:	  0369	B4 07 06	   CJNE   A,#07,CHECK_7
 2143:	  036C	E5 10		   MOV    A,TEMP1
 2144:	  036E	54 7F		   ANL    A,#01111111B
 2145:	  0370	61 76		   AJMP   TRANSMIT_START_FN_CODE_01
 2146:
 2147:	  0372			   CHECK_7:
 2148:
 2149:	  0372	E5 10		   MOV    A,TEMP1
 2150:	  0374	54 FF		   ANL    A,#11111111B
 2151:
 2152:
 2153:
 2154:	  0376			   TRANSMIT_START_FN_CODE_01:
 2155:
 2156:	  0376	12 08 07	   LCALL  HEX_TO_ASCII
 2157:
 2158:
 2159:
 2160:	  0379			   REPLY_BIT_LOADED:
 2161:
 2162:
 2163:
 2164:
 2165:	  0379	90 05 00	   MOV	DPTR,#TX_BUF                              ;R0,#TX_BUF
 2166:	  037C	A3			INC   DPTR
 2167:	  037D	E5 1A		   MOV   A,RSLT_0
 2168:	  037F	75 F0 02	   MOV   B,#02

ASEM-51 V1.3                                        Copyright (c) 2002 by W.W. Heinz                                         PAGE 40



 Line  I  Addr  Code            Source

 2169:	  0382	A4		   MUL   AB
 2170:	  0383	24 06			ADD   A,#06
 2171:	  0385	FF		   MOV   R7,A
 2172:
 2173:	  0386			   DO_NOT_INC_BYTE_COUNTER_1:
 2174:
 2175:				;----------------------------------------------------
 2176:	  0386	12 07 C1	   LCALL	CAL_LRC		;MODBUS ASCII CHECK IT SHOULD BE 5
 2177:				;----------------------------------------------------
 2178:	  0389	E5 1A		   MOV   A,RSLT_0
 2179:	  038B	75 F0 02	   MOV   B,#02
 2180:	  038E	A4		   MUL   AB
 2181:	  038F	24 07			ADD   A,#07
 2182:	  0391	FF		   MOV   R7,A
 2183:
 2184:	  0392	12 07 8E	   LCALL ADD_LRC_ASC
 2185:	  0395	02 06 D0	   LJMP  TRANSMIT_DATA_START
 2186:				;*******************************************************************************
 2187:	  0398			   FN_CODE_02_QUERY:
 2188:
 2189:
 2190:	  0398	75 1A 00	   MOV    RSLT_0,#0
 2191:	  039B	A3		   INC    DPTR
 2192:	  039C	12 07 EB	   LCALL  ASCII_TO_HEX
 2193:	  039F	75 F0 20	   MOV    B,#32
 2194:	  03A2	A4		   MUL    AB
 2195:	  03A3	F5 10		   MOV    TEMP1,A
 2196:				;-----------------------------------------
 2197:	  03A5	12 07 EB	   LCALL  ASCII_TO_HEX
 2198:	  03A8	75 F0 08	   MOV    B,#8
 2199:	  03AB	84		   DIV    AB
 2200:	  03AC	C3		   CLR    C
 2201:	  03AD	25 10		   ADD    A,TEMP1
 2202:	  03AF	F5 11		   MOV    TEMP2,A
 2203:	  03B1	E5 F0		   MOV    A,B       ;RETREIVE REMAINDER
 2204:	  03B3	C3		   CLR    C
 2205:	  03B4	FD		   MOV    R5,A
 2206:	  03B5	12 07 EB	   LCALL  ASCII_TO_HEX    ;NO OF BITS TO READ WILL NOT EXCEED 256 HENCE THESE LOCN ARE DISCARDED
 2207:	  03B8	12 07 EB	   LCALL  ASCII_TO_HEX
 2208:	  03BB	F5 08		   MOV    BYTE_CNT,A    ;BYTE_COUNT
 2209:
 2210:
 2211:	  03BD			   LOAD_TRANSMIT_BUFFER_FN_CODE_02:
 2212:
 2213:	  03BD	12 07 1E	   LCALL  HEADER_SLAVE_ID
 2214:				;--------------------------------------
 2215:	  03C0	A3		   INC   DPTR
 2216:	  03C1	74 30			MOV   A,#30H    ;FUNCTION CODE
 2217:	  03C3	F0		   MOVX  @DPTR,A
 2218:	  03C4	A3		   INC   DPTR
 2219:	  03C5	74 32		   MOV   A,#32H
 2220:	  03C7	F0		   MOVX  @DPTR,A
 2221:	  03C8	A3		   INC   DPTR
 2222:				;---------------------------------------
 2223:
 2224:

ASEM-51 V1.3                                        Copyright (c) 2002 by W.W. Heinz                                         PAGE 41



 Line  I  Addr  Code            Source

 2225:	  03C9	C2 02		   CLR   BIT_READ_MORE_THAN_8
 2226:
 2227:	  03CB	E5 08		   MOV   A,BYTE_CNT
 2228:	  03CD	C3		   CLR   C
 2229:	  03CE	94 09		   SUBB  A,#09
 2230:	  03D0	50 09		   JNC   DOWN_FN_02
 2231:	  03D2	74 01		   MOV   A,#01
 2232:	  03D4	F5 1A		   MOV   RSLT_0,A
 2233:	  03D6	12 08 07	   LCALL HEX_TO_ASCII
 2234:	  03D9	80 1E		   SJMP  BYTE_CNT_LOADED_FN_CODE_02
 2235:				;--------------------------------------------------------------------------------
 2236:				;BELOW ROUTINE WILL LOAD 01 IF BIT TO READ IS LESS THAN 8 OR ELSE IT WILL LOAD 02
 2237:				;--------------------------------------------------------------------------------
 2238:	  03DB			   DOWN_FN_02:
 2239:
 2240:	  03DB	D2 02		   SETB  BIT_READ_MORE_THAN_8
 2241:	  03DD	E5 08		   MOV   A,BYTE_CNT
 2242:	  03DF	75 F0 08	   MOV   B,#08
 2243:	  03E2	84		   DIV   AB
 2244:	  03E3	F5 08		   MOV   BYTE_CNT,A
 2245:	  03E5	E5 F0		   MOV   A,B
 2246:	  03E7	B4 00 04	   CJNE  A,#0,INCREMENT_BYTE_CNT_FN_CODE_02
 2247:	  03EA	E5 08		   MOV   A,BYTE_CNT
 2248:	  03EC	80 03		   SJMP  NO_INCREMENT_BYTE_CNT_FN_CODE_02
 2249:
 2250:	  03EE			   INCREMENT_BYTE_CNT_FN_CODE_02:
 2251:
 2252:	  03EE	E5 08		   MOV   A,BYTE_CNT
 2253:	  03F0	04		   INC   A
 2254:
 2255:	  03F1			   NO_INCREMENT_BYTE_CNT_FN_CODE_02:
 2256:
 2257:	  03F1	F5 1A		   MOV   RSLT_0,A
 2258:	  03F3	12 08 07	   LCALL HEX_TO_ASCII   ;BYTE_CNT LOADED IN TRANSMIT BUFFER
 2259:	  03F6	E5 F0		   MOV   A,B
 2260:	  03F8	FF		   MOV   R7,A
 2261:				;------------------------------------------------------------------
 2262:
 2263:	  03F9			   BYTE_CNT_LOADED_FN_CODE_02:
 2264:
 2265:
 2266:
 2267:	  03F9	E5 08		   MOV   A,BYTE_CNT
 2268:	  03FB	B4 01 00	   CJNE  A,#01,CHECK_FOR_MORE_THAN_1_BIT_FN_CODE_02
 2269:
 2270:	  03FE			   CHECK_FOR_MORE_THAN_1_BIT_FN_CODE_02:
 2271:
 2272:	  03FE	50 31		   JNC   READ_MORE_THAN_1_BIT_FN_CODE_02
 2273:
 2274:	  0400	74 30		   MOV   A,#30H
 2275:	  0402	F0		   MOVX  @DPTR,A
 2276:	  0403	A3		   INC   DPTR
 2277:
 2278:				;---------------------------
 2279:	  0404	C0 83		   PUSH   DPH
 2280:	  0406	C0 82		   PUSH   DPL

ASEM-51 V1.3                                        Copyright (c) 2002 by W.W. Heinz                                         PAGE 42



 Line  I  Addr  Code            Source

 2281:	  0408	90 0F 00	   MOV    DPTR,#BIT_START_ADDRESS_INPUT
 2282:	  040B	E5 82		   MOV    A,DPL
 2283:	  040D	25 11		   ADD    A,TEMP2
 2284:	  040F	F5 82		   MOV    DPL,A
 2285:	  0411	E5 83		   MOV    A,DPH
 2286:	  0413	34 00		   ADDC   A,#0
 2287:	  0415	F5 83		   MOV    DPH,A
 2288:	  0417	E0		   MOVX   A,@DPTR
 2289:	  0418	C3		   CLR    C
 2290:
 2291:	  0419			   CHECK_NEXT_BIT_FN_CODE_02:
 2292:
 2293:	  0419	BD 00 03	   CJNE  R5,#00H,REPEAT_FN_CODE_02
 2294:	  041C	13		   RRC   A
 2295:	  041D	80 04		   SJMP  LOCATE_BIT_FN_CODE_02
 2296:
 2297:
 2298:	  041F			   REPEAT_FN_CODE_02:
 2299:
 2300:	  041F	1D		   DEC   R5
 2301:	  0420	13		   RRC   A
 2302:	  0421	80 F6		   SJMP  CHECK_NEXT_BIT_FN_CODE_02
 2303:
 2304:	  0423			   LOCATE_BIT_FN_CODE_02:
 2305:
 2306:				  ; RRC   A
 2307:	  0423	50 06		   JNC   BIT_NOT_ON_FN_CODE_02
 2308:	  0425	74 31		   MOV   A,#31H
 2309:	  0427	F0		   MOVX  @DPTR,A
 2310:	  0428	02 04 C8	   LJMP  REPLY_BIT_LOADED_FN_CODE_02                    ;TRANSMIT_START_FN_CODE_05
 2311:
 2312:	  042B			   BIT_NOT_ON_FN_CODE_02:
 2313:
 2314:	  042B	74 30		   MOV   A,#30H
 2315:	  042D	F0		   MOVX  @DPTR,A
 2316:	  042E	02 04 C8	   LJMP  REPLY_BIT_LOADED_FN_CODE_02
 2317:				;--------------------------------------------
 2318:	  0431			   READ_MORE_THAN_1_BIT_FN_CODE_02:
 2319:
 2320:	  0431	20 02 1E	   JB     BIT_READ_MORE_THAN_8,MORE_THAN_EIGHT_TO_READ_FN_CODE_02
 2321:	  0434	C0 83		   PUSH   DPH
 2322:	  0436	C0 82		   PUSH   DPL
 2323:	  0438	90 0F 00	   MOV    DPTR,#BIT_START_ADDRESS_INPUT
 2324:	  043B	E5 82		   MOV    A,DPL
 2325:	  043D	25 11		   ADD    A,TEMP2
 2326:	  043F	F5 82		   MOV    DPL,A
 2327:	  0441	E5 83		   MOV    A,DPH
 2328:	  0443	34 00		   ADDC   A,#0
 2329:	  0445	F5 83		   MOV    DPH,A
 2330:	  0447	E0		   MOVX   A,@DPTR
 2331:	  0448	F5 10		   MOV    TEMP1,A
 2332:	  044A	E5 08		   MOV    A,BYTE_CNT
 2333:	  044C	D0 82		   POP    DPL
 2334:	  044E	D0 83		   POP    DPH
 2335:	  0450	80 39		   SJMP   READ_LESS_THAN_EIGHT_FN_CODE_02
 2336:

ASEM-51 V1.3                                        Copyright (c) 2002 by W.W. Heinz                                         PAGE 43



 Line  I  Addr  Code            Source

 2337:
 2338:	  0452			   MORE_THAN_EIGHT_TO_READ_FN_CODE_02:
 2339:				;---------------------------------------------
 2340:	  0452	C0 83		   PUSH   DPH
 2341:	  0454	C0 82		   PUSH   DPL
 2342:	  0456	90 0F 00	   MOV    DPTR,#BIT_START_ADDRESS_INPUT
 2343:	  0459	E5 82		   MOV    A,DPL
 2344:	  045B	25 11		   ADD    A,TEMP2
 2345:	  045D	F5 82		   MOV    DPL,A
 2346:	  045F	E5 83		   MOV    A,DPH
 2347:	  0461	34 00		   ADDC   A,#0
 2348:	  0463	F5 83		   MOV    DPH,A
 2349:	  0465	E0		   MOVX   A,@DPTR
 2350:	  0466	FD		   MOV    R5,A
 2351:	  0467	A3		   INC    DPTR
 2352:	  0468	E0		   MOVX   A,@DPTR
 2353:	  0469	FE		   MOV    R6,A
 2354:	  046A	E5 11		   MOV    A,TEMP2
 2355:	  046C	C3		   CLR    C
 2356:	  046D	24 01		   ADD    A,#01
 2357:	  046F	F5 11		   MOV    TEMP2,A
 2358:	  0471	E5 10		   MOV    A,TEMP1
 2359:	  0473	34 00		   ADDC   A,#0
 2360:	  0475	F5 10		   MOV    TEMP1,A
 2361:	  0477	ED		   MOV    A,R5         ;RETREIVE DATA
 2362:	  0478	D0 82		   POP    DPL
 2363:	  047A	D0 83		   POP    DPH
 2364:	  047C	12 08 07	   LCALL  HEX_TO_ASCII
 2365:	  047F	E5 08		   MOV    A,BYTE_CNT       ;RETREIVE BYTE COUNT
 2366:	  0481	14		   DEC    A
 2367:	  0482	F5 08		   MOV    BYTE_CNT,A
 2368:	  0484	B4 01 CB	   CJNE   A,#01,MORE_THAN_EIGHT_TO_READ_FN_CODE_02
 2369:				;---------------------------------------
 2370:
 2371:	  0487	EE		   MOV   A,R6
 2372:	  0488	F5 10		   MOV   TEMP1,A
 2373:
 2374:
 2375:	  048A	EF		   MOV   A,R7      ;RETREIVE THE REMAINDER OF NO. OF BITS BY 8
 2376:
 2377:	  048B			   READ_LESS_THAN_EIGHT_FN_CODE_02:
 2378:
 2379:
 2380:	  048B	B4 02 06	   CJNE   A,#02,CHECK_2_FN_CODE_02
 2381:	  048E	E5 10		   MOV    A,TEMP1
 2382:	  0490	54 03		   ANL    A,#00000011B
 2383:	  0492	81 C5		   AJMP   TRANSMIT_START_FN_CODE_02
 2384:
 2385:	  0494			   CHECK_2_FN_CODE_02:
 2386:
 2387:	  0494	B4 03 06	   CJNE   A,#03,CHECK_3_FN_CODE_02
 2388:	  0497	E5 10		   MOV    A,TEMP1
 2389:	  0499	54 07		   ANL    A,#00000111B
 2390:	  049B	81 C5		   AJMP   TRANSMIT_START_FN_CODE_02
 2391:
 2392:	  049D			   CHECK_3_FN_CODE_02:

ASEM-51 V1.3                                        Copyright (c) 2002 by W.W. Heinz                                         PAGE 44



 Line  I  Addr  Code            Source

 2393:
 2394:	  049D	B4 04 06	   CJNE   A,#04,CHECK_4_FN_CODE_02
 2395:	  04A0	E5 10		   MOV    A,TEMP1
 2396:	  04A2	54 0F		   ANL    A,#00001111B
 2397:	  04A4	81 C5		   AJMP   TRANSMIT_START_FN_CODE_02
 2398:
 2399:	  04A6			   CHECK_4_FN_CODE_02:
 2400:
 2401:	  04A6	B4 05 06	   CJNE   A,#05,CHECK_5_FN_CODE_02
 2402:	  04A9	E5 10		   MOV    A,TEMP1
 2403:	  04AB	54 1F		   ANL    A,#00011111B
 2404:	  04AD	81 C5		   AJMP   TRANSMIT_START_FN_CODE_02
 2405:
 2406:	  04AF			   CHECK_5_FN_CODE_02:
 2407:
 2408:	  04AF	B4 06 06	   CJNE   A,#06,CHECK_6_FN_CODE_02
 2409:	  04B2	E5 10		   MOV    A,TEMP1
 2410:	  04B4	54 3F		   ANL    A,#00111111B
 2411:	  04B6	81 C5		   AJMP   TRANSMIT_START_FN_CODE_02
 2412:
 2413:	  04B8			   CHECK_6_FN_CODE_02:
 2414:
 2415:	  04B8	B4 07 06	   CJNE   A,#07,CHECK_7_FN_CODE_02
 2416:	  04BB	E5 10		   MOV    A,TEMP1
 2417:	  04BD	54 7F		   ANL    A,#01111111B
 2418:	  04BF	81 C5		   AJMP   TRANSMIT_START_FN_CODE_02
 2419:
 2420:	  04C1			   CHECK_7_FN_CODE_02:
 2421:
 2422:	  04C1	E5 10		   MOV    A,TEMP1
 2423:	  04C3	54 FF		   ANL    A,#11111111B
 2424:
 2425:
 2426:
 2427:	  04C5			   TRANSMIT_START_FN_CODE_02:
 2428:
 2429:	  04C5	12 08 07	   LCALL  HEX_TO_ASCII
 2430:
 2431:
 2432:
 2433:	  04C8			   REPLY_BIT_LOADED_FN_CODE_02:
 2434:
 2435:
 2436:
 2437:
 2438:	  04C8	90 05 00	   MOV	DPTR,#TX_BUF                              ;R0,#TX_BUF
 2439:	  04CB	A3			INC   DPTR
 2440:	  04CC	E5 1A		   MOV   A,RSLT_0
 2441:	  04CE	75 F0 02	   MOV   B,#02
 2442:	  04D1	A4		   MUL   AB
 2443:	  04D2	24 06			ADD   A,#06
 2444:	  04D4	FF		   MOV   R7,A
 2445:
 2446:				  ; DO_NOT_INC_BYTE_COUNTER_1:
 2447:
 2448:				;----------------------------------------------------

ASEM-51 V1.3                                        Copyright (c) 2002 by W.W. Heinz                                         PAGE 45



 Line  I  Addr  Code            Source

 2449:	  04D5	12 07 C1	   LCALL	CAL_LRC		;MODBUS ASCII CHECK IT SHOULD BE 5
 2450:				;----------------------------------------------------
 2451:	  04D8	E5 1A		   MOV   A,RSLT_0
 2452:	  04DA	75 F0 02	   MOV   B,#02
 2453:	  04DD	A4		   MUL   AB
 2454:	  04DE	24 07			ADD   A,#07
 2455:	  04E0	FF		   MOV   R7,A
 2456:
 2457:	  04E1	12 07 8E	   LCALL ADD_LRC_ASC
 2458:	  04E4	02 06 D0	   LJMP  TRANSMIT_DATA_START
 2459:
 2460:
 2461:				 ;********************************************************************************
 2462:	  04E7			   FN_CODE_05_QUERY:
 2463:
 2464:	  04E7	A3		   INC    DPTR
 2465:	  04E8	12 07 EB	   LCALL  ASCII_TO_HEX
 2466:				  ; CLR    C
 2467:				  ; SUBB   A,#0           ;2
 2468:	  04EB	F5 10		   MOV    TEMP1,A
 2469:	  04ED	75 F0 20	   MOV    B,#32
 2470:	  04F0	A4		   MUL    AB
 2471:	  04F1	F5 10		   MOV    TEMP1,A
 2472:	  04F3	12 07 EB	   LCALL  ASCII_TO_HEX
 2473:				  ; CLR    C
 2474:				  ; SUBB   A,#00          ;    A
 2475:				  ; MOV    B,A
 2476:				   ;MOV    A,TEMP1
 2477:				   ;SUBB   A,#0
 2478:				   ;MOV    TEMP1,A
 2479:				  ; MOV    A,B
 2480:	  04F6	75 F0 08	   MOV    B,#8
 2481:	  04F9	84		   DIV    AB
 2482:	  04FA	C3		   CLR    C
 2483:	  04FB	25 10		   ADD    A,TEMP1
 2484:	  04FD	F5 11		   MOV    TEMP2,A
 2485:	  04FF	E5 F0		   MOV    A,B       ;RETREIVE REMAINDER
 2486:	  0501	C3		   CLR    C
 2487:	  0502	FD		   MOV    R5,A
 2488:	  0503	12 07 EB	   LCALL  ASCII_TO_HEX
 2489:	  0506	F5 F0		   MOV    B,A               ;LOAD DATA 00 OR FFH IF THE COIL IS ON IT IS FF ELSE IT IS 00.
 2490:	  0508	90 5F 00	   MOV    DPTR,#BIT_START_ADDRESS
 2491:	  050B	E5 82		   MOV    A,DPL
 2492:	  050D	25 11		   ADD    A,TEMP2
 2493:	  050F	F5 82		   MOV    DPL,A
 2494:	  0511	E5 83		   MOV    A,DPH
 2495:	  0513	34 00		   ADDC   A,#0
 2496:	  0515	F5 83		   MOV    DPH,A
 2497:	  0517	E0		   MOVX   A,@DPTR
 2498:	  0518	F5 10		   MOV    TEMP1,A
 2499:	  051A	E5 F0		   MOV    A,B
 2500:
 2501:	  051C	B4 FF 37	   CJNE   A,#0FFH,COIL_NOT_SET
 2502:
 2503:
 2504:	  051F	E5 10		   MOV    A,TEMP1

ASEM-51 V1.3                                        Copyright (c) 2002 by W.W. Heinz                                         PAGE 46



 Line  I  Addr  Code            Source

 2505:	  0521	BD 00 04	   CJNE   R5,#00,SET_BIT_01
 2506:	  0524	D2 E0		   SETB   ACC.0
 2507:	  0526	80 63		   SJMP   RELOAD_BACK_DATA
 2508:
 2509:	  0528			   SET_BIT_01:
 2510:
 2511:	  0528	BD 01 04	   CJNE   R5,#01,SET_BIT_02
 2512:	  052B	D2 E1		   SETB   ACC.1
 2513:	  052D	80 5C		   SJMP   RELOAD_BACK_DATA
 2514:
 2515:	  052F			   SET_BIT_02:
 2516:
 2517:	  052F	BD 02 04	   CJNE   R5,#02,SET_BIT_03
 2518:	  0532	D2 E2		   SETB   ACC.2
 2519:	  0534	80 55		   SJMP   RELOAD_BACK_DATA
 2520:
 2521:	  0536			   SET_BIT_03:
 2522:
 2523:	  0536	BD 03 04	   CJNE   R5,#03,SET_BIT_04
 2524:	  0539	D2 E3		   SETB   ACC.3
 2525:	  053B	80 4E		   SJMP   RELOAD_BACK_DATA
 2526:
 2527:	  053D			   SET_BIT_04:
 2528:
 2529:	  053D	BD 04 04	   CJNE   R5,#04,SET_BIT_05
 2530:	  0540	D2 E4		   SETB   ACC.4
 2531:	  0542	80 47		   SJMP   RELOAD_BACK_DATA
 2532:
 2533:
 2534:	  0544			   SET_BIT_05:
 2535:
 2536:	  0544	BD 05 04	   CJNE   R5,#05,SET_BIT_06
 2537:	  0547	D2 E5		   SETB   ACC.5
 2538:	  0549	80 40		   SJMP   RELOAD_BACK_DATA
 2539:
 2540:	  054B			   SET_BIT_06:
 2541:
 2542:	  054B	BD 06 04	   CJNE   R5,#06,SET_BIT_07
 2543:	  054E	D2 E6		   SETB   ACC.6
 2544:	  0550	80 39		   SJMP   RELOAD_BACK_DATA
 2545:
 2546:
 2547:	  0552			   SET_BIT_07:
 2548:
 2549:	  0552	D2 E7		   SETB   ACC.7
 2550:	  0554	80 35		   SJMP   RELOAD_BACK_DATA
 2551:				;----------------------------------------------
 2552:
 2553:	  0556			   COIL_NOT_SET:
 2554:
 2555:	  0556	E5 10		   MOV    A,TEMP1
 2556:	  0558	BD 00 04	   CJNE   R5,#00,CLR_BIT_01
 2557:	  055B	C2 E0		   CLR    ACC.0
 2558:	  055D	80 2C		   SJMP   RELOAD_BACK_DATA
 2559:
 2560:	  055F			   CLR_BIT_01:

ASEM-51 V1.3                                        Copyright (c) 2002 by W.W. Heinz                                         PAGE 47



 Line  I  Addr  Code            Source

 2561:
 2562:	  055F	BD 01 04	   CJNE   R5,#01,CLR_BIT_02
 2563:	  0562	C2 E1		   CLR    ACC.1
 2564:	  0564	80 25		   SJMP   RELOAD_BACK_DATA
 2565:
 2566:	  0566			   CLR_BIT_02:
 2567:
 2568:	  0566	BD 02 04	   CJNE   R5,#02,CLR_BIT_03
 2569:	  0569	C2 E2		   CLR    ACC.2
 2570:	  056B	80 1E		   SJMP   RELOAD_BACK_DATA
 2571:
 2572:	  056D			   CLR_BIT_03:
 2573:
 2574:	  056D	BD 03 04	   CJNE   R5,#03,CLR_BIT_04
 2575:	  0570	C2 E3		   CLR    ACC.3
 2576:	  0572	80 17		   SJMP   RELOAD_BACK_DATA
 2577:
 2578:	  0574			   CLR_BIT_04:
 2579:
 2580:	  0574	BD 04 04	   CJNE   R5,#04,CLR_BIT_05
 2581:	  0577	C2 E4		   CLR    ACC.4
 2582:	  0579	80 10		   SJMP   RELOAD_BACK_DATA
 2583:
 2584:
 2585:	  057B			   CLR_BIT_05:
 2586:
 2587:	  057B	BD 05 04	   CJNE   R5,#05,CLR_BIT_06
 2588:	  057E	C2 E5		   CLR    ACC.5
 2589:	  0580	80 09		   SJMP   RELOAD_BACK_DATA
 2590:
 2591:	  0582			   CLR_BIT_06:
 2592:
 2593:	  0582	BD 06 04	   CJNE   R5,#06,CLR_BIT_07
 2594:	  0585	C2 E6		   CLR    ACC.6
 2595:	  0587	80 02		   SJMP   RELOAD_BACK_DATA
 2596:
 2597:
 2598:	  0589			   CLR_BIT_07:
 2599:
 2600:	  0589	C2 E7		   CLR    ACC.7
 2601:
 2602:				;---------------------------------------------------------
 2603:	  058B			   RELOAD_BACK_DATA:
 2604:
 2605:	  058B	F0		   MOVX   @DPTR,A
 2606:
 2607:	  058C			   REPLY_05_START:
 2608:
 2609:				   ;LCALL HEADER_SLAVE_ID
 2610:	  058C	75 08 00	   MOV   BYTE_CNT,#0
 2611:	  058F	7F 0F		   MOV   R7,#15
 2612:
 2613:	  0591			   REPEAT_05_REPLY:
 2614:
 2615:	  0591	90 04 00	   MOV   DPTR,#RX_BUF
 2616:	  0594	E5 08		   MOV   A,BYTE_CNT

ASEM-51 V1.3                                        Copyright (c) 2002 by W.W. Heinz                                         PAGE 48



 Line  I  Addr  Code            Source

 2617:	  0596	C3		   CLR   C
 2618:	  0597	25 82		   ADD   A,DPL
 2619:	  0599	F5 82		   MOV   DPL,A
 2620:	  059B	E0		   MOVX  A,@DPTR
 2621:	  059C	F5 F0		   MOV   B,A
 2622:	  059E	90 05 00	   MOV   DPTR,#TX_BUF
 2623:	  05A1	E5 08		   MOV   A,BYTE_CNT
 2624:	  05A3	C3		   CLR   C
 2625:	  05A4	25 82		   ADD   A,DPL
 2626:	  05A6	F5 82		   MOV   DPL,A
 2627:	  05A8	E5 F0		   MOV   A,B
 2628:	  05AA	F0		   MOVX  @DPTR,A
 2629:	  05AB	05 08		   INC   BYTE_CNT
 2630:	  05AD	B4 0A E1	   CJNE	A,#END_CHARACTER_2,REPEAT_05_REPLY
 2631:				  ; DJNZ  R7,REPEAT_05_REPLY
 2632:
 2633:	  05B0	02 06 D0	   LJMP  TRANSMIT_DATA_START
 2634:				;**********************************************************************
 2635:	  05B3			   FN_CODE_0F_QUERY:
 2636:
 2637:	  05B3	A3		   INC    DPTR
 2638:	  05B4	12 07 EB	   LCALL  ASCII_TO_HEX
 2639:	  05B7	F5 1B		   MOV    RSLT_1,A               ;RSLT_0
 2640:	  05B9	75 F0 20	   MOV    B,#32
 2641:	  05BC	A4		   MUL    AB
 2642:	  05BD	F5 10		   MOV    TEMP1,A
 2643:
 2644:	  05BF	12 07 EB	   LCALL  ASCII_TO_HEX
 2645:	  05C2	F5 1A		   MOV    RSLT_0,A
 2646:	  05C4	75 F0 08	   MOV    B,#8
 2647:	  05C7	84		   DIV    AB
 2648:	  05C8	C3		   CLR    C
 2649:	  05C9	25 10		   ADD    A,TEMP1
 2650:	  05CB	F5 11		   MOV    TEMP2,A
 2651:	  05CD	12 07 EB	   LCALL  ASCII_TO_HEX    ;NO OF REGISTERS TO READ WILL NOT EXCEED 16 HENCE THESE LOCN ARE DISCARDED
 2652:	  05D0	12 07 EB	   LCALL  ASCII_TO_HEX
 2653:	  05D3	12 07 EB	   LCALL  ASCII_TO_HEX  ;NO OF BYTES TO BE PRESET
 2654:	  05D6	C3		   CLR    C
 2655:	  05D7	33		   RLC    A
 2656:	  05D8	F5 08		   MOV    BYTE_CNT,A
 2657:	  05DA	FF		   MOV    R7,A
 2658:
 2659:
 2660:	  05DB	78 80		   MOV    R0,#SCRATCHPAD_0
 2661:
 2662:	  05DD			   NEXT_DATA:
 2663:
 2664:	  05DD	12 07 EB	   LCALL  ASCII_TO_HEX  ;HIGH ORDER BYTE OF DATA
 2665:	  05E0	F6		   MOV    @R0,A
 2666:	  05E1	08		   INC    R0
 2667:	  05E2	DF F9		   DJNZ   R7,NEXT_DATA
 2668:
 2669:
 2670:	  05E4			   SAVE_DATA:
 2671:
 2672:	  05E4	90 5F 00	   MOV    DPTR,#BIT_START_ADDRESS

ASEM-51 V1.3                                        Copyright (c) 2002 by W.W. Heinz                                         PAGE 49



 Line  I  Addr  Code            Source

 2673:	  05E7	E5 82		   MOV    A,DPL
 2674:	  05E9	25 11		   ADD    A,TEMP2
 2675:	  05EB	F5 82		   MOV    DPL,A
 2676:	  05ED	E5 83		   MOV    A,DPH
 2677:	  05EF	34 00		   ADDC   A,#0
 2678:	  05F1	F5 83		   MOV    DPH,A
 2679:	  05F3	AF 08		   MOV    R7,BYTE_CNT
 2680:	  05F5	78 80		   MOV    R0,#SCRATCHPAD_0
 2681:
 2682:	  05F7			   NEXT_BYTE_FN_CODE_0F:
 2683:
 2684:	  05F7	E6		   MOV    A,@R0
 2685:	  05F8	F0		   MOVX   @DPTR,A
 2686:	  05F9	A3		   INC    DPTR
 2687:	  05FA	08		   INC    R0
 2688:	  05FB	DF FA		   DJNZ   R7,NEXT_BYTE_FN_CODE_0F
 2689:
 2690:
 2691:				;------------------------------------------------
 2692:				;START TRANSMISSION OF REPLY
 2693:				;------------------------------------------------
 2694:
 2695:
 2696:	  05FD	7F 0D		   MOV   R7,#13
 2697:	  05FF	75 08 00	   MOV   BYTE_CNT,#0
 2698:
 2699:	  0602			   REPEAT_0F_REPLY:
 2700:
 2701:	  0602	90 04 00	   MOV   DPTR,#RX_BUF
 2702:	  0605	E5 08		   MOV   A,BYTE_CNT
 2703:	  0607	C3		   CLR   C
 2704:	  0608	25 82		   ADD   A,DPL
 2705:	  060A	F5 82		   MOV   DPL,A
 2706:	  060C	E0		   MOVX  A,@DPTR
 2707:	  060D	F5 F0		   MOV   B,A
 2708:	  060F	90 05 00	   MOV   DPTR,#TX_BUF
 2709:	  0612	E5 08		   MOV   A,BYTE_CNT
 2710:	  0614	C3		   CLR   C
 2711:	  0615	25 82		   ADD   A,DPL
 2712:	  0617	F5 82		   MOV   DPL,A
 2713:	  0619	E5 F0		   MOV   A,B
 2714:	  061B	F0		   MOVX  @DPTR,A
 2715:	  061C	05 08		   INC   BYTE_CNT
 2716:	  061E	DF E2		   DJNZ  R7,REPEAT_0F_REPLY
 2717:				;-------------------------------------------------------------
 2718:	  0620	7F 0C		  	MOV    R7,#12       ;MODBUS ASCII CHECK IT SHOULD BE 6
 2719:				;-------------------------------------------------------------
 2720:	  0622	90 05 00	  	MOV	 DPTR,#TX_BUF                              ;R0,#TX_BUF
 2721:	  0625	A3			INC    DPTR
 2722:	  0626	12 07 C1		LCALL	 CAL_LRC				      ;calculates lrc code for ascii data
 2723:
 2724:	  0629	7F 0D		  	MOV    R7,#13
 2725:	  062B	12 07 8E		LCALL  ADD_LRC_ASC
 2726:	  062E	02 06 D0	   LJMP   TRANSMIT_DATA_START
 2727:				;***********************************************************
 2728:	  0631			   FN_CODE_10_QUERY:

ASEM-51 V1.3                                        Copyright (c) 2002 by W.W. Heinz                                         PAGE 50



 Line  I  Addr  Code            Source

 2729:
 2730:	  0631	12 07 08	   LCALL  CAL_START_ADDRESS
 2731:	  0634	12 07 EB	   LCALL  ASCII_TO_HEX   ;NO. OF REGISTERS HIGH
 2732:	  0637	12 07 EB	   LCALL  ASCII_TO_HEX   ;NO. OF REGISTERS LOW
 2733:	  063A	FD		   MOV    R5,A
 2734:	  063B	12 07 EB	   LCALL  ASCII_TO_HEX  ;BYTE COUNT
 2735:
 2736:	  063E			   NEXT_DATA_REG:
 2737:
 2738:	  063E	12 07 EB	   LCALL  ASCII_TO_HEX
 2739:	  0641	F5 F0		   MOV    B,A        ;DATA
 2740:	  0643	C0 83		   PUSH   DPH
 2741:	  0645	C0 82		   PUSH   DPL
 2742:	  0647	90 10 00	   MOV    DPTR,#START_ADDRESS_DATA_REG
 2743:	  064A	E5 82		   MOV    A,DPL
 2744:	  064C	C3		   CLR    C
 2745:	  064D	25 11		   ADD    A,TEMP2
 2746:	  064F	F5 82		   MOV    DPL,A
 2747:	  0651	E5 83		   MOV    A,DPH
 2748:	  0653	35 10		   ADDC   A,TEMP1
 2749:	  0655	F5 83		   MOV    DPH,A
 2750:	  0657	E5 F0		   MOV    A,B
 2751:	  0659	F0		   MOVX   @DPTR,A
 2752:	  065A	D0 82		   POP    DPL
 2753:	  065C	D0 83		   POP    DPH
 2754:	  065E	12 07 EB	   LCALL  ASCII_TO_HEX
 2755:	  0661	F5 F0		   MOV    B,A
 2756:	  0663	C0 83		   PUSH   DPH
 2757:	  0665	C0 82		   PUSH   DPL
 2758:	  0667	90 10 00	   MOV    DPTR,#START_ADDRESS_DATA_REG
 2759:	  066A	E5 11		   MOV    A,TEMP2
 2760:	  066C	C3		   CLR    C
 2761:	  066D	24 01		   ADD    A,#01
 2762:	  066F	F5 11		   MOV    TEMP2,A
 2763:	  0671	E5 82		   MOV    A,DPL
 2764:	  0673	25 11		   ADD    A,TEMP2
 2765:	  0675	F5 82		   MOV    DPL,A
 2766:	  0677	E5 10		   MOV    A,TEMP1
 2767:	  0679	34 00		   ADDC   A,#0
 2768:	  067B	F5 10		   MOV    TEMP1,A
 2769:	  067D	E5 83		   MOV    A,DPH
 2770:	  067F	C3		   CLR    C
 2771:	  0680	25 10		   ADD    A,TEMP1
 2772:	  0682	F5 83		   MOV    DPH,A
 2773:	  0684	E5 F0		   MOV    A,B
 2774:	  0686	F0		   MOVX   @DPTR,A
 2775:	  0687	D0 82		   POP    DPL
 2776:	  0689	D0 83		   POP    DPH
 2777:
 2778:	  068B	E5 11		   MOV    A,TEMP2
 2779:	  068D	C3		   CLR    C
 2780:	  068E	24 01		   ADD    A,#01
 2781:	  0690	F5 11		   MOV    TEMP2,A
 2782:	  0692	E5 10		   MOV    A,TEMP1
 2783:	  0694	34 00		   ADDC   A,#0
 2784:

ASEM-51 V1.3                                        Copyright (c) 2002 by W.W. Heinz                                         PAGE 51



 Line  I  Addr  Code            Source

 2785:	  0696	DD A6		   DJNZ   R5,NEXT_DATA_REG
 2786:				;-----------------------------------------------
 2787:	  0698			   TRANSMIT_REPLY_FN_CODE_10H:
 2788:
 2789:				 ; 	LCALL HEADER_SLAVE_ID
 2790:				;------------------------------------------------
 2791:				 ;  INC   DPTR
 2792:	  0698	75 08 00	   MOV   BYTE_CNT,#0
 2793:
 2794:	  069B			   REPEAT_TRANSFER_FROM_RX_TX_FN_CODE_10H:
 2795:
 2796:	  069B	90 04 00	   MOV   DPTR,#RX_BUF
 2797:	  069E	E5 08		   MOV   A,BYTE_CNT
 2798:	  06A0	C3		   CLR   C
 2799:	  06A1	25 82		   ADD   A,DPL
 2800:	  06A3	F5 82		   MOV   DPL,A
 2801:	  06A5	E0		   MOVX  A,@DPTR
 2802:	  06A6	F5 F0		   MOV   B,A
 2803:	  06A8	90 05 00	   MOV   DPTR,#TX_BUF
 2804:	  06AB	E5 08		   MOV   A,BYTE_CNT
 2805:	  06AD	C3		   CLR   C
 2806:	  06AE	25 82		   ADD   A,DPL
 2807:	  06B0	F5 82		   MOV   DPL,A
 2808:	  06B2	E5 F0		   MOV   A,B
 2809:	  06B4	F0		   MOVX  @DPTR,A
 2810:	  06B5	E5 08		   MOV   A,BYTE_CNT
 2811:	  06B7	C3		   CLR   C
 2812:	  06B8	24 01		   ADD   A,#01
 2813:	  06BA	F5 08		   MOV   BYTE_CNT,A
 2814:	  06BC	B4 0D DC	   CJNE  A,#13,REPEAT_TRANSFER_FROM_RX_TX_FN_CODE_10H
 2815:				;------------------------------------
 2816:	  06BF	7F 0C		   MOV   R7,#12    ;MODBUS ASCII CHECK IT SHOULD BE 6
 2817:				;------------------------------------
 2818:	  06C1	90 05 00	   MOV	DPTR,#TX_BUF                              ;R0,#TX_BUF
 2819:	  06C4	A3			INC   DPTR
 2820:	  06C5	12 07 C1		LCALL	CAL_LRC				      ;calculates lrc code for ascii data
 2821:	  06C8	7F 0D			MOV   R7,#13
 2822:	  06CA	12 07 8E		LCALL ADD_LRC_ASC
 2823:	  06CD	02 06 D0	   LJMP  TRANSMIT_DATA_START
 2824:
 2825:
 2826:
 2827:
 2828:				;-----------------------------------------------------------
 2829:				;THIS IS THE COMMON PROGRAM FOR START OF REPLY OF EACH QUERY
 2830:				;-----------------------------------------------------------
 2831:
 2832:
 2833:	  06D0			   TRANSMIT_DATA_START:
 2834:
 2835:	  06D0	12 00 88		LCALL	INIT_XMIT

 2836:	  06D3	74 00		   MOV   A,#0
 2837:	  06D5	F5 08		   MOV   BYTE_CNT,A
 2838:	  06D7	12 07 67		LCALL TRANS
 2839:	  06DA	75 0F FF		MOV   COUNT_1S,#0FFH

ASEM-51 V1.3                                        Copyright (c) 2002 by W.W. Heinz                                         PAGE 52



 Line  I  Addr  Code            Source


 2840:	  06DD	C2 06		   CLR   DELAY_OVER
 2841:	  06DF	22		   RET
 2842:				;---------------------------------------------------------------------------
 2843:
 2844:	  06E0			   CHECK_SERIAL_COMMUNICATION:
 2845:
 2846:	  06E0	20 06 0B		JB	    DELAY_OVER,RESET_SERIAL_COMMUNICATION
 2847:	  06E3	20 00 04	   JB	    RCVE_OVER,START_TRANSMISSION_OF_REPLY
 2848:	  06E6	20 01 05	   JB     TRANS_OVER,RESET_SERIAL_COMMUNICATION
 2849:	  06E9	22		   RET
 2850:
 2851:	  06EA			   START_TRANSMISSION_OF_REPLY:
 2852:
 2853:	  06EA	12 01 43	   LCALL  TRANSMIT
 2854:	  06ED	22		   RET
 2855:
 2856:
 2857:	  06EE			   RESET_SERIAL_COMMUNICATION:
 2858:
 2859:	  06EE	12 06 F2	   LCALL   INITALISE_RECEIVE
 2860:	  06F1	22		   RET
 2861:
 2862:				;-----------------------------------------------------------------
 2863:
 2864:	  06F2			   INITALISE_RECEIVE:
 2865:
 2866:	  06F2	C2 AC		   CLR    IE.4                                             ;LCALL	DISABLE_SERIAL

 2867:	  06F4	C2 05			CLR	 LAST_BYTE
 2868:	  06F6	C2 01			CLR	 TRANS_OVER
 2869:	  06F8	12 00 48		LCALL  INIT_1

 2870:	  06FB	74 00			MOV    A,#0
 2871:	  06FD	F5 08			MOV    BYTE_CNT,A
 2872:	  06FF	12 00 7E		LCALL  INIT_RCVE              			      ;initialises serial reception from mas
				ter(rtu)
 2873:	  0702	C2 06			CLR    DELAY_OVER
 2874:	  0704	75 0F FF		MOV    COUNT_1S,#0FFH
 2875:
 2876:	  0707	22			RET
 2877:
 2878:
 2879:				;---------------------------------------------------------------------------
 2880:				;THIS PROGRAM CALCULATES THE DPTR START ADDRESS
 2881:				;---------------------------------------------------------------------------
 2882:
 2883:	  0708			   CAL_START_ADDRESS:
 2884:
 2885:	  0708	A3		   INC    DPTR
 2886:	  0709	12 07 EB	   LCALL  ASCII_TO_HEX
 2887:	  070C	C3		   CLR    C
 2888:	  070D	33		   RLC    A
 2889:	  070E	F5 10		   MOV    TEMP1,A
 2890:	  0710	12 07 EB	   LCALL  ASCII_TO_HEX
 2891:	  0713	C3		   CLR    C

ASEM-51 V1.3                                        Copyright (c) 2002 by W.W. Heinz                                         PAGE 53



 Line  I  Addr  Code            Source

 2892:	  0714	33		   RLC    A                 ;MULTIPLY BY 2
 2893:	  0715	F5 11		   MOV    TEMP2,A
 2894:	  0717	E5 10		   MOV    A,TEMP1
 2895:	  0719	34 00		   ADDC   A,#0
 2896:	  071B	F5 10		   MOV    TEMP1,A
 2897:	  071D	22		   RET
 2898:				;---------------------------------------------------------------
 2899:				;THIS ROUTINE LOADS THE HEADER & THE SLAVE ID FOR EACH QUERY
 2900:				;---------------------------------------------------------------
 2901:	  071E				HEADER_SLAVE_ID:
 2902:
 2903:	  071E	90 05 00		MOV   DPTR,#TX_BUF
 2904:	  0721	74 3A		   MOV   A,#HEADER
 2905:	  0723	F0			MOVX  @DPTR,A              ;
 2906:	  0724	A3			INC   DPTR
 2907:				;-------------------------------------------------
 2908:	  0725	74 30		   MOV   A,#30H
 2909:	  0727	F0			MOVX  @DPTR,A  ;SLAVE ADDRESS
 2910:	  0728	A3			INC   DPTR
 2911:	  0729	74 31			MOV   A,#31H
 2912:	  072B	F0			MOVX  @DPTR,A  ;
 2913:	  072C	22		   RET
 2914:
 2915:				;-----------------------------------------------------------------------------------------------
 2916:				;isr for serial interrupt
 2917:				;-----------------------------------------------------------------------------------------------
 2918:
 2919:		N      0000	   R0_ADDR     EQU   00H
 2920:
 2921:	  072D			   SERIAL:
 2922:
 2923:
 2924:
 2925:	  072D	20 99 04		JB	   TI,LOOP1_SERIAL
 2926:	  0730	20 98 0D		JB	   RI,RCVE
 2927:
 2928:				  ; OUT_ISR:
 2929:
 2930:
 2931:	  0733	32			RETI
 2932:				;--------------------------------------
 2933:				;PROGRAM FOR TRANSMISSION
 2934:				;--------------------------------------
 2935:
 2936:	  0734			   LOOP1_SERIAL:
 2937:
 2938:	  0734	30 05 05		JNB	LAST_BYTE,LOOP2_SERIAL
 2939:	  0737	D2 01			SETB	TRANS_OVER
 2940:	  0739	C2 99			CLR   TI
 2941:	  073B	32			RETI
 2942:
 2943:	  073C			   LOOP2_SERIAL:
 2944:
 2945:	  073C	12 07 67		LCALL	TRANS
 2946:	  073F	32			RETI
 2947:				;-----------------------------------------------

ASEM-51 V1.3                                        Copyright (c) 2002 by W.W. Heinz                                         PAGE 54



 Line  I  Addr  Code            Source

 2948:				;PROGRAM FOR RECEIVING DATA ON THE SERIAL PORT
 2949:				;-----------------------------------------------
 2950:
 2951:	  0740			   RCVE:
 2952:
 2953:	  0740	C0 D0			PUSH  PSW
 2954:				;	PUSH  R0_ADDR
 2955:	  0742	C0 83			PUSH  DPH
 2956:	  0744	C0 82			PUSH  DPL
 2957:
 2958:	  0746	C0 E0			PUSH  ACC
 2959:	  0748	90 04 00		MOV   DPTR,#RX_BUF
 2960:	  074B	E5 82			MOV   A,DPL
 2961:	  074D	C3			CLR   C
 2962:	  074E	25 08			ADD   A,BYTE_CNT
 2963:	  0750	F5 82			MOV   DPL,A
 2964:	  0752	E5 99			MOV	A,SBUF				;get data from serial port into a
 2965:	  0754	F0			MOVX	@DPTR,A				;load data to ram starting from 25h
 2966:				;	INC	DPTR
 2967:
 2968:	  0755	05 08			INC	BYTE_CNT
 2969:	  0757	B4 0A 02		CJNE	A,#END_CHARACTER_2,OUT_RCVE	  ;
 2970:	  075A	D2 00			SETB	RCVE_OVER
 2971:
 2972:	  075C			   OUT_RCVE:
 2973:
 2974:	  075C	D0 E0			POP   ACC
 2975:	  075E	D0 82			POP   DPL
 2976:	  0760	D0 83			POP   DPH
 2977:	  0762	D0 D0		   POP   PSW
 2978:	  0764	C2 98		   CLR   RI
 2979:	  0766	32			RETI
 2980:
 2981:				;-----------------------------------------------------------------
 2982:				;THIS ROUTINE TRANSFER THE DATA FROM TX_BUF TO SERIAL PORT
 2983:				;-----------------------------------------------------------------
 2984:	  0767			   TRANS:
 2985:
 2986:	  0767	C0 D0		   PUSH  PSW
 2987:	  0769	C0 E0			PUSH	ACC
 2988:	  076B	C0 83			PUSH  DPH
 2989:	  076D	C0 82			PUSH  DPL
 2990:	  076F	C2 99			CLR   TI
 2991:	  0771	90 05 00	   MOV   DPTR,#TX_BUF
 2992:	  0774	C3		   CLR   C
 2993:	  0775	E5 82		   MOV   A,DPL
 2994:	  0777	25 08		   ADD   A,BYTE_CNT
 2995:	  0779	F5 82		   MOV   DPL,A
 2996:	  077B	E0		   MOVX	A,@DPTR
 2997:	  077C	F5 99			MOV	SBUF,A
 2998:				;	INC	DPTR
 2999:	  077E	05 08		   INC   BYTE_CNT
 3000:
 3001:	  0780			   LOOP2_TRANS:
 3002:
 3003:	  0780	B4 0A 02		CJNE	A,#END_CHARACTER_2,OUT_TRANS

ASEM-51 V1.3                                        Copyright (c) 2002 by W.W. Heinz                                         PAGE 55



 Line  I  Addr  Code            Source

 3004:
 3005:	  0783			   LOOP3_TRANS:
 3006:
 3007:	  0783	D2 05			SETB	LAST_BYTE
 3008:
 3009:	  0785			   OUT_TRANS:
 3010:
 3011:	  0785	D0 82		   POP   DPL
 3012:	  0787	D0 83		   POP   DPH
 3013:	  0789	D0 E0			POP	ACC
 3014:	  078B	D0 D0			POP   PSW
 3015:	  078D	22			RET
 3016:
 3017:
 3018:				;---------------------------------------------------------------------------------
 3019:				;data converted into ascii format which is to be xmitted to slave
 3020:				;is stored from 40h
 3021:				;storeslrc code  &  crlf at the end
 3022:				;---------------------------------------------------------------------------------
 3023:
 3024:	  078E			   ADD_LRC_ASC:
 3025:
 3026:				;	push	psw
 3027:
 3028:				;	mov	psw,#10h			;select reg bank 02
 3029:	  078E	90 05 00		MOV	DPTR,#TX_BUF			;starting addr of ram where ascii code is stored
 3030:	  0791	E5 82		   MOV   A,DPL
 3031:	  0793	2F		   ADD   A,R7
 3032:	  0794	F5 82		   MOV   DPL,A
 3033:	  0796	E5 83		   MOV   A,DPH
 3034:	  0798	34 00		   ADDC  A,#0
 3035:	  079A	F5 83		   MOV   DPH,A
 3036:	  079C	E5 0D		   MOV   A,LRC_HI
 3037:	  079E	F0		   MOVX  @DPTR,A
 3038:	  079F	A3		   INC   DPTR
 3039:	  07A0	E5 0E		   MOV   A,LRC_LO
 3040:	  07A2	F0		   MOVX  @DPTR,A
 3041:	  07A3	A3			INC   DPTR	                           ;store clrc_hi
 3042:	  07A4	74 0D		   MOV   A,#END_CHARACTER_1
 3043:	  07A6	F0		   MOVX  @DPTR,A
 3044:	  07A7	A3		   INC   DPTR
 3045:	  07A8	74 0A		   MOV   A,#END_CHARACTER_2
 3046:	  07AA	F0		   MOVX  @DPTR,A
 3047:
 3048:	  07AB	22			RET
 3049:
 3050:
 3051:
 3052:				;---------------------------------------------------------------------------------
 3053:				;the byte to be converted is in a
 3054:				;---------------------------------------------------------------------------------
 3055:	  07AC			   conv_asc:
 3056:
 3057:	  07AC	90 07 B1		MOV	DPTR,#LUT_RTU_ASC
 3058:	  07AF	93			MOVC	A,@A+DPTR
 3059:	  07B0	22		   RET

ASEM-51 V1.3                                        Copyright (c) 2002 by W.W. Heinz                                         PAGE 56



 Line  I  Addr  Code            Source

 3060:
 3061:	  07B1			   LUT_RTU_ASC:
 3062:
 3063:	  07B1	30			db	30h	;0
 3064:	  07B2	31			db	31h	;1
 3065:	  07B3	32			db	32h	;2
 3066:	  07B4	33			db	33h	;3
 3067:	  07B5	34			db	34h	;4
 3068:	  07B6	35			db	35h	;5
 3069:	  07B7	36			db	36h	;6
 3070:	  07B8	37			db	37h	;7
 3071:	  07B9	38			db	38h	;8
 3072:	  07BA	39			db	39h	;9
 3073:	  07BB	41			db	41h	;A
 3074:	  07BC	42			db	42h	;B
 3075:	  07BD	43			db	43h	;C
 3076:	  07BE	44			db	44h	;D
 3077:	  07BF	45			db	45h	;E
 3078:	  07C0	46			db	46h	;F
 3079:
 3080:				;-----------------------------------------------------------------------------------------------
 3081:				;this function calculates lrc code of ascii data received from slave
 3082:				;and the data which has to be sent to slave
 3083:				;-----------------------------------------------------------------------------------------------
 3084:
 3085:	  07C1			   CAL_LRC:
 3086:
 3087:	  07C1	EF			MOV   A,R7
 3088:	  07C2	C3			CLR   C
 3089:	  07C3	03			RR    A
 3090:	  07C4	FF			MOV   R7,A
 3091:
 3092:	  07C5	74 00			MOV	A,#00H
 3093:
 3094:	  07C7			   LOOP1_CALLRC:					;add all data bytes
 3095:
 3096:	  07C7	F5 F0		   MOV   B,A
 3097:	  07C9	E0		   MOVX  A,@DPTR
 3098:	  07CA	12 07 EB		LCALL ASCII_TO_HEX
 3099:	  07CD	C3			CLR   C
 3100:	  07CE	25 F0			ADD	A,B
 3101:				;	INC	DPTR
 3102:	  07D0	DF F5			DJNZ	R7,LOOP1_CALLRC
 3103:	  07D2	F4			CPL	A
 3104:	  07D3	04			INC	A
 3105:	  07D4	F5 0C			MOV	LRC_CODE,A
 3106:	  07D6	85 0C 09		MOV	TEMP,LRC_CODE
 3107:	  07D9	54 F0			ANL	A,#0F0H
 3108:	  07DB	C4			SWAP	A
 3109:	  07DC	12 07 AC		LCALL	CONV_ASC
 3110:	  07DF	F5 0D			MOV	LRC_HI,A
 3111:	  07E1	E5 09			MOV	A,TEMP
 3112:	  07E3	54 0F			ANL	A,#0FH
 3113:	  07E5	12 07 AC		LCALL CONV_ASC
 3114:	  07E8	F5 0E		   MOV	LRC_LO,A
 3115:

ASEM-51 V1.3                                        Copyright (c) 2002 by W.W. Heinz                                         PAGE 57



 Line  I  Addr  Code            Source

 3116:	  07EA	22			RET
 3117:
 3118:				;****************************************************************************
 3119:				;INPUTS R0 -> LOCATION CONTAINING ASCII CHARACTERS HIGHER BYTE FIRST, LOWER BYTE NEXT
 3120:				;OUTPUT A = ASSEMBLED HEX CHARACTER
 3121:				;USES R2,A
 3122:				;****************************************************************************
 3123:	  07EB			   ASCII_TO_HEX:
 3124:
 3125:	  07EB	E0		   MOVX    A,@DPTR
 3126:	  07EC	C3			CLR     C
 3127:	  07ED	94 30			SUBB    A,#30H
 3128:	  07EF	B4 0A 00		CJNE    A,#10,A_T_H_1
 3129:
 3130:	  07F2			   A_T_H_1:
 3131:
 3132:	  07F2	40 02		   JC      A_T_H_2
 3133:	  07F4	94 07			SUBB    A,#7
 3134:
 3135:	  07F6			   A_T_H_2:
 3136:
 3137:	  07F6	C4		   SWAP    A
 3138:	  07F7	FA			MOV     R2,A
 3139:	  07F8	A3			INC     DPTR
 3140:	  07F9	E0			MOVX    A,@DPTR
 3141:	  07FA	A3			INC     DPTR
 3142:	  07FB	C3			CLR     C
 3143:	  07FC	94 30			SUBB    A,#30H
 3144:	  07FE	B4 0A 00		CJNE    A,#10,A_T_H_3
 3145:
 3146:	  0801			   A_T_H_3:
 3147:
 3148:	  0801	40 02		   JC      A_T_H_4
 3149:	  0803	94 07			SUBB    A,#7
 3150:
 3151:	  0805			   A_T_H_4:
 3152:
 3153:	  0805	4A		   ORL     A,R2
 3154:	  0806	22			RET
 3155:				;****************************************************************************
 3156:				;INPUTS A = HEX DATA R0 -> LOCATION IN TX_BUF TO STORE ASCII DATA
 3157:				;****************************************************************************
 3158:	  0807			   HEX_TO_ASCII:
 3159:
 3160:	  0807	C0 E0		   PUSH    ACC
 3161:	  0809	54 F0			ANL     A,#0F0H
 3162:	  080B	C4			SWAP    A
 3163:	  080C	24 30			ADD     A,#30H
 3164:	  080E	B4 3A 00		CJNE    A,#3AH,H_T_A_1
 3165:
 3166:	  0811			   H_T_A_1:
 3167:
 3168:	  0811	40 02		   JC      H_T_A_2
 3169:	  0813	24 07			ADD     A,#7
 3170:
 3171:	  0815			   H_T_A_2:

ASEM-51 V1.3                                        Copyright (c) 2002 by W.W. Heinz                                         PAGE 58



 Line  I  Addr  Code            Source

 3172:
 3173:	  0815	F0		   MOVX    @DPTR,A
 3174:	  0816	A3			INC     DPTR
 3175:	  0817	D0 E0			POP     ACC
 3176:	  0819	54 0F			ANL     A,#0FH
 3177:	  081B	24 30			ADD     A,#30H
 3178:	  081D	B4 3A 00		CJNE    A,#3AH,H_T_A_3
 3179:
 3180:	  0820			   H_T_A_3:
 3181:
 3182:	  0820	40 02		   JC      H_T_A_4
 3183:	  0822	24 07			ADD     A,#7
 3184:
 3185:	  0824			   H_T_A_4:
 3186:
 3187:	  0824	F0		   MOVX    @DPTR,A
 3188:	  0825	A3			INC     DPTR
 3189:	  0826	22			RET
 3190:				;***************************************************************************
 3191:				;THIS ROUTINE DIVIDES ONE 16 BIT NUMBER BY ANOTHER
 3192:				;R7  = LOOP COUNT
 3193:				;RSLT_0 = LSB OF DIVIDEND/QUOTIENT
 3194:				;RSLT_1 = MSB OF DIVIDEND/QUOTIENT
 3195:				;R2 = LSB OF DIVISOR
 3196:				;R3 = MSB OF DIVISOR
 3197:				;R4 = LSB OF REMAINDER
 3198:				;R5 = MSB OF REMAINDER
 3199:				;TEMP_0 = TEMP. (LSB OF REMAINDER)
 3200:				;TEMP_1 = TEMP. (MSB OF REMAINDER)
 3201:				;***************************************************************************
 3202:	  0827	C3		DIV_16BIT:	CLR	C
 3203:	  0828	7F 10			MOV	R7,#16
 3204:	  082A	7C 00			MOV	R4,#0
 3205:	  082C	7D 00			MOV	R5,#0
 3206:	  082E	E5 1A		ADIVLOOP:	MOV	A,RSLT_0
 3207:	  0830	33			RLC	A
 3208:	  0831	F5 1A			MOV	RSLT_0,A
 3209:	  0833	E5 1B			MOV	A,RSLT_1
 3210:	  0835	33			RLC	A
 3211:	  0836	F5 1B			MOV	RSLT_1,A
 3212:	  0838	EC			MOV	A,R4
 3213:	  0839	33			RLC	A
 3214:	  083A	FC			MOV	R4,A
 3215:	  083B	F5 10			MOV	TEMP1,A
 3216:	  083D	ED			MOV	A,R5
 3217:	  083E	33			RLC	A
 3218:	  083F	FD			MOV	R5,A
 3219:	  0840	F5 11			MOV	TEMP2,A
 3220:	  0842	EC			MOV	A,R4
 3221:	  0843	9A			SUBB	A,R2
 3222:	  0844	FC			MOV	R4,A
 3223:	  0845	ED			MOV	A,R5
 3224:	  0846	9B			SUBB	A,R3
 3225:	  0847	FD			MOV	R5,A
 3226:	  0848	B3			CPL	C
 3227:	  0849	40 06			JC	ADROP

ASEM-51 V1.3                                        Copyright (c) 2002 by W.W. Heinz                                         PAGE 59



 Line  I  Addr  Code            Source

 3228:	  084B	E5 10			MOV	A,TEMP1
 3229:	  084D	FC			MOV	R4,A
 3230:	  084E	E5 11			MOV	A,TEMP2
 3231:	  0850	FD			MOV	R5,A
 3232:	  0851	DF DB		ADROP:	DJNZ	R7,ADIVLOOP
 3233:	  0853	E5 1A			MOV	A,RSLT_0
 3234:	  0855	33			RLC	A
 3235:	  0856	F5 1A			MOV	RSLT_0,A
 3236:	  0858	E5 1B			MOV	A,RSLT_1
 3237:	  085A	33			RLC	A
 3238:	  085B	F5 1B			MOV	RSLT_1,A
 3239:	  085D	22			RET
 3240:				;******************************************************************************
 3241:				;COMPARE:	THIS ROUTINE COMPARES TWO NUBER STORED IN LOCATION <R3><R2> AND
 3242:				;	<R5><R4> RESULT OF COPARISON IS GIVEN THROUGH RELAY.
 3243:				;	RLY43 IS SET IF <R3><R2> < <R5><R4>
 3244:				;	RLY44 IS SET IF <R3><R2> = <R5><R4>
 3245:				;	RLY45 IS SET IF <R3><R2> > <R5><R4>
 3246:				;REGISTER USED: A,PSW
 3247:		N      0004	NUM1L			EQU	04
 3248:		N      0005	NUM1H			EQU	05
 3249:		N      0002	NUM2L			EQU	02
 3250:		N      0003	NUM2H			EQU	03
 3251:				;*****************************************************************************
 3252:
 3253:	  085E			   COMPARE:
 3254:
 3255:	  085E	C2 78		   CLR	RLY33
 3256:	  0860	C2 79			CLR	RLY34
 3257:	  0862	C2 7A			CLR	RLY35
 3258:	  0864	EA			MOV	A,R2
 3259:	  0865	C3			CLR	C
 3260:	  0866	9C			SUBB	A,R4
 3261:	  0867	FE			MOV	R6,A
 3262:	  0868	EB			MOV	A,R3
 3263:	  0869	9D			SUBB	A,R5
 3264:	  086A	50 03			JNC	NOT_LESS
 3265:	  086C	D2 78			SETB	RLY33
 3266:	  086E	22			RET
 3267:
 3268:	  086F			   NOT_LESS:
 3269:
 3270:	  086F	4E		   ORL	A,R6
 3271:	  0870	70 03			JNZ	NOT_EQUAL
 3272:	  0872	D2 79			SETB	RLY34
 3273:	  0874	22			RET
 3274:
 3275:	  0875			   NOT_EQUAL:
 3276:
 3277:	  0875	D2 7A		   SETB	RLY35
 3278:	  0877	22			RET
 3279:
 3280:
 3281:				;----------------------------------------------------
 3282:				;OUTPUT
 3283:				;----------------------------------------------------

ASEM-51 V1.3                                        Copyright (c) 2002 by W.W. Heinz                                         PAGE 60



 Line  I  Addr  Code            Source

 3284:	  0878			   LOAD_OUTPUT:
 3285:
 3286:	  0878	20 07 05	   JB    B_FIRST_CYCLE,LOAD_OPS
 3287:	  087B	E4		   CLR   A
 3288:	  087C	D2 B5		   SETB  P3.5
 3289:	  087E	80 22		   SJMP  DONT_LOAD_OPS
 3290:
 3291:	  0880			   LOAD_OPS:
 3292:
 3293:	  0880	C2 B5		   CLR    P3.5
 3294:	  0882	78 27		   MOV    R0,#OUT0_7
 3295:	  0884	E6		   MOV    A,@R0
 3296:	  0885	90 5F 00	   MOV    DPTR,#OUTPUT00_07
 3297:	  0888	F0		   MOVX   @DPTR,A
 3298:	  0889	90 E8 00	   MOV    DPTR,#OUTPUT_ADDRESS
 3299:	  088C	F0		   MOVX   @DPTR,A
 3300:	  088D	78 2C		   MOV    R0,#OUT8_15
 3301:	  088F	E6		   MOV    A,@R0
 3302:	  0890	90 5F 01	   MOV    DPTR,#OUTPUT08_15
 3303:	  0893	F0		   MOVX   @DPTR,A
 3304:	  0894	90 E8 01	   MOV    DPTR,#OUTPUT_ADDRESS+1
 3305:	  0897	F0		   MOVX   @DPTR,A
 3306:	  0898	E5 30		   MOV    A,OUT16_23
 3307:	  089A	90 5F 02	   MOV    DPTR,#OUTPUT16_23
 3308:	  089D	F0		   MOVX   @DPTR,A
 3309:	  089E	90 E8 02	   MOV    DPTR,#OUTPUT_ADDRESS+2
 3310:	  08A1	F0		   MOVX   @DPTR,A
 3311:
 3312:	  08A2			   DONT_LOAD_OPS:
 3313:
 3314:
 3315:	  08A2	22		   RET
 3316:				;-----------------------------------------------------
 3317:	  08A3			   READ_INPUTS:
 3318:
 3319:	  08A3	E5 37		  	MOV    A,IP_DEBOUNCE
 3320:	  08A5	C3		  	CLR    C
 3321:	  08A6	94 32		  	SUBB   A,#50
 3322:	  08A8	50 25		  	JNC    NOT_MY_SCAN
 3323:	  08AA	75 37 00	  	MOV    IP_DEBOUNCE,#0
 3324:				;----------------------------------
 3325:
 3326:	  08AD	90 F8 00	  	MOV    DPTR,#INPUT_ADDRESS
 3327:	  08B0	E0			MOVX	 A,@DPTR
 3328:	  08B1	F4			CPL	 A
 3329:	  08B2	FA			MOV	 R2,A
 3330:	  08B3	55 1E		   ANL	A,PREV_DCINP0	;ONLY THOSE LOCATION WHITCH ARE
 3331:	  08B5	F5 29			MOV   DC_INPUT0,A
 3332:	  08B7	EA			MOV   A,R2
 3333:	  08B8	F5 1E			MOV   PREV_DCINP0,A
 3334:				;---------------------------------------
 3335:	  08BA	A3			INC   DPTR
 3336:	  08BB	E0			MOVX  A,@DPTR
 3337:	  08BC	F4			CPL	A
 3338:	  08BD	FA			MOV	R2,A
 3339:	  08BE	55 1F		   ANL	A,PREV_DCINP1	;ONLY THOSE LOCATION WHITCH ARE

ASEM-51 V1.3                                        Copyright (c) 2002 by W.W. Heinz                                         PAGE 61



 Line  I  Addr  Code            Source

 3340:	  08C0	F5 2A		   MOV   DC_INPUT1,A
 3341:	  08C2	EA		   MOV   A,R2
 3342:	  08C3	F5 1F		   MOV   PREV_DCINP1,A
 3343:				;----------------------------------
 3344:
 3345:	  08C5	90 0F 00	   MOV   DPTR,#BIT_START_ADDRESS_INPUT
 3346:	  08C8	E5 29		   MOV   A,DC_INPUT0              ;R1
 3347:	  08CA	F0		   MOVX  @DPTR,A
 3348:
 3349:	  08CB	E5 2A		   MOV   A,DC_INPUT1              ;R2
 3350:	  08CD	A3		   INC   DPTR
 3351:	  08CE	F0		   MOVX  @DPTR,A
 3352:
 3353:	  08CF			   NOT_MY_SCAN:
 3354:
 3355:
 3356:
 3357:	  08CF	22			RET
 3358:				;-----------------------------------------------------
 3359:	  08D0			   READ_ADC:
 3360:
 3361:
 3362:
 3363:	  08D0	90 F8 18	   MOV   DPTR,#TEMP_IP_12_L             ;0C000H
 3364:	  08D3	E0		   MOVX  A,@DPTR
 3365:	  08D4	FC		   MOV   R4,A
 3366:	  08D5	90 F8 19	   MOV   DPTR,#TEMP_IP_12_H                     ;0C001H
 3367:	  08D8	E0		   MOVX  A,@DPTR
 3368:	  08D9	FD		   MOV   R5,A
 3369:	  08DA	54 70		   ANL   A,#70H
 3370:	  08DC	C4		   SWAP  A
 3371:	  08DD	F5 31		   MOV   A2D_CHANNEL,A
 3372:	  08DF	ED		   MOV   A,R5
 3373:	  08E0	54 0F		   ANL   A,#0FH
 3374:	  08E2	FD		   MOV   R5,A
 3375:	  08E3	EC		   MOV   A,R4
 3376:	  08E4	FC		   MOV   R4,A
 3377:				;-------------------------------------------
 3378:	  08E5	90 24 20	   MOV   DPTR,#ZONE1_COUNTS_H
 3379:	  08E8	E5 31		   MOV   A,A2D_CHANNEL      ; MULTIPLY BY 2 AS 2 LOCATIONS PER CHANNEL
 3380:	  08EA	25 31		   ADD   A,A2D_CHANNEL
 3381:	  08EC	F8		   MOV   R0,A
 3382:	  08ED	E5 82		   MOV   A,DPL
 3383:	  08EF	C3		   CLR   C
 3384:	  08F0	28		   ADD   A,R0
 3385:	  08F1	F5 82		   MOV   DPL,A
 3386:	  08F3	ED		   MOV   A,R5
 3387:	  08F4	F0		   MOVX  @DPTR,A
 3388:	  08F5	A3		   INC   DPTR
 3389:	  08F6	EC		   MOV   A,R4
 3390:	  08F7	F0		   MOVX  @DPTR,A
 3391:
 3392:	  08F8	22		   RET
 3393:				;-----------------------------------------------------
 3394:	  08F9			   MULTIPLICATION:
 3395:	  08F9	75 F0 10		MOV	B,#16

ASEM-51 V1.3                                        Copyright (c) 2002 by W.W. Heinz                                         PAGE 62



 Line  I  Addr  Code            Source

 3396:	  08FC	E4			CLR	A
 3397:	  08FD	FF			MOV	R7,A
 3398:	  08FE	FE			MOV	R6,A
 3399:	  08FF	FD			MOV	R5,A
 3400:	  0900	FC			MOV	R4,A
 3401:	  0901	C3			CLR	C
 3402:
 3403:	  0902			   CONT_MUL_32:
 3404:
 3405:	  0902	EA		   MOV	A,R2
 3406:	  0903	33			RLC	A
 3407:	  0904	FA			MOV	R2,A
 3408:	  0905	EB			MOV	A,R3
 3409:	  0906	33			RLC	A
 3410:	  0907	FB			MOV	R3,A
 3411:	  0908	50 10			JNC	ZERO_BIT_32
 3412:	  090A	EC			MOV	A,R4
 3413:	  090B	28			ADD	A,R0
 3414:	  090C	FC			MOV	R4,A
 3415:	  090D	ED			MOV	A,R5
 3416:	  090E	39			ADDC	A,R1
 3417:	  090F	FD			MOV	R5,A
 3418:	  0910	EE			MOV	A,R6
 3419:	  0911	34 00			ADDC	A,#0
 3420:	  0913	FE			MOV	R6,A
 3421:	  0914	EF			MOV	A,R7
 3422:	  0915	34 00			ADDC	A,#0
 3423:	  0917	FF			MOV	R7,A
 3424:	  0918	40 04			JC	   MUL_OV_32
 3425:
 3426:	  091A			   ZERO_BIT_32:
 3427:
 3428:	  091A	D5 F0 02	   DJNZ	B,MOV_RES_LEFT
 3429:	  091D	C3			CLR	C
 3430:
 3431:	  091E			   MUL_OV_32:
 3432:
 3433:	  091E	22		   RET
 3434:
 3435:	  091F			   MOV_RES_LEFT:
 3436:
 3437:	  091F	C3		   CLR	C
 3438:	  0920	EC			MOV	A,R4
 3439:	  0921	33			RLC	A
 3440:	  0922	FC			MOV	R4,A
 3441:	  0923	ED			MOV	A,R5
 3442:	  0924	33			RLC	A
 3443:	  0925	FD			MOV	R5,A
 3444:	  0926	EE			MOV	A,R6
 3445:	  0927	33			RLC	A
 3446:	  0928	FE			MOV	R6,A
 3447:	  0929	EF			MOV	A,R7
 3448:	  092A	33			RLC	A
 3449:	  092B	FF			MOV	R7,A
 3450:	  092C	80 D4			SJMP	CONT_MUL_32
 3451:				;----------------------------------------------------

ASEM-51 V1.3                                        Copyright (c) 2002 by W.W. Heinz                                         PAGE 63



 Line  I  Addr  Code            Source

 3452:	  092E			   LOOK_UP_TABLE:
 3453:
 3454:	  092E	04		   INC   A
 3455:	  092F	83		   MOVC  A,@A+PC
 3456:	  0930	22		   RET
 3457:
 3458:	  0931	00		   DB   00
 3459:	  0932	28		   DB   40
 3460:	  0933	50		   DB   80
 3461:	  0934	78		   DB   120
 3462:	  0935	A0		   DB   160
 3463:	  0936	C8		   DB   200
 3464:				  ; DB   200
 3465:				  ; DB   200
 3466:				  ; DB   160
 3467:				  ; DB   160
 3468:				  ; DB   160
 3469:				  ; DB   200
 3470:
 3471:				;------------------------------------------------------
 3472:				;THIS WATCHDOG PROGRAM IS FOE 89V51RD2 & SST89E516RD2
 3473:
 3474:	  0937			   RESET_WATCHDOG:
 3475:
 3476:	  0937	E5 C0		   MOV   A,0C0H
 3477:	  0939	D2 E1		   SETB  ACC.1
 3478:	  093B	F5 C0		   MOV   0C0H,A
 3479:	  093D	22		   RET
 3480:				;-----------------------------------------------------
 3481:				 ;  ENABLE_WATCHDOG:
 3482:
 3483:				 ;  MOV   A,#0C0H
 3484:				;   CLR   ACC.1
 3485:				 ;  MOV   0C0H,A
 3486:				;   RET
 3487:				;--------------------------------------------------------------------------
 3488:				;IF 89S52 IS USED ACTIVATE THE BELOW ROUTINE & DISABLE THE 89V51RD2 ROUTINE
 3489:				;--------------------------------------------------------------------------
 3490:				  ; MOV               085H,#0H
 3491:				  ; MOV               0A6H,#0E1H               ;0A6H IS A WATCH DOG REGISTER
 3492:				  ; RET
 3493:				;--------------------------------------------------------------------
 3494:
 3495:
 3496:	  093E			   TMR_HANDLER:
 3497:
 3498:
 3499:
 3500:	  093E	E5 0A		   MOV   A,TIMECT
 3501:	  0940	C3		   CLR   C
 3502:	  0941	C2 03		   CLR   TEN_MSEC_BIT
 3503:	  0943	B4 0A 00	   CJNE  A,#10,TIME_LESS_TEM_MILLISEC
 3504:
 3505:	  0946			   TIME_LESS_TEM_MILLISEC:
 3506:
 3507:	  0946	40 09		   JC    NOT_10MSEC

ASEM-51 V1.3                                        Copyright (c) 2002 by W.W. Heinz                                         PAGE 64



 Line  I  Addr  Code            Source

 3508:	  0948	D2 7F		   SETB  RLY40
 3509:	  094A	D2 03		   SETB  TEN_MSEC_BIT
 3510:	  094C	C3		  	CLR   C
 3511:	  094D	94 0A		  	SUBB  A,#10
 3512:	  094F	F5 0A		  	MOV   TIMECT,A
 3513:
 3514:	  0951			   NOT_10MSEC:
 3515:
 3516:				;--------------------------------------------------------------------------
 3517:	  0951			   TM00_HANDLER:
 3518:
 3519:	  0951	30 10 41	   JNB	TM00E,TMR0_NOT_ENABLED
 3520:	  0954	20 11 47		JB	   TM00D,TM01_HANDLER
 3521:	  0957	30 03 44	   JNB   TEN_MSEC_BIT,TM01_HANDLER
 3522:				;--------------------------------------------------------------
 3523:	  095A	90 23 89		MOV   DPTR,#TMC00L
 3524:	  095D	E0		   MOVX  A,@DPTR
 3525:	  095E	C3			CLR   C
 3526:	  095F	24 01			ADD	A,#01
 3527:	  0961	F0			MOVX	@DPTR,A
 3528:	  0962	90 23 88	   MOV   DPTR,#TMC00H
 3529:	  0965	E0		   MOVX  A,@DPTR
 3530:	  0966	34 00		   ADDC 	A,#0
 3531:	  0968	F0			MOVX	@DPTR,A
 3532:
 3533:	  0969	90 23 88		MOV   DPTR,#TMC00H
 3534:	  096C	E0			MOVX  A,@DPTR
 3535:	  096D	F5 F0			MOV   B,A
 3536:	  096F	90 10 50	   MOV   DPTR,#TMS00H
 3537:	  0972	E0		   MOVX  A,@DPTR
 3538:	  0973	B5 F0 02	   CJNE  A,B,CHK_TMC00H                    ;TMR00_NOT_DONE
 3539:	  0976	80 04			SJMP  CHK_TMC00L
 3540:
 3541:	  0978			   CHK_TMC00H:
 3542:
 3543:	  0978	40 17		   JC	   SET_TMR_DONE
 3544:	  097A	50 11		   JNC   TMR00_NOT_DONE
 3545:
 3546:	  097C			   CHK_TMC00L:
 3547:
 3548:	  097C	90 23 89	   MOV   DPTR,#TMC00L
 3549:	  097F	E0		   MOVX	A,@DPTR                               ;A,TMC00L
 3550:	  0980	F5 F0			MOV   B,A
 3551:	  0982	90 10 51		MOV   DPTR,#TMS00L
 3552:	  0985	E0			MOVX  A,@DPTR
 3553:	  0986	B5 F0 02		CJNE  A,B,CHECK_CARRY
 3554:	  0989	80 06			SJMP  SET_TMR_DONE
 3555:
 3556:	  098B				CHECK_CARRY:
 3557:
 3558:	  098B	40 04			JC	   SET_TMR_DONE
 3559:
 3560:	  098D			   TMR00_NOT_DONE:
 3561:
 3562:	  098D	C2 11			CLR	TM00D
 3563:	  098F	80 0D			SJMP	TM01_HANDLER

ASEM-51 V1.3                                        Copyright (c) 2002 by W.W. Heinz                                         PAGE 65



 Line  I  Addr  Code            Source

 3564:
 3565:	  0991			   SET_TMR_DONE:
 3566:
 3567:	  0991	D2 11		   SETB	TM00D
 3568:	  0993	80 09			SJMP	TM01_HANDLER
 3569:
 3570:	  0995			   TMR0_NOT_ENABLED:
 3571:
 3572:	  0995	C2 11			CLR	TM00D
 3573:	  0997	E4		   CLR   A
 3574:	  0998	90 23 88	   MOV   DPTR,#TMC00H
 3575:	  099B	F0		   MOVX  @DPTR,A
 3576:	  099C	A3		   INC   DPTR
 3577:	  099D	F0		   MOVX  @DPTR,A
 3578:
 3579:
 3580:
 3581:				;---------------------------------------------------------------------------------------
 3582:	  099E				TM01_HANDLER:
 3583:
 3584:	  099E	30 12 42		JNB	TM01E,TMR1_NOT_ENABLED
 3585:	  09A1	20 13 48		JB	   TM01D,TM02_HANDLER
 3586:	  09A4	30 03 45		JNB   TEN_MSEC_BIT,TM02_HANDLER
 3587:	  09A7	C3			CLR	C
 3588:	  09A8	90 23 8B		MOV   DPTR,#TMC01L
 3589:	  09AB	E0		   MOVX  A,@DPTR
 3590:	  09AC	C3			CLR   C
 3591:	  09AD	24 01			ADD	A,#01
 3592:	  09AF	F0			MOVX	@DPTR,A
 3593:	  09B0	90 23 8A	   MOV   DPTR,#TMC01H
 3594:	  09B3	E0		   MOVX  A,@DPTR
 3595:	  09B4	34 00		   ADDC 	A,#0
 3596:	  09B6	F0			MOVX	@DPTR,A
 3597:
 3598:	  09B7	90 23 8A		MOV   DPTR,#TMC01H
 3599:	  09BA	E0			MOVX  A,@DPTR
 3600:	  09BB	F5 F0			MOV   B,A
 3601:	  09BD	90 10 52	   MOV   DPTR,#TMS01H
 3602:	  09C0	E0		   MOVX  A,@DPTR
 3603:	  09C1	B5 F0 02	   CJNE  A,B,CHK_TMC01H                    ;TMR00_NOT_DONE
 3604:	  09C4	80 04			SJMP  CHK_TMC01L
 3605:
 3606:	  09C6			   CHK_TMC01H:
 3607:
 3608:	  09C6	40 17		   JC	   SET_TMR01_DONE
 3609:	  09C8	50 11		   JNC   TMR01_NOT_DONE
 3610:
 3611:	  09CA			   CHK_TMC01L:
 3612:
 3613:	  09CA	90 23 8B	   MOV   DPTR,#TMC01L
 3614:	  09CD	E0		   MOVX	A,@DPTR                               ;A,TMC00L
 3615:	  09CE	F5 F0			MOV   B,A
 3616:	  09D0	90 10 53		MOV   DPTR,#TMS01L
 3617:	  09D3	E0			MOVX  A,@DPTR
 3618:	  09D4	B5 F0 02		CJNE  A,B,CHECK_CARRY_TM01
 3619:	  09D7	80 06			SJMP  SET_TMR01_DONE

ASEM-51 V1.3                                        Copyright (c) 2002 by W.W. Heinz                                         PAGE 66



 Line  I  Addr  Code            Source

 3620:
 3621:	  09D9				CHECK_CARRY_TM01:
 3622:
 3623:	  09D9	40 04			JC	   SET_TMR01_DONE
 3624:
 3625:	  09DB			   TMR01_NOT_DONE:
 3626:
 3627:	  09DB	C2 13			CLR	TM01D
 3628:	  09DD	80 0D			SJMP	TM02_HANDLER
 3629:
 3630:	  09DF			   SET_TMR01_DONE:
 3631:
 3632:	  09DF	D2 13		   SETB	TM01D
 3633:	  09E1	80 09			SJMP	TM02_HANDLER
 3634:
 3635:	  09E3			   TMR1_NOT_ENABLED:
 3636:
 3637:	  09E3	C2 13			CLR	TM01D
 3638:	  09E5	E4		   CLR   A
 3639:	  09E6	90 23 8A	   MOV   DPTR,#TMC01H
 3640:	  09E9	F0		   MOVX  @DPTR,A
 3641:	  09EA	A3		   INC   DPTR
 3642:	  09EB	F0		   MOVX  @DPTR,A
 3643:				;---------------------------------------------------------------------
 3644:	  09EC			   TM02_HANDLER:
 3645:
 3646:	  09EC	30 14 41	   JNB	TM02E,TMR2_NOT_ENABLED
 3647:	  09EF	20 15 47		JB	   TM02D,TM03_HANDLER
 3648:	  09F2	30 03 44	   JNB   TEN_MSEC_BIT,TM03_HANDLER
 3649:	  09F5	90 23 8D	   MOV   DPTR,#TMC02L
 3650:	  09F8	E0		   MOVX  A,@DPTR
 3651:	  09F9	C3			CLR   C
 3652:	  09FA	24 01			ADD	A,#01
 3653:	  09FC	F0			MOVX	@DPTR,A
 3654:	  09FD	90 23 8C	   MOV   DPTR,#TMC02H
 3655:	  0A00	E0		   MOVX  A,@DPTR
 3656:	  0A01	34 00		   ADDC 	A,#0
 3657:	  0A03	F0			MOVX	@DPTR,A
 3658:
 3659:	  0A04	90 23 8C		MOV   DPTR,#TMC02H
 3660:	  0A07	E0			MOVX  A,@DPTR
 3661:	  0A08	F5 F0			MOV   B,A
 3662:	  0A0A	90 10 54	   MOV   DPTR,#TMS02H
 3663:	  0A0D	E0		   MOVX  A,@DPTR
 3664:	  0A0E	B5 F0 02	   CJNE  A,B,CHK_TMC02H                    ;TMR00_NOT_DONE
 3665:	  0A11	80 04			SJMP  CHK_TMC02L
 3666:
 3667:	  0A13			   CHK_TMC02H:
 3668:
 3669:	  0A13	40 17		   JC	   SET_TMR02_DONE
 3670:	  0A15	50 11		   JNC   TMR02_NOT_DONE
 3671:
 3672:	  0A17			   CHK_TMC02L:
 3673:
 3674:	  0A17	90 23 8D	   MOV   DPTR,#TMC02L
 3675:	  0A1A	E0		   MOVX	A,@DPTR                               ;A,TMC00L

ASEM-51 V1.3                                        Copyright (c) 2002 by W.W. Heinz                                         PAGE 67



 Line  I  Addr  Code            Source

 3676:	  0A1B	F5 F0			MOV   B,A
 3677:	  0A1D	90 10 55		MOV   DPTR,#TMS02L
 3678:	  0A20	E0			MOVX  A,@DPTR
 3679:	  0A21	B5 F0 02		CJNE  A,B,CHECK_CARRY_TM02
 3680:	  0A24	80 06			SJMP  SET_TMR02_DONE
 3681:
 3682:	  0A26				CHECK_CARRY_TM02:
 3683:
 3684:	  0A26	40 04			JC	   SET_TMR02_DONE
 3685:
 3686:	  0A28			   TMR02_NOT_DONE:
 3687:
 3688:	  0A28	C2 15			CLR	TM02D
 3689:	  0A2A	80 0D			SJMP	TM03_HANDLER
 3690:
 3691:	  0A2C			   SET_TMR02_DONE:
 3692:
 3693:	  0A2C	D2 15		   SETB	TM02D
 3694:	  0A2E	80 09			SJMP	TM03_HANDLER
 3695:
 3696:	  0A30			   TMR2_NOT_ENABLED:
 3697:
 3698:	  0A30	C2 15			CLR	TM02D
 3699:	  0A32	E4		   CLR   A
 3700:	  0A33	90 23 8C	   MOV   DPTR,#TMC02H
 3701:	  0A36	F0		   MOVX  @DPTR,A
 3702:	  0A37	A3		   INC   DPTR
 3703:	  0A38	F0		   MOVX  @DPTR,A
 3704:				;-------------------------------------------------------------------
 3705:	  0A39				TM03_HANDLER:
 3706:
 3707:	  0A39	30 16 41		JNB	TM03E,TMR3_NOT_ENABLED
 3708:	  0A3C	20 17 47		JB	   TM03D,TM04_HANDLER
 3709:	  0A3F	30 03 44		JNB   TEN_MSEC_BIT,TM04_HANDLER
 3710:	  0A42	90 23 8F		MOV   DPTR,#TMC03L
 3711:	  0A45	E0		   MOVX  A,@DPTR
 3712:	  0A46	C3			CLR   C
 3713:	  0A47	24 01			ADD	A,#01
 3714:	  0A49	F0			MOVX	@DPTR,A
 3715:	  0A4A	90 23 8E	   MOV   DPTR,#TMC03H
 3716:	  0A4D	E0		   MOVX  A,@DPTR
 3717:	  0A4E	34 00		   ADDC 	A,#0
 3718:	  0A50	F0			MOVX	@DPTR,A
 3719:
 3720:	  0A51	90 23 8E		MOV   DPTR,#TMC03H
 3721:	  0A54	E0			MOVX  A,@DPTR
 3722:	  0A55	F5 F0			MOV   B,A
 3723:	  0A57	90 10 56	   MOV   DPTR,#TMS03H
 3724:	  0A5A	E0		   MOVX  A,@DPTR
 3725:	  0A5B	B5 F0 02	   CJNE  A,B,CHK_TMC03H                    ;TMR00_NOT_DONE
 3726:	  0A5E	80 04			SJMP  CHK_TMC03L
 3727:
 3728:	  0A60			   CHK_TMC03H:
 3729:
 3730:	  0A60	40 17		   JC	   SET_TMR03_DONE
 3731:	  0A62	50 11		   JNC   TMR03_NOT_DONE

ASEM-51 V1.3                                        Copyright (c) 2002 by W.W. Heinz                                         PAGE 68



 Line  I  Addr  Code            Source

 3732:
 3733:	  0A64			   CHK_TMC03L:
 3734:
 3735:	  0A64	90 23 8F	   MOV   DPTR,#TMC03L
 3736:	  0A67	E0		   MOVX	A,@DPTR                               ;A,TMC00L
 3737:	  0A68	F5 F0			MOV   B,A
 3738:	  0A6A	90 10 57		MOV   DPTR,#TMS03L
 3739:	  0A6D	E0			MOVX  A,@DPTR
 3740:	  0A6E	B5 F0 02		CJNE  A,B,CHECK_CARRY_TM03
 3741:	  0A71	80 06			SJMP  SET_TMR03_DONE
 3742:
 3743:	  0A73				CHECK_CARRY_TM03:
 3744:
 3745:	  0A73	40 04			JC	   SET_TMR03_DONE
 3746:
 3747:	  0A75			   TMR03_NOT_DONE:
 3748:
 3749:	  0A75	C2 17			CLR	TM03D
 3750:	  0A77	80 0D			SJMP	TM04_HANDLER
 3751:
 3752:	  0A79			   SET_TMR03_DONE:
 3753:
 3754:	  0A79	D2 17		   SETB	TM03D
 3755:	  0A7B	80 09			SJMP	TM04_HANDLER
 3756:
 3757:	  0A7D			   TMR3_NOT_ENABLED:
 3758:
 3759:	  0A7D	C2 17			CLR	TM03D
 3760:	  0A7F	E4		   CLR   A
 3761:	  0A80	90 23 8E	   MOV   DPTR,#TMC03H
 3762:	  0A83	F0		   MOVX  @DPTR,A
 3763:	  0A84	A3		   INC   DPTR
 3764:	  0A85	F0		   MOVX  @DPTR,A
 3765:
 3766:				;--------------------------------------------------------------------
 3767:	  0A86			   TM04_HANDLER:
 3768:
 3769:	  0A86	30 18 41	   JNB	TM04E,TMR4_NOT_ENABLED
 3770:	  0A89	20 19 47		JB	   TM04D,TM05_HANDLER
 3771:	  0A8C	30 03 44		JNB   TEN_MSEC_BIT,TM05_HANDLER
 3772:	  0A8F	90 23 91		MOV   DPTR,#TMC04L
 3773:	  0A92	E0		   MOVX  A,@DPTR
 3774:	  0A93	C3			CLR   C
 3775:	  0A94	24 01			ADD	A,#01
 3776:	  0A96	F0			MOVX	@DPTR,A
 3777:	  0A97	90 23 90	   MOV   DPTR,#TMC04H
 3778:	  0A9A	E0		   MOVX  A,@DPTR
 3779:	  0A9B	34 00		   ADDC 	A,#0
 3780:	  0A9D	F0			MOVX	@DPTR,A
 3781:
 3782:	  0A9E	90 23 90		MOV   DPTR,#TMC04H
 3783:	  0AA1	E0			MOVX  A,@DPTR
 3784:	  0AA2	F5 F0			MOV   B,A
 3785:	  0AA4	90 10 58	   MOV   DPTR,#TMS04H
 3786:	  0AA7	E0		   MOVX  A,@DPTR
 3787:	  0AA8	B5 F0 02	   CJNE  A,B,CHK_TMC04H                    ;TMR00_NOT_DONE

ASEM-51 V1.3                                        Copyright (c) 2002 by W.W. Heinz                                         PAGE 69



 Line  I  Addr  Code            Source

 3788:	  0AAB	80 04			SJMP  CHK_TMC04L
 3789:
 3790:	  0AAD			   CHK_TMC04H:
 3791:
 3792:	  0AAD	40 17		   JC	   SET_TMR04_DONE
 3793:	  0AAF	50 11		   JNC   TMR04_NOT_DONE
 3794:
 3795:	  0AB1			   CHK_TMC04L:
 3796:
 3797:	  0AB1	90 23 91	   MOV   DPTR,#TMC04L
 3798:	  0AB4	E0		   MOVX	A,@DPTR                               ;A,TMC00L
 3799:	  0AB5	F5 F0			MOV   B,A
 3800:	  0AB7	90 10 59		MOV   DPTR,#TMS04L
 3801:	  0ABA	E0			MOVX  A,@DPTR
 3802:	  0ABB	B5 F0 02		CJNE  A,B,CHECK_CARRY_TM04
 3803:	  0ABE	80 06			SJMP  SET_TMR04_DONE
 3804:
 3805:	  0AC0				CHECK_CARRY_TM04:
 3806:
 3807:	  0AC0	40 04			JC	   SET_TMR04_DONE
 3808:
 3809:	  0AC2			   TMR04_NOT_DONE:
 3810:
 3811:	  0AC2	C2 19			CLR	TM04D
 3812:	  0AC4	80 0D			SJMP	TM05_HANDLER
 3813:
 3814:	  0AC6			   SET_TMR04_DONE:
 3815:
 3816:	  0AC6	D2 19		   SETB	TM04D
 3817:	  0AC8	80 09			SJMP	TM05_HANDLER
 3818:
 3819:	  0ACA			   TMR4_NOT_ENABLED:
 3820:
 3821:	  0ACA	C2 19			CLR	TM04D
 3822:	  0ACC	E4		   CLR   A
 3823:	  0ACD	90 23 90	   MOV   DPTR,#TMC04H
 3824:	  0AD0	F0		   MOVX  @DPTR,A
 3825:	  0AD1	A3		   INC   DPTR
 3826:	  0AD2	F0		   MOVX  @DPTR,A
 3827:				;---------------------------------------------------------------------
 3828:	  0AD3			   TM05_HANDLER:
 3829:
 3830:	  0AD3	30 1A 41	   JNB	TM05E,TMR5_NOT_ENABLED
 3831:	  0AD6	20 1B 47		JB	   TM05D,TM06_HANDLER
 3832:	  0AD9	30 03 44		JNB   TEN_MSEC_BIT,TM06_HANDLER
 3833:
 3834:	  0ADC	90 23 93		MOV   DPTR,#TMC05L
 3835:	  0ADF	E0		   MOVX  A,@DPTR
 3836:	  0AE0	C3			CLR   C
 3837:	  0AE1	24 01			ADD	A,#01
 3838:	  0AE3	F0			MOVX	@DPTR,A
 3839:	  0AE4	90 23 92	   MOV   DPTR,#TMC05H
 3840:	  0AE7	E0		   MOVX  A,@DPTR
 3841:	  0AE8	34 00		   ADDC 	A,#0
 3842:	  0AEA	F0			MOVX	@DPTR,A
 3843:

ASEM-51 V1.3                                        Copyright (c) 2002 by W.W. Heinz                                         PAGE 70



 Line  I  Addr  Code            Source

 3844:	  0AEB	90 23 92		MOV   DPTR,#TMC05H
 3845:	  0AEE	E0			MOVX  A,@DPTR
 3846:	  0AEF	F5 F0			MOV   B,A
 3847:	  0AF1	90 10 5A	   MOV   DPTR,#TMS05H
 3848:	  0AF4	E0		   MOVX  A,@DPTR
 3849:	  0AF5	B5 F0 02	   CJNE  A,B,CHK_TMC05H                    ;TMR00_NOT_DONE
 3850:	  0AF8	80 04			SJMP  CHK_TMC05L
 3851:
 3852:	  0AFA			   CHK_TMC05H:
 3853:
 3854:	  0AFA	40 17		   JC	   SET_TMR05_DONE
 3855:	  0AFC	50 11		   JNC   TMR05_NOT_DONE
 3856:
 3857:	  0AFE			   CHK_TMC05L:
 3858:
 3859:	  0AFE	90 23 93	   MOV   DPTR,#TMC05L
 3860:	  0B01	E0		   MOVX	A,@DPTR                               ;A,TMC00L
 3861:	  0B02	F5 F0			MOV   B,A
 3862:	  0B04	90 10 5B		MOV   DPTR,#TMS05L
 3863:	  0B07	E0			MOVX  A,@DPTR
 3864:	  0B08	B5 F0 02		CJNE  A,B,CHECK_CARRY_TM05
 3865:	  0B0B	80 06			SJMP  SET_TMR05_DONE
 3866:
 3867:	  0B0D				CHECK_CARRY_TM05:
 3868:
 3869:	  0B0D	40 04			JC	   SET_TMR05_DONE
 3870:
 3871:	  0B0F			   TMR05_NOT_DONE:
 3872:
 3873:	  0B0F	C2 1B			CLR	TM05D
 3874:	  0B11	80 0D			SJMP	TM06_HANDLER
 3875:
 3876:	  0B13			   SET_TMR05_DONE:
 3877:
 3878:	  0B13	D2 1B		   SETB	TM05D
 3879:	  0B15	80 09			SJMP	TM06_HANDLER
 3880:
 3881:	  0B17			   TMR5_NOT_ENABLED:
 3882:
 3883:	  0B17	C2 1B			CLR	TM05D
 3884:	  0B19	E4		   CLR   A
 3885:	  0B1A	90 23 92	   MOV   DPTR,#TMC05H
 3886:	  0B1D	F0		   MOVX  @DPTR,A
 3887:	  0B1E	A3		   INC   DPTR
 3888:	  0B1F	F0		   MOVX  @DPTR,A
 3889:				;---------------------------------------------------------------
 3890:	  0B20			   TM06_HANDLER:
 3891:
 3892:	  0B20	30 1C 41	   JNB	TM06E,TMR6_NOT_ENABLED
 3893:	  0B23	20 1D 47		JB	   TM06D,TM07_HANDLER
 3894:	  0B26	30 03 44		JNB   TEN_MSEC_BIT,TM07_HANDLER
 3895:
 3896:	  0B29	90 23 95		MOV   DPTR,#TMC06L
 3897:	  0B2C	E0		   MOVX  A,@DPTR
 3898:	  0B2D	C3			CLR   C
 3899:	  0B2E	24 01			ADD	A,#01

ASEM-51 V1.3                                        Copyright (c) 2002 by W.W. Heinz                                         PAGE 71



 Line  I  Addr  Code            Source

 3900:	  0B30	F0			MOVX	@DPTR,A
 3901:	  0B31	90 23 94	   MOV   DPTR,#TMC06H
 3902:	  0B34	E0		   MOVX  A,@DPTR
 3903:	  0B35	34 00		   ADDC 	A,#0
 3904:	  0B37	F0			MOVX	@DPTR,A
 3905:
 3906:	  0B38	90 23 94		MOV   DPTR,#TMC06H
 3907:	  0B3B	E0			MOVX  A,@DPTR
 3908:	  0B3C	F5 F0			MOV   B,A
 3909:	  0B3E	90 10 5C	   MOV   DPTR,#TMS06H
 3910:	  0B41	E0		   MOVX  A,@DPTR
 3911:	  0B42	B5 F0 02	   CJNE  A,B,CHK_TMC06H                    ;TMR00_NOT_DONE
 3912:	  0B45	80 04			SJMP  CHK_TMC06L
 3913:
 3914:	  0B47			   CHK_TMC06H:
 3915:
 3916:	  0B47	40 17		   JC	   SET_TMR06_DONE
 3917:	  0B49	50 11		   JNC   TMR06_NOT_DONE
 3918:
 3919:	  0B4B			   CHK_TMC06L:
 3920:
 3921:	  0B4B	90 23 95	   MOV   DPTR,#TMC06L
 3922:	  0B4E	E0		   MOVX	A,@DPTR                               ;A,TMC00L
 3923:	  0B4F	F5 F0			MOV   B,A
 3924:	  0B51	90 10 5D		MOV   DPTR,#TMS06L
 3925:	  0B54	E0			MOVX  A,@DPTR
 3926:	  0B55	B5 F0 02		CJNE  A,B,CHECK_CARRY_TM06
 3927:	  0B58	80 06			SJMP  SET_TMR06_DONE
 3928:
 3929:	  0B5A				CHECK_CARRY_TM06:
 3930:
 3931:	  0B5A	40 04			JC	   SET_TMR06_DONE
 3932:
 3933:	  0B5C			   TMR06_NOT_DONE:
 3934:
 3935:	  0B5C	C2 1D			CLR	TM06D
 3936:	  0B5E	80 0D			SJMP	TM07_HANDLER
 3937:
 3938:	  0B60			   SET_TMR06_DONE:
 3939:
 3940:	  0B60	D2 1D		   SETB	TM06D
 3941:	  0B62	80 09			SJMP	TM07_HANDLER
 3942:
 3943:	  0B64			   TMR6_NOT_ENABLED:
 3944:
 3945:	  0B64	C2 1D			CLR	TM06D
 3946:	  0B66	E4		   CLR   A
 3947:	  0B67	90 23 94	   MOV   DPTR,#TMC06H
 3948:	  0B6A	F0		   MOVX  @DPTR,A
 3949:	  0B6B	A3		   INC   DPTR
 3950:	  0B6C	F0		   MOVX  @DPTR,A
 3951:				;-------------------------------------------------------------------
 3952:	  0B6D			   TM07_HANDLER:
 3953:
 3954:	  0B6D	30 1E 41	   JNB	TM07E,TMR7_NOT_ENABLED
 3955:	  0B70	20 1F 47		JB	   TM07D,TM08_HANDLER

ASEM-51 V1.3                                        Copyright (c) 2002 by W.W. Heinz                                         PAGE 72



 Line  I  Addr  Code            Source

 3956:	  0B73	30 03 44		JNB   TEN_MSEC_BIT,TM08_HANDLER
 3957:
 3958:	  0B76	90 23 97		MOV   DPTR,#TMC07L
 3959:	  0B79	E0		   MOVX  A,@DPTR
 3960:	  0B7A	C3			CLR   C
 3961:	  0B7B	24 01			ADD	A,#01
 3962:	  0B7D	F0			MOVX	@DPTR,A
 3963:	  0B7E	90 23 96	   MOV   DPTR,#TMC07H
 3964:	  0B81	E0		   MOVX  A,@DPTR
 3965:	  0B82	34 00		   ADDC 	A,#0
 3966:	  0B84	F0			MOVX	@DPTR,A
 3967:
 3968:	  0B85	90 23 96		MOV   DPTR,#TMC07H
 3969:	  0B88	E0			MOVX  A,@DPTR
 3970:	  0B89	F5 F0			MOV   B,A
 3971:	  0B8B	90 10 5E	   MOV   DPTR,#TMS07H
 3972:	  0B8E	E0		   MOVX  A,@DPTR
 3973:	  0B8F	B5 F0 02	   CJNE  A,B,CHK_TMC07H                    ;TMR00_NOT_DONE
 3974:	  0B92	80 04			SJMP  CHK_TMC07L
 3975:
 3976:	  0B94			   CHK_TMC07H:
 3977:
 3978:	  0B94	40 17		   JC	   SET_TMR07_DONE
 3979:	  0B96	50 11		   JNC   TMR07_NOT_DONE
 3980:
 3981:	  0B98			   CHK_TMC07L:
 3982:
 3983:	  0B98	90 23 97	   MOV   DPTR,#TMC07L
 3984:	  0B9B	E0		   MOVX	A,@DPTR                               ;A,TMC00L
 3985:	  0B9C	F5 F0			MOV   B,A
 3986:	  0B9E	90 10 5F		MOV   DPTR,#TMS07L
 3987:	  0BA1	E0			MOVX  A,@DPTR
 3988:	  0BA2	B5 F0 02		CJNE  A,B,CHECK_CARRY_TM07
 3989:	  0BA5	80 06			SJMP  SET_TMR07_DONE
 3990:
 3991:	  0BA7				CHECK_CARRY_TM07:
 3992:
 3993:	  0BA7	40 04			JC	   SET_TMR07_DONE
 3994:
 3995:	  0BA9			   TMR07_NOT_DONE:
 3996:
 3997:	  0BA9	C2 1F			CLR	TM07D
 3998:	  0BAB	80 0D			SJMP	TM08_HANDLER
 3999:
 4000:	  0BAD			   SET_TMR07_DONE:
 4001:
 4002:	  0BAD	D2 1F		   SETB	TM07D
 4003:	  0BAF	80 09			SJMP	TM08_HANDLER
 4004:
 4005:	  0BB1			   TMR7_NOT_ENABLED:
 4006:
 4007:	  0BB1	C2 1F			CLR	TM07D
 4008:	  0BB3	E4		   CLR   A
 4009:	  0BB4	90 23 96	   MOV   DPTR,#TMC07H
 4010:	  0BB7	F0		   MOVX  @DPTR,A
 4011:	  0BB8	A3		   INC   DPTR

ASEM-51 V1.3                                        Copyright (c) 2002 by W.W. Heinz                                         PAGE 73



 Line  I  Addr  Code            Source

 4012:	  0BB9	F0		   MOVX  @DPTR,A
 4013:				;-------------------------------------------------------------------
 4014:	  0BBA			   TM08_HANDLER:
 4015:
 4016:
 4017:	  0BBA	30 20 41	   JNB	TM08E,TMR8_NOT_ENABLED
 4018:	  0BBD	20 21 47		JB	   TM08D,TM09_HANDLER
 4019:	  0BC0	30 03 44		JNB   TEN_MSEC_BIT,TM09_HANDLER
 4020:
 4021:	  0BC3	90 23 99		MOV   DPTR,#TMC08L
 4022:	  0BC6	E0		   MOVX  A,@DPTR
 4023:	  0BC7	C3			CLR   C
 4024:	  0BC8	24 01			ADD	A,#01
 4025:	  0BCA	F0			MOVX	@DPTR,A
 4026:	  0BCB	90 23 98	   MOV   DPTR,#TMC08H
 4027:	  0BCE	E0		   MOVX  A,@DPTR
 4028:	  0BCF	34 00		   ADDC 	A,#0
 4029:	  0BD1	F0			MOVX	@DPTR,A
 4030:
 4031:	  0BD2	90 23 98		MOV   DPTR,#TMC08H
 4032:	  0BD5	E0			MOVX  A,@DPTR
 4033:	  0BD6	F5 F0			MOV   B,A
 4034:	  0BD8	90 10 60	   MOV   DPTR,#TMS08H
 4035:	  0BDB	E0		   MOVX  A,@DPTR
 4036:	  0BDC	B5 F0 02	   CJNE  A,B,CHK_TMC08H                    ;TMR00_NOT_DONE
 4037:	  0BDF	80 04			SJMP  CHK_TMC08L
 4038:
 4039:	  0BE1			   CHK_TMC08H:
 4040:
 4041:	  0BE1	40 17		   JC	   SET_TMR08_DONE
 4042:	  0BE3	50 11		   JNC   TMR08_NOT_DONE
 4043:
 4044:	  0BE5			   CHK_TMC08L:
 4045:
 4046:	  0BE5	90 23 99	   MOV   DPTR,#TMC08L
 4047:	  0BE8	E0		   MOVX	A,@DPTR                               ;A,TMC00L
 4048:	  0BE9	F5 F0			MOV   B,A
 4049:	  0BEB	90 10 61		MOV   DPTR,#TMS08L
 4050:	  0BEE	E0			MOVX  A,@DPTR
 4051:	  0BEF	B5 F0 02		CJNE  A,B,CHECK_CARRY_TM08
 4052:	  0BF2	80 06			SJMP  SET_TMR08_DONE
 4053:
 4054:	  0BF4				CHECK_CARRY_TM08:
 4055:
 4056:	  0BF4	40 04			JC	   SET_TMR08_DONE
 4057:
 4058:	  0BF6			   TMR08_NOT_DONE:
 4059:
 4060:	  0BF6	C2 21			CLR	TM08D
 4061:	  0BF8	80 0D			SJMP	TM09_HANDLER
 4062:
 4063:	  0BFA			   SET_TMR08_DONE:
 4064:
 4065:	  0BFA	D2 21		   SETB	TM08D
 4066:	  0BFC	80 09			SJMP	TM09_HANDLER
 4067:

ASEM-51 V1.3                                        Copyright (c) 2002 by W.W. Heinz                                         PAGE 74



 Line  I  Addr  Code            Source

 4068:	  0BFE			   TMR8_NOT_ENABLED:
 4069:
 4070:	  0BFE	C2 21			CLR	TM08D
 4071:	  0C00	E4		   CLR   A
 4072:	  0C01	90 23 98	   MOV   DPTR,#TMC08H
 4073:	  0C04	F0		   MOVX  @DPTR,A
 4074:	  0C05	A3		   INC   DPTR
 4075:	  0C06	F0		   MOVX  @DPTR,A
 4076:				;--------------------------------------------------------------------
 4077:	  0C07			   TM09_HANDLER:
 4078:
 4079:
 4080:	  0C07	30 22 41	   JNB	TM09E,TMR9_NOT_ENABLED
 4081:	  0C0A	20 23 47		JB	   TM09D,TM10_HANDLER
 4082:	  0C0D	30 03 44		JNB   TEN_MSEC_BIT,TM10_HANDLER
 4083:
 4084:	  0C10	90 23 9B		MOV   DPTR,#TMC09L
 4085:	  0C13	E0		   MOVX  A,@DPTR
 4086:	  0C14	C3			CLR   C
 4087:	  0C15	24 01			ADD	A,#01
 4088:	  0C17	F0			MOVX	@DPTR,A
 4089:	  0C18	90 23 9A	   MOV   DPTR,#TMC09H
 4090:	  0C1B	E0		   MOVX  A,@DPTR
 4091:	  0C1C	34 00		   ADDC 	A,#0
 4092:	  0C1E	F0			MOVX	@DPTR,A
 4093:
 4094:	  0C1F	90 23 9A		MOV   DPTR,#TMC09H
 4095:	  0C22	E0			MOVX  A,@DPTR
 4096:	  0C23	F5 F0			MOV   B,A
 4097:	  0C25	90 10 62	   MOV   DPTR,#TMS09H
 4098:	  0C28	E0		   MOVX  A,@DPTR
 4099:	  0C29	B5 F0 02	   CJNE  A,B,CHK_TMC09H                    ;TMR00_NOT_DONE
 4100:	  0C2C	80 04			SJMP  CHK_TMC09L
 4101:
 4102:	  0C2E			   CHK_TMC09H:
 4103:
 4104:	  0C2E	40 17		   JC	   SET_TMR09_DONE
 4105:	  0C30	50 11		   JNC   TMR09_NOT_DONE
 4106:
 4107:	  0C32			   CHK_TMC09L:
 4108:
 4109:	  0C32	90 23 9B	   MOV   DPTR,#TMC09L
 4110:	  0C35	E0		   MOVX	A,@DPTR                               ;A,TMC00L
 4111:	  0C36	F5 F0			MOV   B,A
 4112:	  0C38	90 10 63		MOV   DPTR,#TMS09L
 4113:	  0C3B	E0			MOVX  A,@DPTR
 4114:	  0C3C	B5 F0 02		CJNE  A,B,CHECK_CARRY_TM09
 4115:	  0C3F	80 06			SJMP  SET_TMR09_DONE
 4116:
 4117:	  0C41				CHECK_CARRY_TM09:
 4118:
 4119:	  0C41	40 04			JC	   SET_TMR09_DONE
 4120:
 4121:	  0C43			   TMR09_NOT_DONE:
 4122:
 4123:	  0C43	C2 23			CLR	TM09D

ASEM-51 V1.3                                        Copyright (c) 2002 by W.W. Heinz                                         PAGE 75



 Line  I  Addr  Code            Source

 4124:	  0C45	80 0D			SJMP	TM10_HANDLER
 4125:
 4126:	  0C47			   SET_TMR09_DONE:
 4127:
 4128:	  0C47	D2 23		   SETB	TM09D
 4129:	  0C49	80 09			SJMP	TM10_HANDLER
 4130:
 4131:	  0C4B			   TMR9_NOT_ENABLED:
 4132:
 4133:	  0C4B	C2 23			CLR	TM09D
 4134:	  0C4D	E4		   CLR   A
 4135:	  0C4E	90 23 9A	   MOV   DPTR,#TMC09H
 4136:	  0C51	F0		   MOVX  @DPTR,A
 4137:	  0C52	A3		   INC   DPTR
 4138:	  0C53	F0		   MOVX  @DPTR,A
 4139:				;------------------------------------------------------------------
 4140:
 4141:	  0C54			   TM10_HANDLER:
 4142:
 4143:	  0C54	30 24 41	   JNB	TM10E,TMR10_NOT_ENABLED
 4144:	  0C57	20 25 47		JB	   TM10D,TM11_HANDLER
 4145:	  0C5A	30 03 44		JNB   TEN_MSEC_BIT,TM11_HANDLER
 4146:
 4147:	  0C5D	90 23 9D		MOV   DPTR,#TMC10L
 4148:	  0C60	E0		   MOVX  A,@DPTR
 4149:	  0C61	C3			CLR   C
 4150:	  0C62	24 01			ADD	A,#01
 4151:	  0C64	F0			MOVX	@DPTR,A
 4152:	  0C65	90 23 9C	   MOV   DPTR,#TMC10H
 4153:	  0C68	E0		   MOVX  A,@DPTR
 4154:	  0C69	34 00		   ADDC 	A,#0
 4155:	  0C6B	F0			MOVX	@DPTR,A
 4156:
 4157:	  0C6C	90 23 9C		MOV   DPTR,#TMC10H
 4158:	  0C6F	E0			MOVX  A,@DPTR
 4159:	  0C70	F5 F0			MOV   B,A
 4160:	  0C72	90 10 64	   MOV   DPTR,#TMS10H
 4161:	  0C75	E0		   MOVX  A,@DPTR
 4162:	  0C76	B5 F0 02	   CJNE  A,B,CHK_TMC10H                    ;TMR00_NOT_DONE
 4163:	  0C79	80 04			SJMP  CHK_TMC10L
 4164:
 4165:	  0C7B			   CHK_TMC10H:
 4166:
 4167:	  0C7B	40 17		   JC	   SET_TMR10_DONE
 4168:	  0C7D	50 11		   JNC   TMR10_NOT_DONE
 4169:
 4170:	  0C7F			   CHK_TMC10L:
 4171:
 4172:	  0C7F	90 23 9D	   MOV   DPTR,#TMC10L
 4173:	  0C82	E0		   MOVX	A,@DPTR                               ;A,TMC00L
 4174:	  0C83	F5 F0			MOV   B,A
 4175:	  0C85	90 10 65		MOV   DPTR,#TMS10L
 4176:	  0C88	E0			MOVX  A,@DPTR
 4177:	  0C89	B5 F0 02		CJNE  A,B,CHECK_CARRY_TM10
 4178:	  0C8C	80 06			SJMP  SET_TMR10_DONE
 4179:

ASEM-51 V1.3                                        Copyright (c) 2002 by W.W. Heinz                                         PAGE 76



 Line  I  Addr  Code            Source

 4180:	  0C8E				CHECK_CARRY_TM10:
 4181:
 4182:	  0C8E	40 04			JC	   SET_TMR10_DONE
 4183:
 4184:	  0C90			   TMR10_NOT_DONE:
 4185:
 4186:	  0C90	C2 25			CLR	TM10D
 4187:	  0C92	80 0D			SJMP	TM11_HANDLER
 4188:
 4189:	  0C94			   SET_TMR10_DONE:
 4190:
 4191:	  0C94	D2 25		   SETB	TM10D
 4192:	  0C96	80 09			SJMP	TM11_HANDLER
 4193:
 4194:	  0C98			   TMR10_NOT_ENABLED:
 4195:
 4196:	  0C98	C2 25			CLR	TM10D
 4197:	  0C9A	E4		   CLR   A
 4198:	  0C9B	90 23 9C	   MOV   DPTR,#TMC10H
 4199:	  0C9E	F0		   MOVX  @DPTR,A
 4200:	  0C9F	A3		   INC   DPTR
 4201:	  0CA0	F0		   MOVX  @DPTR,A
 4202:				;-------------------------------------------------------------------
 4203:	  0CA1			   TM11_HANDLER:
 4204:
 4205:	  0CA1	30 26 41	   JNB	TM11E,TMR11_NOT_ENABLED
 4206:	  0CA4	20 27 47		JB	   TM11D,TM12_HANDLER
 4207:	  0CA7	30 03 44		JNB   TEN_MSEC_BIT,TM12_HANDLER
 4208:
 4209:	  0CAA	90 23 9F		MOV   DPTR,#TMC11L
 4210:	  0CAD	E0		   MOVX  A,@DPTR
 4211:	  0CAE	C3			CLR   C
 4212:	  0CAF	24 01			ADD	A,#01
 4213:	  0CB1	F0			MOVX	@DPTR,A
 4214:	  0CB2	90 23 9E	   MOV   DPTR,#TMC11H
 4215:	  0CB5	E0		   MOVX  A,@DPTR
 4216:	  0CB6	34 00		   ADDC 	A,#0
 4217:	  0CB8	F0			MOVX	@DPTR,A
 4218:
 4219:	  0CB9	90 23 9E		MOV   DPTR,#TMC11H
 4220:	  0CBC	E0			MOVX  A,@DPTR
 4221:	  0CBD	F5 F0			MOV   B,A
 4222:	  0CBF	90 10 66	   MOV   DPTR,#TMS11H
 4223:	  0CC2	E0		   MOVX  A,@DPTR
 4224:	  0CC3	B5 F0 02	   CJNE  A,B,CHK_TMC11H                    ;TMR00_NOT_DONE
 4225:	  0CC6	80 04			SJMP  CHK_TMC11L
 4226:
 4227:	  0CC8			   CHK_TMC11H:
 4228:
 4229:	  0CC8	40 17		   JC	   SET_TMR11_DONE
 4230:	  0CCA	50 11		   JNC   TMR11_NOT_DONE
 4231:
 4232:	  0CCC			   CHK_TMC11L:
 4233:
 4234:	  0CCC	90 23 9F	   MOV   DPTR,#TMC11L
 4235:	  0CCF	E0		   MOVX	A,@DPTR                               ;A,TMC00L

ASEM-51 V1.3                                        Copyright (c) 2002 by W.W. Heinz                                         PAGE 77



 Line  I  Addr  Code            Source

 4236:	  0CD0	F5 F0			MOV   B,A
 4237:	  0CD2	90 10 67		MOV   DPTR,#TMS11L
 4238:	  0CD5	E0			MOVX  A,@DPTR
 4239:	  0CD6	B5 F0 02		CJNE  A,B,CHECK_CARRY_TM11
 4240:	  0CD9	80 06			SJMP  SET_TMR11_DONE
 4241:
 4242:	  0CDB				CHECK_CARRY_TM11:
 4243:
 4244:	  0CDB	40 04			JC	   SET_TMR11_DONE
 4245:
 4246:	  0CDD			   TMR11_NOT_DONE:
 4247:
 4248:	  0CDD	C2 27			CLR	TM11D
 4249:	  0CDF	80 0D			SJMP	TM12_HANDLER
 4250:
 4251:	  0CE1			   SET_TMR11_DONE:
 4252:
 4253:	  0CE1	D2 27		   SETB	TM11D
 4254:	  0CE3	80 09			SJMP	TM12_HANDLER
 4255:
 4256:	  0CE5			   TMR11_NOT_ENABLED:
 4257:
 4258:	  0CE5	C2 27			CLR	TM11D
 4259:	  0CE7	E4		   CLR   A
 4260:	  0CE8	90 23 9E	   MOV   DPTR,#TMC11H
 4261:	  0CEB	F0		   MOVX  @DPTR,A
 4262:	  0CEC	A3		   INC   DPTR
 4263:	  0CED	F0		   MOVX  @DPTR,A
 4264:				;-------------------------------------------------------------------
 4265:	  0CEE			   TM12_HANDLER:
 4266:
 4267:	  0CEE	30 28 41	   JNB	TM12E,TMR12_NOT_ENABLED
 4268:	  0CF1	20 29 47		JB	   TM12D,TM13_HANDLER
 4269:	  0CF4	30 03 44		JNB   TEN_MSEC_BIT,TM13_HANDLER
 4270:
 4271:	  0CF7	90 23 A1		MOV   DPTR,#TMC12L
 4272:	  0CFA	E0		   MOVX  A,@DPTR
 4273:	  0CFB	C3			CLR   C
 4274:	  0CFC	24 01			ADD	A,#01
 4275:	  0CFE	F0			MOVX	@DPTR,A
 4276:	  0CFF	90 23 A0	   MOV   DPTR,#TMC12H
 4277:	  0D02	E0		   MOVX  A,@DPTR
 4278:	  0D03	34 00		   ADDC 	A,#0
 4279:	  0D05	F0			MOVX	@DPTR,A
 4280:
 4281:	  0D06	90 23 A0		MOV   DPTR,#TMC12H
 4282:	  0D09	E0			MOVX  A,@DPTR
 4283:	  0D0A	F5 F0			MOV   B,A
 4284:	  0D0C	90 10 68	   MOV   DPTR,#TMS12H
 4285:	  0D0F	E0		   MOVX  A,@DPTR
 4286:	  0D10	B5 F0 02	   CJNE  A,B,CHK_TMC12H                    ;TMR00_NOT_DONE
 4287:	  0D13	80 04			SJMP  CHK_TMC12L
 4288:
 4289:	  0D15			   CHK_TMC12H:
 4290:
 4291:	  0D15	40 17		   JC	   SET_TMR12_DONE

ASEM-51 V1.3                                        Copyright (c) 2002 by W.W. Heinz                                         PAGE 78



 Line  I  Addr  Code            Source

 4292:	  0D17	50 11		   JNC   TMR12_NOT_DONE
 4293:
 4294:	  0D19			   CHK_TMC12L:
 4295:
 4296:	  0D19	90 23 A1	   MOV   DPTR,#TMC12L
 4297:	  0D1C	E0		   MOVX	A,@DPTR                               ;A,TMC00L
 4298:	  0D1D	F5 F0			MOV   B,A
 4299:	  0D1F	90 10 69		MOV   DPTR,#TMS12L
 4300:	  0D22	E0			MOVX  A,@DPTR
 4301:	  0D23	B5 F0 02		CJNE  A,B,CHECK_CARRY_TM12
 4302:	  0D26	80 06			SJMP  SET_TMR12_DONE
 4303:
 4304:	  0D28				CHECK_CARRY_TM12:
 4305:
 4306:	  0D28	40 04			JC	   SET_TMR12_DONE
 4307:
 4308:	  0D2A			   TMR12_NOT_DONE:
 4309:
 4310:	  0D2A	C2 29			CLR	TM12D
 4311:	  0D2C	80 0D			SJMP	TM13_HANDLER
 4312:
 4313:	  0D2E			   SET_TMR12_DONE:
 4314:
 4315:	  0D2E	D2 29		   SETB	TM12D
 4316:	  0D30	80 09			SJMP	TM13_HANDLER
 4317:
 4318:	  0D32			   TMR12_NOT_ENABLED:
 4319:
 4320:	  0D32	C2 29			CLR	TM12D
 4321:	  0D34	E4		   CLR   A
 4322:	  0D35	90 23 A0	   MOV   DPTR,#TMC12H
 4323:	  0D38	F0		   MOVX  @DPTR,A
 4324:	  0D39	A3		   INC   DPTR
 4325:	  0D3A	F0		   MOVX  @DPTR,A
 4326:
 4327:
 4328:				;--------------------------------------------------------------------
 4329:	  0D3B			   TM13_HANDLER:
 4330:
 4331:	  0D3B	30 2A 41	   JNB	TM13E,TMR13_NOT_ENABLED
 4332:	  0D3E	20 2B 47		JB	   TM13D,TM14_HANDLER
 4333:	  0D41	30 03 44		JNB   TEN_MSEC_BIT,TM14_HANDLER
 4334:
 4335:	  0D44	90 23 A3		MOV   DPTR,#TMC13L
 4336:	  0D47	E0		   MOVX  A,@DPTR
 4337:	  0D48	C3			CLR   C
 4338:	  0D49	24 01			ADD	A,#01
 4339:	  0D4B	F0			MOVX	@DPTR,A
 4340:	  0D4C	90 23 A2	   MOV   DPTR,#TMC13H
 4341:	  0D4F	E0		   MOVX  A,@DPTR
 4342:	  0D50	34 00		   ADDC 	A,#0
 4343:	  0D52	F0			MOVX	@DPTR,A
 4344:
 4345:	  0D53	90 23 A2		MOV   DPTR,#TMC13H
 4346:	  0D56	E0			MOVX  A,@DPTR
 4347:	  0D57	F5 F0			MOV   B,A

ASEM-51 V1.3                                        Copyright (c) 2002 by W.W. Heinz                                         PAGE 79



 Line  I  Addr  Code            Source

 4348:	  0D59	90 10 6A	   MOV   DPTR,#TMS13H
 4349:	  0D5C	E0		   MOVX  A,@DPTR
 4350:	  0D5D	B5 F0 02	   CJNE  A,B,CHK_TMC13H                    ;TMR00_NOT_DONE
 4351:	  0D60	80 04			SJMP  CHK_TMC13L
 4352:
 4353:	  0D62			   CHK_TMC13H:
 4354:
 4355:	  0D62	40 17		   JC	   SET_TMR13_DONE
 4356:	  0D64	50 11		   JNC   TMR13_NOT_DONE
 4357:
 4358:	  0D66			   CHK_TMC13L:
 4359:
 4360:	  0D66	90 23 A3	   MOV   DPTR,#TMC13L
 4361:	  0D69	E0		   MOVX	A,@DPTR                               ;A,TMC00L
 4362:	  0D6A	F5 F0			MOV   B,A
 4363:	  0D6C	90 10 6B		MOV   DPTR,#TMS13L
 4364:	  0D6F	E0			MOVX  A,@DPTR
 4365:	  0D70	B5 F0 02		CJNE  A,B,CHECK_CARRY_TM13
 4366:	  0D73	80 06			SJMP  SET_TMR13_DONE
 4367:
 4368:	  0D75				CHECK_CARRY_TM13:
 4369:
 4370:	  0D75	40 04			JC	   SET_TMR13_DONE
 4371:
 4372:	  0D77			   TMR13_NOT_DONE:
 4373:
 4374:	  0D77	C2 2B			CLR	TM13D
 4375:	  0D79	80 0D			SJMP	TM14_HANDLER
 4376:
 4377:	  0D7B			   SET_TMR13_DONE:
 4378:
 4379:	  0D7B	D2 2B		   SETB	TM13D
 4380:	  0D7D	80 09			SJMP	TM14_HANDLER
 4381:
 4382:	  0D7F			   TMR13_NOT_ENABLED:
 4383:
 4384:	  0D7F	C2 2B			CLR	TM13D
 4385:	  0D81	E4		   CLR   A
 4386:	  0D82	90 23 A2	   MOV   DPTR,#TMC13H
 4387:	  0D85	F0		   MOVX  @DPTR,A
 4388:	  0D86	A3		   INC   DPTR
 4389:	  0D87	F0		   MOVX  @DPTR,A
 4390:				;------------------------------------------------------------------------------
 4391:	  0D88			   TM14_HANDLER:
 4392:
 4393:	  0D88	30 2C 41	   JNB	TM14E,TMR14_NOT_ENABLED
 4394:	  0D8B	20 2D 47		JB	   TM14D,TM15_HANDLER
 4395:	  0D8E	30 03 44		JNB   TEN_MSEC_BIT,TM15_HANDLER
 4396:
 4397:	  0D91	90 23 A5		MOV   DPTR,#TMC14L
 4398:	  0D94	E0		   MOVX  A,@DPTR
 4399:	  0D95	C3			CLR   C
 4400:	  0D96	24 01			ADD	A,#01
 4401:	  0D98	F0			MOVX	@DPTR,A
 4402:	  0D99	90 23 A4	   MOV   DPTR,#TMC14H
 4403:	  0D9C	E0		   MOVX  A,@DPTR

ASEM-51 V1.3                                        Copyright (c) 2002 by W.W. Heinz                                         PAGE 80



 Line  I  Addr  Code            Source

 4404:	  0D9D	34 00		   ADDC 	A,#0
 4405:	  0D9F	F0			MOVX	@DPTR,A
 4406:
 4407:	  0DA0	90 23 A4		MOV   DPTR,#TMC14H
 4408:	  0DA3	E0			MOVX  A,@DPTR
 4409:	  0DA4	F5 F0			MOV   B,A
 4410:	  0DA6	90 10 6C	   MOV   DPTR,#TMS14H
 4411:	  0DA9	E0		   MOVX  A,@DPTR
 4412:	  0DAA	B5 F0 02	   CJNE  A,B,CHK_TMC14H                    ;TMR00_NOT_DONE
 4413:	  0DAD	80 04			SJMP  CHK_TMC14L
 4414:
 4415:	  0DAF			   CHK_TMC14H:
 4416:
 4417:	  0DAF	40 17		   JC	   SET_TMR14_DONE
 4418:	  0DB1	50 11		   JNC   TMR14_NOT_DONE
 4419:
 4420:	  0DB3			   CHK_TMC14L:
 4421:
 4422:	  0DB3	90 23 A5	   MOV   DPTR,#TMC14L
 4423:	  0DB6	E0		   MOVX	A,@DPTR                               ;A,TMC00L
 4424:	  0DB7	F5 F0			MOV   B,A
 4425:	  0DB9	90 10 6D		MOV   DPTR,#TMS14L
 4426:	  0DBC	E0			MOVX  A,@DPTR
 4427:	  0DBD	B5 F0 02		CJNE  A,B,CHECK_CARRY_TM14
 4428:	  0DC0	80 06			SJMP  SET_TMR14_DONE
 4429:
 4430:	  0DC2				CHECK_CARRY_TM14:
 4431:
 4432:	  0DC2	40 04			JC	   SET_TMR14_DONE
 4433:
 4434:	  0DC4			   TMR14_NOT_DONE:
 4435:
 4436:	  0DC4	C2 2D			CLR	TM14D
 4437:	  0DC6	80 0D			SJMP	TM15_HANDLER
 4438:
 4439:	  0DC8			   SET_TMR14_DONE:
 4440:
 4441:	  0DC8	D2 2D		   SETB	TM14D
 4442:	  0DCA	80 09			SJMP	TM15_HANDLER
 4443:
 4444:	  0DCC			   TMR14_NOT_ENABLED:
 4445:
 4446:	  0DCC	C2 2D			CLR	TM14D
 4447:	  0DCE	E4		   CLR   A
 4448:	  0DCF	90 23 A4	   MOV   DPTR,#TMC14H
 4449:	  0DD2	F0		   MOVX  @DPTR,A
 4450:	  0DD3	A3		   INC   DPTR
 4451:	  0DD4	F0		   MOVX  @DPTR,A
 4452:				;--------------------------------------------------------------------
 4453:	  0DD5			   TM15_HANDLER:
 4454:
 4455:	  0DD5	30 2E 41	   JNB	TM15E,TMR15_NOT_ENABLED
 4456:	  0DD8	20 2F 47		JB	   TM15D,TM16_HANDLER
 4457:	  0DDB	30 03 44		JNB   TEN_MSEC_BIT,TM16_HANDLER
 4458:
 4459:

ASEM-51 V1.3                                        Copyright (c) 2002 by W.W. Heinz                                         PAGE 81



 Line  I  Addr  Code            Source

 4460:	  0DDE	90 23 A7		MOV   DPTR,#TMC15L
 4461:	  0DE1	E0		   MOVX  A,@DPTR
 4462:	  0DE2	C3			CLR   C
 4463:	  0DE3	24 01			ADD	A,#01
 4464:	  0DE5	F0			MOVX	@DPTR,A
 4465:	  0DE6	90 23 A6	   MOV   DPTR,#TMC15H
 4466:	  0DE9	E0		   MOVX  A,@DPTR
 4467:	  0DEA	34 00		   ADDC 	A,#0
 4468:	  0DEC	F0			MOVX	@DPTR,A
 4469:
 4470:	  0DED	90 23 A6		MOV   DPTR,#TMC15H
 4471:	  0DF0	E0			MOVX  A,@DPTR
 4472:	  0DF1	F5 F0			MOV   B,A
 4473:	  0DF3	90 10 6E	   MOV   DPTR,#TMS15H
 4474:	  0DF6	E0		   MOVX  A,@DPTR
 4475:	  0DF7	B5 F0 02	   CJNE  A,B,CHK_TMC15H                    ;TMR00_NOT_DONE
 4476:	  0DFA	80 04			SJMP  CHK_TMC15L
 4477:
 4478:	  0DFC			   CHK_TMC15H:
 4479:
 4480:	  0DFC	40 17		   JC	   SET_TMR15_DONE
 4481:	  0DFE	50 11		   JNC   TMR15_NOT_DONE
 4482:
 4483:	  0E00			   CHK_TMC15L:
 4484:
 4485:	  0E00	90 23 A7	   MOV   DPTR,#TMC15L
 4486:	  0E03	E0		   MOVX	A,@DPTR                               ;A,TMC00L
 4487:	  0E04	F5 F0			MOV   B,A
 4488:	  0E06	90 10 6F		MOV   DPTR,#TMS15L
 4489:	  0E09	E0			MOVX  A,@DPTR
 4490:	  0E0A	B5 F0 02		CJNE  A,B,CHECK_CARRY_TM15
 4491:	  0E0D	80 06			SJMP  SET_TMR15_DONE
 4492:
 4493:	  0E0F				CHECK_CARRY_TM15:
 4494:
 4495:	  0E0F	40 04			JC	   SET_TMR15_DONE
 4496:
 4497:	  0E11			   TMR15_NOT_DONE:
 4498:
 4499:	  0E11	C2 2F			CLR	TM15D
 4500:	  0E13	80 0D			SJMP	TM16_HANDLER
 4501:
 4502:	  0E15			   SET_TMR15_DONE:
 4503:
 4504:	  0E15	D2 2F		   SETB	TM15D
 4505:	  0E17	80 09			SJMP	TM16_HANDLER
 4506:
 4507:	  0E19			   TMR15_NOT_ENABLED:
 4508:
 4509:	  0E19	C2 2F			CLR	TM15D
 4510:	  0E1B	E4		   CLR   A
 4511:	  0E1C	90 23 A6	   MOV   DPTR,#TMC15H
 4512:	  0E1F	F0		   MOVX  @DPTR,A
 4513:	  0E20	A3		   INC   DPTR
 4514:	  0E21	F0		   MOVX  @DPTR,A
 4515:				;---------------------------------------------------------------------

ASEM-51 V1.3                                        Copyright (c) 2002 by W.W. Heinz                                         PAGE 82



 Line  I  Addr  Code            Source

 4516:	  0E22			   TM16_HANDLER:
 4517:
 4518:	  0E22	30 30 14	   JNB	TM16E,TMR16_NOT_ENABLED
 4519:				;	JB	   TM16D,TM17_HANDLER
 4520:	  0E25	30 03 1A		JNB   TEN_MSEC_BIT,TM17_HANDLER
 4521:
 4522:	  0E28	90 23 A9		MOV   DPTR,#TMC16L
 4523:	  0E2B	E0		   MOVX  A,@DPTR
 4524:	  0E2C	C3			CLR   C
 4525:	  0E2D	24 01			ADD	A,#01
 4526:	  0E2F	F0			MOVX	@DPTR,A
 4527:	  0E30	90 23 A8	   MOV   DPTR,#TMC16H
 4528:	  0E33	E0		   MOVX  A,@DPTR
 4529:	  0E34	34 00		   ADDC 	A,#0
 4530:	  0E36	F0			MOVX	@DPTR,A
 4531:	  0E37	80 09			SJMP  TM17_HANDLER
 4532:				;	MOV   DPTR,#TMC16H
 4533:				;	MOVX  A,@DPTR
 4534:				;	MOV   B,A
 4535:				;   MOV   DPTR,#TMS16H
 4536:				;   MOVX  A,@DPTR
 4537:				;   CJNE  A,B,CHK_TMC16H                    ;TMR00_NOT_DONE
 4538:				;	SJMP  CHK_TMC16L
 4539:
 4540:	  0E39			   CHK_TMC16H:
 4541:
 4542:				 ;  JC	   SET_TMR16_DONE
 4543:				 ;  JNC   TMR16_NOT_DONE
 4544:
 4545:	  0E39			   CHK_TMC16L:
 4546:
 4547:				  ; MOV   DPTR,#TMC16L
 4548:				  ; MOVX	A,@DPTR                               ;A,TMC00L
 4549:				;	MOV   B,A
 4550:				;	MOV   DPTR,#TMS16L
 4551:				;	MOVX  A,@DPTR
 4552:				;	CJNE  A,B,CHECK_CARRY_TM16
 4553:				;	SJMP  SET_TMR16_DONE
 4554:
 4555:	  0E39				CHECK_CARRY_TM16:
 4556:
 4557:				;	JC	   SET_TMR16_DONE
 4558:
 4559:	  0E39			   TMR16_NOT_DONE:
 4560:
 4561:				;	CLR	TM16D
 4562:				;	SJMP	TM17_HANDLER
 4563:
 4564:	  0E39			   SET_TMR16_DONE:
 4565:
 4566:				;   SETB	TM16D
 4567:				;	SJMP	TM17_HANDLER
 4568:
 4569:	  0E39			   TMR16_NOT_ENABLED:
 4570:
 4571:	  0E39	C2 31			CLR	TM16D

ASEM-51 V1.3                                        Copyright (c) 2002 by W.W. Heinz                                         PAGE 83



 Line  I  Addr  Code            Source

 4572:	  0E3B	E4		   CLR   A
 4573:	  0E3C	90 23 A8	   MOV   DPTR,#TMC16H
 4574:	  0E3F	F0		   MOVX  @DPTR,A
 4575:	  0E40	A3		   INC   DPTR
 4576:	  0E41	F0		   MOVX  @DPTR,A
 4577:
 4578:				;---------------------------------------------------------------------
 4579:	  0E42			   TM17_HANDLER:
 4580:
 4581:	  0E42	30 32 41	   JNB	TM17E,TMR17_NOT_ENABLED
 4582:	  0E45	20 33 47		JB	   TM17D,TM18_HANDLER
 4583:	  0E48	30 03 44		JNB   TEN_MSEC_BIT,TM18_HANDLER
 4584:
 4585:	  0E4B	90 23 AB		MOV   DPTR,#TMC17L
 4586:	  0E4E	E0		   MOVX  A,@DPTR
 4587:	  0E4F	C3			CLR   C
 4588:	  0E50	24 01			ADD	A,#01
 4589:	  0E52	F0			MOVX	@DPTR,A
 4590:	  0E53	90 23 AA	   MOV   DPTR,#TMC17H
 4591:	  0E56	E0		   MOVX  A,@DPTR
 4592:	  0E57	34 00		   ADDC 	A,#0
 4593:	  0E59	F0			MOVX	@DPTR,A
 4594:
 4595:	  0E5A	90 23 AA		MOV   DPTR,#TMC17H
 4596:	  0E5D	E0			MOVX  A,@DPTR
 4597:	  0E5E	F5 F0			MOV   B,A
 4598:	  0E60	90 10 72	   MOV   DPTR,#TMS17H
 4599:	  0E63	E0		   MOVX  A,@DPTR
 4600:	  0E64	B5 F0 02	   CJNE  A,B,CHK_TMC17H                    ;TMR00_NOT_DONE
 4601:	  0E67	80 04			SJMP  CHK_TMC17L
 4602:
 4603:	  0E69			   CHK_TMC17H:
 4604:
 4605:	  0E69	40 17		   JC	   SET_TMR17_DONE
 4606:	  0E6B	50 11		   JNC   TMR17_NOT_DONE
 4607:
 4608:	  0E6D			   CHK_TMC17L:
 4609:
 4610:	  0E6D	90 23 AB	   MOV   DPTR,#TMC17L
 4611:	  0E70	E0		   MOVX	A,@DPTR                               ;A,TMC00L
 4612:	  0E71	F5 F0			MOV   B,A
 4613:	  0E73	90 10 73		MOV   DPTR,#TMS17L
 4614:	  0E76	E0			MOVX  A,@DPTR
 4615:	  0E77	B5 F0 02		CJNE  A,B,CHECK_CARRY_TM17
 4616:	  0E7A	80 06			SJMP  SET_TMR17_DONE
 4617:
 4618:	  0E7C				CHECK_CARRY_TM17:
 4619:
 4620:	  0E7C	40 04			JC	   SET_TMR17_DONE
 4621:
 4622:	  0E7E			   TMR17_NOT_DONE:
 4623:
 4624:	  0E7E	C2 33			CLR	TM17D
 4625:	  0E80	80 0D			SJMP	TM18_HANDLER
 4626:
 4627:	  0E82			   SET_TMR17_DONE:

ASEM-51 V1.3                                        Copyright (c) 2002 by W.W. Heinz                                         PAGE 84



 Line  I  Addr  Code            Source

 4628:
 4629:	  0E82	D2 33		   SETB	TM17D
 4630:	  0E84	80 09			SJMP	TM18_HANDLER
 4631:
 4632:	  0E86			   TMR17_NOT_ENABLED:
 4633:
 4634:	  0E86	C2 33			CLR	TM17D
 4635:	  0E88	E4		   CLR   A
 4636:	  0E89	90 23 AA	   MOV   DPTR,#TMC17H
 4637:	  0E8C	F0		   MOVX  @DPTR,A
 4638:	  0E8D	A3		   INC   DPTR
 4639:	  0E8E	F0		   MOVX  @DPTR,A
 4640:
 4641:
 4642:
 4643:
 4644:				;---------------------------------------------------------------------
 4645:	  0E8F			   TM18_HANDLER:
 4646:
 4647:	  0E8F	30 34 41	   JNB	TM18E,TMR18_NOT_ENABLED
 4648:	  0E92	20 35 47		JB	   TM18D,TM19_HANDLER
 4649:	  0E95	30 03 44		JNB   TEN_MSEC_BIT,TM19_HANDLER
 4650:
 4651:	  0E98	90 23 AD		MOV   DPTR,#TMC18L
 4652:	  0E9B	E0		   MOVX  A,@DPTR
 4653:	  0E9C	C3			CLR   C
 4654:	  0E9D	24 01			ADD	A,#01
 4655:	  0E9F	F0			MOVX	@DPTR,A
 4656:	  0EA0	90 23 AC	   MOV   DPTR,#TMC18H
 4657:	  0EA3	E0		   MOVX  A,@DPTR
 4658:	  0EA4	34 00		   ADDC 	A,#0
 4659:	  0EA6	F0			MOVX	@DPTR,A
 4660:
 4661:	  0EA7	90 23 AC		MOV   DPTR,#TMC18H
 4662:	  0EAA	E0			MOVX  A,@DPTR
 4663:	  0EAB	F5 F0			MOV   B,A
 4664:	  0EAD	90 10 74	   MOV   DPTR,#TMS18H
 4665:	  0EB0	E0		   MOVX  A,@DPTR
 4666:	  0EB1	B5 F0 02	   CJNE  A,B,CHK_TMC18H                    ;TMR00_NOT_DONE
 4667:	  0EB4	80 04			SJMP  CHK_TMC18L
 4668:
 4669:	  0EB6			   CHK_TMC18H:
 4670:
 4671:	  0EB6	40 17		   JC	   SET_TMR18_DONE
 4672:	  0EB8	50 11		   JNC   TMR18_NOT_DONE
 4673:
 4674:	  0EBA			   CHK_TMC18L:
 4675:
 4676:	  0EBA	90 23 AD	   MOV   DPTR,#TMC18L
 4677:	  0EBD	E0		   MOVX	A,@DPTR                               ;A,TMC00L
 4678:	  0EBE	F5 F0			MOV   B,A
 4679:	  0EC0	90 10 75		MOV   DPTR,#TMS18L
 4680:	  0EC3	E0			MOVX  A,@DPTR
 4681:	  0EC4	B5 F0 02		CJNE  A,B,CHECK_CARRY_TM18
 4682:	  0EC7	80 06			SJMP  SET_TMR18_DONE
 4683:

ASEM-51 V1.3                                        Copyright (c) 2002 by W.W. Heinz                                         PAGE 85



 Line  I  Addr  Code            Source

 4684:	  0EC9				CHECK_CARRY_TM18:
 4685:
 4686:	  0EC9	40 04			JC	   SET_TMR18_DONE
 4687:
 4688:	  0ECB			   TMR18_NOT_DONE:
 4689:
 4690:	  0ECB	C2 35			CLR	TM18D
 4691:	  0ECD	80 0D			SJMP	TM19_HANDLER
 4692:
 4693:	  0ECF			   SET_TMR18_DONE:
 4694:
 4695:	  0ECF	D2 35		   SETB	TM18D
 4696:	  0ED1	80 09			SJMP	TM19_HANDLER
 4697:
 4698:	  0ED3			   TMR18_NOT_ENABLED:
 4699:
 4700:	  0ED3	C2 35			CLR	TM18D
 4701:	  0ED5	E4		   CLR   A
 4702:	  0ED6	90 23 AC	   MOV   DPTR,#TMC18H
 4703:	  0ED9	F0		   MOVX  @DPTR,A
 4704:	  0EDA	A3		   INC   DPTR
 4705:	  0EDB	F0		   MOVX  @DPTR,A
 4706:
 4707:
 4708:
 4709:
 4710:				;-----------------------------------------------------------
 4711:				;TEMPERATURE TIMERS
 4712:				;----------------------------------------------------------
 4713:
 4714:	  0EDC			   TM19_HANDLER:
 4715:
 4716:	  0EDC	30 36 41	   JNB	TM19E,TMR19_NOT_ENABLED
 4717:	  0EDF	20 37 47		JB	   TM19D,TM100_HANDLER
 4718:	  0EE2	30 03 44		JNB   TEN_MSEC_BIT,TM100_HANDLER
 4719:
 4720:	  0EE5	90 23 AF		MOV   DPTR,#TMC19L
 4721:	  0EE8	E0		   MOVX  A,@DPTR
 4722:	  0EE9	C3			CLR   C
 4723:	  0EEA	24 01			ADD	A,#01
 4724:	  0EEC	F0			MOVX	@DPTR,A
 4725:	  0EED	90 23 AE	   MOV   DPTR,#TMC19H
 4726:	  0EF0	E0		   MOVX  A,@DPTR
 4727:	  0EF1	34 00		   ADDC 	A,#0
 4728:	  0EF3	F0			MOVX	@DPTR,A
 4729:
 4730:	  0EF4	90 23 AE		MOV   DPTR,#TMC19H
 4731:	  0EF7	E0			MOVX  A,@DPTR
 4732:	  0EF8	F5 F0			MOV   B,A
 4733:	  0EFA	90 10 76	   MOV   DPTR,#TMS19H
 4734:	  0EFD	E0		   MOVX  A,@DPTR
 4735:	  0EFE	B5 F0 02	   CJNE  A,B,CHK_TMC19H                    ;TMR00_NOT_DONE
 4736:	  0F01	80 04			SJMP  CHK_TMC19L
 4737:
 4738:	  0F03			   CHK_TMC19H:
 4739:

ASEM-51 V1.3                                        Copyright (c) 2002 by W.W. Heinz                                         PAGE 86



 Line  I  Addr  Code            Source

 4740:	  0F03	40 17		   JC	   SET_TMR19_DONE
 4741:	  0F05	50 11		   JNC   TMR19_NOT_DONE
 4742:
 4743:	  0F07			   CHK_TMC19L:
 4744:
 4745:	  0F07	90 23 AF	   MOV   DPTR,#TMC19L
 4746:	  0F0A	E0		   MOVX	A,@DPTR                               ;A,TMC00L
 4747:	  0F0B	F5 F0			MOV   B,A
 4748:	  0F0D	90 10 77		MOV   DPTR,#TMS19L
 4749:	  0F10	E0			MOVX  A,@DPTR
 4750:	  0F11	B5 F0 02		CJNE  A,B,CHECK_CARRY_TM19
 4751:	  0F14	80 06			SJMP  SET_TMR19_DONE
 4752:
 4753:	  0F16				CHECK_CARRY_TM19:
 4754:
 4755:	  0F16	40 04			JC	   SET_TMR19_DONE
 4756:
 4757:	  0F18			   TMR19_NOT_DONE:
 4758:
 4759:	  0F18	C2 37			CLR	TM19D
 4760:	  0F1A	80 0D			SJMP	TM100_HANDLER
 4761:
 4762:	  0F1C			   SET_TMR19_DONE:
 4763:
 4764:	  0F1C	D2 37		   SETB	TM19D
 4765:	  0F1E	80 09			SJMP	TM100_HANDLER
 4766:
 4767:	  0F20			   TMR19_NOT_ENABLED:
 4768:
 4769:	  0F20	C2 37			CLR	TM19D
 4770:	  0F22	E4		   CLR   A
 4771:	  0F23	90 23 AE	   MOV   DPTR,#TMC19H
 4772:	  0F26	F0		   MOVX  @DPTR,A
 4773:	  0F27	A3		   INC   DPTR
 4774:	  0F28	F0		   MOVX  @DPTR,A
 4775:				;-------------------------------------------------------------------
 4776:
 4777:	  0F29			   TM100_HANDLER:
 4778:
 4779:	  0F29	30 40 41	   JNB	TM100E,TMR100_NOT_ENABLED
 4780:	  0F2C	20 41 47		JB	   TM100D,TM101_HANDLER
 4781:	  0F2F	30 03 44		JNB   TEN_MSEC_BIT,TM101_HANDLER
 4782:
 4783:	  0F32	90 24 B7		MOV   DPTR,#TMC100L
 4784:	  0F35	E0		   MOVX  A,@DPTR
 4785:	  0F36	C3			CLR   C
 4786:	  0F37	24 01			ADD	A,#01
 4787:	  0F39	F0			MOVX	@DPTR,A
 4788:	  0F3A	90 24 B6	   MOV   DPTR,#TMC100H
 4789:	  0F3D	E0		   MOVX  A,@DPTR
 4790:	  0F3E	34 00		   ADDC 	A,#0
 4791:	  0F40	F0			MOVX	@DPTR,A
 4792:
 4793:	  0F41	90 24 B6		MOV   DPTR,#TMC100H
 4794:	  0F44	E0			MOVX  A,@DPTR
 4795:	  0F45	F5 F0			MOV   B,A

ASEM-51 V1.3                                        Copyright (c) 2002 by W.W. Heinz                                         PAGE 87



 Line  I  Addr  Code            Source

 4796:	  0F47	90 10 78	   MOV   DPTR,#TMS100H
 4797:	  0F4A	E0		   MOVX  A,@DPTR
 4798:	  0F4B	B5 F0 02	   CJNE  A,B,CHK_TMC100H                    ;TMR00_NOT_DONE
 4799:	  0F4E	80 04			SJMP  CHK_TMC100L
 4800:
 4801:	  0F50			   CHK_TMC100H:
 4802:
 4803:	  0F50	40 17		   JC	   SET_TMR100_DONE
 4804:	  0F52	50 11		   JNC   TMR100_NOT_DONE
 4805:
 4806:	  0F54			   CHK_TMC100L:
 4807:
 4808:	  0F54	90 24 B7	   MOV   DPTR,#TMC100L
 4809:	  0F57	E0		   MOVX	A,@DPTR                               ;A,TMC00L
 4810:	  0F58	F5 F0			MOV   B,A
 4811:	  0F5A	90 10 79		MOV   DPTR,#TMS100L
 4812:	  0F5D	E0			MOVX  A,@DPTR
 4813:	  0F5E	B5 F0 02		CJNE  A,B,CHECK_CARRY_TM100
 4814:	  0F61	80 06			SJMP  SET_TMR100_DONE
 4815:
 4816:	  0F63				CHECK_CARRY_TM100:
 4817:
 4818:	  0F63	40 04			JC	   SET_TMR100_DONE
 4819:
 4820:	  0F65			   TMR100_NOT_DONE:
 4821:
 4822:	  0F65	C2 41			CLR	TM100D
 4823:	  0F67	80 0D			SJMP	TM101_HANDLER
 4824:
 4825:	  0F69			   SET_TMR100_DONE:
 4826:
 4827:	  0F69	D2 41		   SETB	TM100D
 4828:	  0F6B	80 09			SJMP	TM101_HANDLER
 4829:
 4830:	  0F6D			   TMR100_NOT_ENABLED:
 4831:
 4832:	  0F6D	C2 41			CLR	TM100D
 4833:	  0F6F	E4		   CLR   A
 4834:	  0F70	90 24 B6	   MOV   DPTR,#TMC100H
 4835:	  0F73	F0		   MOVX  @DPTR,A
 4836:	  0F74	A3		   INC   DPTR
 4837:	  0F75	F0		   MOVX  @DPTR,A
 4838:
 4839:
 4840:
 4841:				;---------------------------------------------------------
 4842:	  0F76			   TM101_HANDLER:
 4843:
 4844:	  0F76	30 42 41	   JNB	TM101E,TMR101_NOT_ENABLED
 4845:	  0F79	20 43 47		JB	   TM101D,TM102_HANDLER
 4846:	  0F7C	30 03 44		JNB   TEN_MSEC_BIT,TM102_HANDLER
 4847:
 4848:	  0F7F	90 24 B9		MOV   DPTR,#TMC101L
 4849:	  0F82	E0		   MOVX  A,@DPTR
 4850:	  0F83	C3			CLR   C
 4851:	  0F84	24 01			ADD	A,#01

ASEM-51 V1.3                                        Copyright (c) 2002 by W.W. Heinz                                         PAGE 88



 Line  I  Addr  Code            Source

 4852:	  0F86	F0			MOVX	@DPTR,A
 4853:	  0F87	90 24 B8	   MOV   DPTR,#TMC101H
 4854:	  0F8A	E0		   MOVX  A,@DPTR
 4855:	  0F8B	34 00		   ADDC 	A,#0
 4856:	  0F8D	F0			MOVX	@DPTR,A
 4857:
 4858:	  0F8E	90 24 B8		MOV   DPTR,#TMC101H
 4859:	  0F91	E0			MOVX  A,@DPTR
 4860:	  0F92	F5 F0			MOV   B,A
 4861:	  0F94	90 11 8E	   MOV   DPTR,#TMS101H
 4862:	  0F97	E0		   MOVX  A,@DPTR
 4863:	  0F98	B5 F0 02	   CJNE  A,B,CHK_TMC101H                    ;TMR00_NOT_DONE
 4864:	  0F9B	80 04			SJMP  CHK_TMC101L
 4865:
 4866:	  0F9D			   CHK_TMC101H:
 4867:
 4868:	  0F9D	40 17		   JC	   SET_TMR101_DONE
 4869:	  0F9F	50 11		   JNC   TMR101_NOT_DONE
 4870:
 4871:	  0FA1			   CHK_TMC101L:
 4872:
 4873:	  0FA1	90 24 B9	   MOV   DPTR,#TMC101L
 4874:	  0FA4	E0		   MOVX	A,@DPTR                               ;A,TMC00L
 4875:	  0FA5	F5 F0			MOV   B,A
 4876:	  0FA7	90 11 8F		MOV   DPTR,#TMS101L
 4877:	  0FAA	E0			MOVX  A,@DPTR
 4878:	  0FAB	B5 F0 02		CJNE  A,B,CHECK_CARRY_TM101
 4879:	  0FAE	80 06			SJMP  SET_TMR101_DONE
 4880:
 4881:	  0FB0				CHECK_CARRY_TM101:
 4882:
 4883:	  0FB0	40 04			JC	   SET_TMR101_DONE
 4884:
 4885:	  0FB2			   TMR101_NOT_DONE:
 4886:
 4887:	  0FB2	C2 43			CLR	TM101D
 4888:	  0FB4	80 0D			SJMP	TM102_HANDLER
 4889:
 4890:	  0FB6			   SET_TMR101_DONE:
 4891:
 4892:	  0FB6	D2 43		   SETB	TM101D
 4893:	  0FB8	80 09			SJMP	TM102_HANDLER
 4894:
 4895:	  0FBA			   TMR101_NOT_ENABLED:
 4896:
 4897:	  0FBA	C2 43			CLR	TM101D
 4898:	  0FBC	E4		   CLR   A
 4899:	  0FBD	90 24 B8	   MOV   DPTR,#TMC101H
 4900:	  0FC0	F0		   MOVX  @DPTR,A
 4901:	  0FC1	A3		   INC   DPTR
 4902:	  0FC2	F0		   MOVX  @DPTR,A
 4903:
 4904:	  0FC3			   TM102_HANDLER:
 4905:				;---------------------------------------------------------------------------
 4906:	  0FC3			   TM104_HANDLER:
 4907:

ASEM-51 V1.3                                        Copyright (c) 2002 by W.W. Heinz                                         PAGE 89



 Line  I  Addr  Code            Source

 4908:	  0FC3	90 5F C7	   MOV   DPTR,#TM104_ENABLE_1
 4909:	  0FC6	E0		   MOVX  A,@DPTR
 4910:	  0FC7	30 E0 4B	   JNB   TM104E,TMR104_NOT_ENABLED
 4911:	  0FCA	20 E1 56		JB    TM104D,TM105_HANDLER
 4912:	  0FCD	30 03 53		JNB   TEN_MSEC_BIT,TM105_HANDLER
 4913:
 4914:	  0FD0	90 24 BB		MOV   DPTR,#TMC104L
 4915:	  0FD3	E0		   MOVX  A,@DPTR
 4916:	  0FD4	C3			CLR   C
 4917:	  0FD5	24 01			ADD	A,#01
 4918:	  0FD7	F0			MOVX	@DPTR,A
 4919:	  0FD8	90 24 BA	   MOV   DPTR,#TMC104H
 4920:	  0FDB	E0		   MOVX  A,@DPTR
 4921:	  0FDC	34 00		   ADDC 	A,#0
 4922:	  0FDE	F0			MOVX	@DPTR,A
 4923:
 4924:	  0FDF	90 24 BA		MOV   DPTR,#TMC104H
 4925:	  0FE2	E0			MOVX  A,@DPTR
 4926:	  0FE3	F5 F0			MOV   B,A
 4927:	  0FE5	90 10 7E	   MOV   DPTR,#TMS104H
 4928:	  0FE8	E0		   MOVX  A,@DPTR
 4929:	  0FE9	B5 F0 02	   CJNE  A,B,CHK_TMC104H
 4930:	  0FEC	80 04			SJMP  CHK_TMC104L
 4931:
 4932:	  0FEE			   CHK_TMC104H:
 4933:
 4934:	  0FEE	40 1C		   JC	   SET_TMR104_DONE
 4935:	  0FF0	50 11		   JNC   TMR104_NOT_DONE
 4936:
 4937:	  0FF2			   CHK_TMC104L:
 4938:
 4939:	  0FF2	90 24 BB	   MOV   DPTR,#TMC104L
 4940:	  0FF5	E0		   MOVX	A,@DPTR
 4941:	  0FF6	F5 F0			MOV   B,A
 4942:	  0FF8	90 10 7F		MOV   DPTR,#TMS104L
 4943:	  0FFB	E0			MOVX  A,@DPTR
 4944:	  0FFC	B5 F0 02		CJNE  A,B,CHECK_CARRY_TM104
 4945:	  0FFF	80 0B			SJMP  SET_TMR104_DONE
 4946:
 4947:	  1001				CHECK_CARRY_TM104:
 4948:
 4949:	  1001	40 09			JC	   SET_TMR104_DONE
 4950:
 4951:	  1003			   TMR104_NOT_DONE:
 4952:
 4953:	  1003	90 5F C7	   MOV   DPTR,#TM104_ENABLE_1
 4954:	  1006	E0		   MOVX  A,@DPTR
 4955:	  1007	C2 E1			CLR	TM104D
 4956:	  1009	F0			MOVX  @DPTR,A
 4957:	  100A	80 17			SJMP	TM105_HANDLER
 4958:
 4959:	  100C			   SET_TMR104_DONE:
 4960:
 4961:	  100C	90 5F C7	   MOV   DPTR,#TM104_ENABLE_1
 4962:	  100F	E0		   MOVX  A,@DPTR
 4963:	  1010	D2 E1			SETB	TM104D

ASEM-51 V1.3                                        Copyright (c) 2002 by W.W. Heinz                                         PAGE 90



 Line  I  Addr  Code            Source

 4964:	  1012	F0			MOVX  @DPTR,A
 4965:
 4966:	  1013	80 0E			SJMP	TM105_HANDLER
 4967:
 4968:	  1015			   TMR104_NOT_ENABLED:
 4969:
 4970:	  1015	90 5F C7		MOV   DPTR,#TM104_ENABLE_1
 4971:	  1018	E0		   MOVX  A,@DPTR
 4972:	  1019	C2 E1			CLR	TM104D
 4973:	  101B	F0			MOVX  @DPTR,A
 4974:
 4975:	  101C	E4		   CLR   A
 4976:	  101D	90 24 BA	   MOV   DPTR,#TMC104H
 4977:	  1020	F0		   MOVX  @DPTR,A
 4978:	  1021	A3		   INC   DPTR
 4979:	  1022	F0		   MOVX  @DPTR,A
 4980:
 4981:	  1023			   TM105_HANDLER:
 4982:				;---------------------------------------------------------
 4983:	  1023	90 5F C7	   MOV   DPTR,#TM104_ENABLE_1
 4984:	  1026	E0		   MOVX  A,@DPTR
 4985:	  1027	30 E2 4B	   JNB   TM105E,TMR105_NOT_ENABLED
 4986:	  102A	20 E3 56		JB    TM105D,TM106_HANDLER
 4987:	  102D	30 03 53		JNB   TEN_MSEC_BIT,TM106_HANDLER
 4988:
 4989:
 4990:	  1030	90 24 BD		MOV   DPTR,#TMC105L
 4991:	  1033	E0		   MOVX  A,@DPTR
 4992:	  1034	C3			CLR   C
 4993:	  1035	24 01			ADD	A,#01
 4994:	  1037	F0			MOVX	@DPTR,A
 4995:	  1038	90 24 BC	   MOV   DPTR,#TMC105H
 4996:	  103B	E0		   MOVX  A,@DPTR
 4997:	  103C	34 00		   ADDC 	A,#0
 4998:	  103E	F0			MOVX	@DPTR,A
 4999:
 5000:	  103F	90 24 BC		MOV   DPTR,#TMC105H
 5001:	  1042	E0			MOVX  A,@DPTR
 5002:	  1043	F5 F0			MOV   B,A
 5003:	  1045	90 10 80	   MOV   DPTR,#TMS105H
 5004:	  1048	E0		   MOVX  A,@DPTR
 5005:	  1049	B5 F0 02	   CJNE  A,B,CHK_TMC105H
 5006:	  104C	80 04			SJMP  CHK_TMC105L
 5007:
 5008:	  104E			   CHK_TMC105H:
 5009:
 5010:	  104E	40 1C		   JC	   SET_TMR105_DONE
 5011:	  1050	50 11		   JNC   TMR105_NOT_DONE
 5012:
 5013:	  1052			   CHK_TMC105L:
 5014:
 5015:	  1052	90 24 BD	   MOV   DPTR,#TMC105L
 5016:	  1055	E0		   MOVX	A,@DPTR
 5017:	  1056	F5 F0			MOV   B,A
 5018:	  1058	90 10 81		MOV   DPTR,#TMS105L
 5019:	  105B	E0			MOVX  A,@DPTR

ASEM-51 V1.3                                        Copyright (c) 2002 by W.W. Heinz                                         PAGE 91



 Line  I  Addr  Code            Source

 5020:	  105C	B5 F0 02		CJNE  A,B,CHECK_CARRY_TM105
 5021:	  105F	80 0B			SJMP  SET_TMR105_DONE
 5022:
 5023:	  1061				CHECK_CARRY_TM105:
 5024:
 5025:	  1061	40 09			JC	   SET_TMR105_DONE
 5026:
 5027:	  1063			   TMR105_NOT_DONE:
 5028:
 5029:	  1063	90 5F C7	   MOV   DPTR,#TM104_ENABLE_1
 5030:	  1066	E0		   MOVX  A,@DPTR
 5031:	  1067	C2 E3			CLR	TM105D
 5032:	  1069	F0			MOVX  @DPTR,A
 5033:	  106A	80 17			SJMP	TM106_HANDLER
 5034:
 5035:	  106C			   SET_TMR105_DONE:
 5036:
 5037:	  106C	90 5F C7	   MOV   DPTR,#TM104_ENABLE_1
 5038:	  106F	E0		   MOVX  A,@DPTR
 5039:	  1070	D2 E3		   SETB	TM105D
 5040:	  1072	F0			MOVX  @DPTR,A
 5041:
 5042:	  1073	80 0E			SJMP	TM106_HANDLER
 5043:
 5044:	  1075			   TMR105_NOT_ENABLED:
 5045:
 5046:	  1075	90 5F C7		MOV   DPTR,#TM104_ENABLE_1
 5047:	  1078	E0		   MOVX  A,@DPTR
 5048:	  1079	C2 E3			CLR	TM105D
 5049:	  107B	F0			MOVX  @DPTR,A
 5050:
 5051:	  107C	E4		   CLR   A
 5052:	  107D	90 24 BC	   MOV   DPTR,#TMC105H
 5053:	  1080	F0		   MOVX  @DPTR,A
 5054:	  1081	A3		   INC   DPTR
 5055:	  1082	F0		   MOVX  @DPTR,A
 5056:
 5057:	  1083			   TM106_HANDLER:
 5058:				;--------------------------------------------------
 5059:	  1083	90 5F C7	   MOV   DPTR,#TM104_ENABLE_1
 5060:	  1086	E0		   MOVX  A,@DPTR
 5061:	  1087	30 E4 4B	   JNB   TM106E,TMR106_NOT_ENABLED
 5062:	  108A	20 E5 56		JB    TM106D,TM107_HANDLER
 5063:	  108D	30 03 53		JNB   TEN_MSEC_BIT,TM107_HANDLER
 5064:
 5065:	  1090	90 24 BF	   MOV   DPTR,#TMC106L
 5066:	  1093	E0		   MOVX  A,@DPTR
 5067:	  1094	C3			CLR   C
 5068:	  1095	24 01			ADD	A,#01
 5069:	  1097	F0			MOVX	@DPTR,A
 5070:	  1098	90 24 BE	   MOV   DPTR,#TMC106H
 5071:	  109B	E0		   MOVX  A,@DPTR
 5072:	  109C	34 00		   ADDC 	A,#0
 5073:	  109E	F0			MOVX	@DPTR,A
 5074:
 5075:	  109F	90 24 BE		MOV   DPTR,#TMC106H

ASEM-51 V1.3                                        Copyright (c) 2002 by W.W. Heinz                                         PAGE 92



 Line  I  Addr  Code            Source

 5076:	  10A2	E0			MOVX  A,@DPTR
 5077:	  10A3	F5 F0			MOV   B,A
 5078:	  10A5	90 10 82	   MOV   DPTR,#TMS106H
 5079:	  10A8	E0		   MOVX  A,@DPTR
 5080:	  10A9	B5 F0 02	   CJNE  A,B,CHK_TMC106H
 5081:	  10AC	80 04			SJMP  CHK_TMC106L
 5082:
 5083:	  10AE			   CHK_TMC106H:
 5084:
 5085:	  10AE	40 1C		   JC	   SET_TMR106_DONE
 5086:	  10B0	50 11		   JNC   TMR106_NOT_DONE
 5087:
 5088:	  10B2			   CHK_TMC106L:
 5089:
 5090:	  10B2	90 24 BF	   MOV   DPTR,#TMC106L
 5091:	  10B5	E0		   MOVX	A,@DPTR
 5092:	  10B6	F5 F0			MOV   B,A
 5093:	  10B8	90 10 83		MOV   DPTR,#TMS106L
 5094:	  10BB	E0			MOVX  A,@DPTR
 5095:	  10BC	B5 F0 02		CJNE  A,B,CHECK_CARRY_TM106
 5096:	  10BF	80 0B			SJMP  SET_TMR106_DONE
 5097:
 5098:	  10C1				CHECK_CARRY_TM106:
 5099:
 5100:	  10C1	40 09			JC	   SET_TMR106_DONE
 5101:
 5102:	  10C3			   TMR106_NOT_DONE:
 5103:
 5104:	  10C3	90 5F C7	   MOV   DPTR,#TM104_ENABLE_1
 5105:	  10C6	E0		   MOVX  A,@DPTR
 5106:	  10C7	C2 E5			CLR	TM106D
 5107:	  10C9	F0			MOVX  @DPTR,A
 5108:	  10CA	80 17			SJMP	TM107_HANDLER
 5109:
 5110:	  10CC			   SET_TMR106_DONE:
 5111:
 5112:	  10CC	90 5F C7	   MOV   DPTR,#TM104_ENABLE_1
 5113:	  10CF	E0		   MOVX  A,@DPTR
 5114:	  10D0	D2 E5			SETB	TM106D
 5115:	  10D2	F0			MOVX  @DPTR,A
 5116:
 5117:	  10D3	80 0E			SJMP	TM107_HANDLER
 5118:
 5119:	  10D5			   TMR106_NOT_ENABLED:
 5120:
 5121:	  10D5	90 5F C7		MOV   DPTR,#TM104_ENABLE_1
 5122:	  10D8	E0		   MOVX  A,@DPTR
 5123:	  10D9	C2 E5			CLR	TM106D
 5124:	  10DB	F0			MOVX  @DPTR,A
 5125:
 5126:	  10DC	E4		   CLR   A
 5127:	  10DD	90 24 BE	   MOV   DPTR,#TMC106H
 5128:	  10E0	F0		   MOVX  @DPTR,A
 5129:	  10E1	A3		   INC   DPTR
 5130:	  10E2	F0		   MOVX  @DPTR,A
 5131:

ASEM-51 V1.3                                        Copyright (c) 2002 by W.W. Heinz                                         PAGE 93



 Line  I  Addr  Code            Source

 5132:	  10E3			   TM107_HANDLER:
 5133:				;---------------------------------------------------------
 5134:	  10E3	90 5F C7	   MOV   DPTR,#TM104_ENABLE_1
 5135:	  10E6	E0		   MOVX  A,@DPTR
 5136:	  10E7	30 E6 4B	   JNB   TM107E,TMR107_NOT_ENABLED
 5137:	  10EA	20 E7 56		JB    TM107D,TM108_HANDLER
 5138:	  10ED	30 03 53		JNB   TEN_MSEC_BIT,TM108_HANDLER
 5139:
 5140:	  10F0	90 24 C1	   MOV   DPTR,#TMC107L
 5141:	  10F3	E0		   MOVX  A,@DPTR
 5142:	  10F4	C3			CLR   C
 5143:	  10F5	24 01			ADD	A,#01
 5144:	  10F7	F0			MOVX	@DPTR,A
 5145:	  10F8	90 24 C0	   MOV   DPTR,#TMC107H
 5146:	  10FB	E0		   MOVX  A,@DPTR
 5147:	  10FC	34 00		   ADDC 	A,#0
 5148:	  10FE	F0			MOVX	@DPTR,A
 5149:
 5150:	  10FF	90 24 C0		MOV   DPTR,#TMC107H
 5151:	  1102	E0			MOVX  A,@DPTR
 5152:	  1103	F5 F0			MOV   B,A
 5153:	  1105	90 10 84	   MOV   DPTR,#TMS107H
 5154:	  1108	E0		   MOVX  A,@DPTR
 5155:	  1109	B5 F0 02	   CJNE  A,B,CHK_TMC107H
 5156:	  110C	80 04			SJMP  CHK_TMC107L
 5157:
 5158:	  110E			   CHK_TMC107H:
 5159:
 5160:	  110E	40 1C		   JC	   SET_TMR107_DONE
 5161:	  1110	50 11		   JNC   TMR107_NOT_DONE
 5162:
 5163:	  1112			   CHK_TMC107L:
 5164:
 5165:	  1112	90 24 C1	   MOV   DPTR,#TMC107L
 5166:	  1115	E0		   MOVX	A,@DPTR
 5167:	  1116	F5 F0			MOV   B,A
 5168:	  1118	90 10 85		MOV   DPTR,#TMS107L
 5169:	  111B	E0			MOVX  A,@DPTR
 5170:	  111C	B5 F0 02		CJNE  A,B,CHECK_CARRY_TM107
 5171:	  111F	80 0B			SJMP  SET_TMR107_DONE
 5172:
 5173:	  1121				CHECK_CARRY_TM107:
 5174:
 5175:	  1121	40 09			JC	   SET_TMR107_DONE
 5176:
 5177:	  1123			   TMR107_NOT_DONE:
 5178:
 5179:	  1123	90 5F C7	   MOV   DPTR,#TM104_ENABLE_1
 5180:	  1126	E0		   MOVX  A,@DPTR
 5181:	  1127	C2 E7			CLR	TM107D
 5182:	  1129	F0			MOVX  @DPTR,A
 5183:	  112A	80 17			SJMP	TM108_HANDLER
 5184:
 5185:	  112C			   SET_TMR107_DONE:
 5186:
 5187:	  112C	90 5F C7	   MOV   DPTR,#TM104_ENABLE_1

ASEM-51 V1.3                                        Copyright (c) 2002 by W.W. Heinz                                         PAGE 94



 Line  I  Addr  Code            Source

 5188:	  112F	E0		   MOVX  A,@DPTR
 5189:	  1130	D2 E7			SETB	TM107D
 5190:	  1132	F0			MOVX  @DPTR,A
 5191:
 5192:	  1133	80 0E			SJMP	TM108_HANDLER
 5193:
 5194:	  1135			   TMR107_NOT_ENABLED:
 5195:
 5196:	  1135	90 5F C7		MOV   DPTR,#TM104_ENABLE_1
 5197:	  1138	E0		   MOVX  A,@DPTR
 5198:	  1139	C2 E7			CLR	TM107D
 5199:	  113B	F0			MOVX  @DPTR,A
 5200:
 5201:	  113C	E4		   CLR   A
 5202:	  113D	90 24 C0	   MOV   DPTR,#TMC107H
 5203:	  1140	F0		   MOVX  @DPTR,A
 5204:	  1141	A3		   INC   DPTR
 5205:	  1142	F0		   MOVX  @DPTR,A
 5206:				;---------------------------------------------------------
 5207:	  1143			   TM108_HANDLER:
 5208:	  1143	90 5F C8	   MOV   DPTR,#TM108_ENABLE_1
 5209:	  1146	E0		   MOVX  A,@DPTR
 5210:	  1147	30 E0 4B	   JNB   TM108E,TMR108_NOT_ENABLED
 5211:	  114A	20 E1 56		JB    TM108D,TM109_HANDLER
 5212:	  114D	30 03 53		JNB   TEN_MSEC_BIT,TM109_HANDLER
 5213:
 5214:	  1150	90 24 C3	   MOV   DPTR,#TMC108L
 5215:	  1153	E0		   MOVX  A,@DPTR
 5216:	  1154	C3			CLR   C
 5217:	  1155	24 01			ADD	A,#01
 5218:	  1157	F0			MOVX	@DPTR,A
 5219:	  1158	90 24 C2	   MOV   DPTR,#TMC108H
 5220:	  115B	E0		   MOVX  A,@DPTR
 5221:	  115C	34 00		   ADDC 	A,#0
 5222:	  115E	F0			MOVX	@DPTR,A
 5223:
 5224:	  115F	90 24 C2		MOV   DPTR,#TMC108H
 5225:	  1162	E0			MOVX  A,@DPTR
 5226:	  1163	F5 F0			MOV   B,A
 5227:	  1165	90 10 86	   MOV   DPTR,#TMS108H
 5228:	  1168	E0		   MOVX  A,@DPTR
 5229:	  1169	B5 F0 02	   CJNE  A,B,CHK_TMC108H
 5230:	  116C	80 04			SJMP  CHK_TMC108L
 5231:
 5232:	  116E			   CHK_TMC108H:
 5233:
 5234:	  116E	40 1C		   JC	   SET_TMR108_DONE
 5235:	  1170	50 11		   JNC   TMR108_NOT_DONE
 5236:
 5237:	  1172			   CHK_TMC108L:
 5238:
 5239:	  1172	90 24 C3	   MOV   DPTR,#TMC108L
 5240:	  1175	E0		   MOVX	A,@DPTR
 5241:	  1176	F5 F0			MOV   B,A
 5242:	  1178	90 10 87		MOV   DPTR,#TMS108L
 5243:	  117B	E0			MOVX  A,@DPTR

ASEM-51 V1.3                                        Copyright (c) 2002 by W.W. Heinz                                         PAGE 95



 Line  I  Addr  Code            Source

 5244:	  117C	B5 F0 02		CJNE  A,B,CHECK_CARRY_TM108
 5245:	  117F	80 0B			SJMP  SET_TMR108_DONE
 5246:
 5247:	  1181				CHECK_CARRY_TM108:
 5248:
 5249:	  1181	40 09			JC	   SET_TMR108_DONE
 5250:
 5251:	  1183			   TMR108_NOT_DONE:
 5252:
 5253:	  1183	90 5F C8	   MOV   DPTR,#TM108_ENABLE_1
 5254:	  1186	E0		   MOVX  A,@DPTR
 5255:	  1187	C2 E1			CLR	TM108D
 5256:	  1189	F0			MOVX  @DPTR,A
 5257:	  118A	80 17			SJMP	TM109_HANDLER
 5258:
 5259:	  118C			   SET_TMR108_DONE:
 5260:
 5261:	  118C	90 5F C8	   MOV   DPTR,#TM108_ENABLE_1
 5262:	  118F	E0		   MOVX  A,@DPTR
 5263:	  1190	D2 E1			SETB	TM108D
 5264:	  1192	F0			MOVX  @DPTR,A
 5265:
 5266:	  1193	80 0E			SJMP	TM109_HANDLER
 5267:
 5268:	  1195			   TMR108_NOT_ENABLED:
 5269:
 5270:	  1195	90 5F C8		MOV   DPTR,#TM108_ENABLE_1
 5271:	  1198	E0		   MOVX  A,@DPTR
 5272:	  1199	C2 E1			CLR	TM108D
 5273:	  119B	F0			MOVX  @DPTR,A
 5274:
 5275:	  119C	E4		   CLR   A
 5276:	  119D	90 24 C2	   MOV   DPTR,#TMC108H
 5277:	  11A0	F0		   MOVX  @DPTR,A
 5278:	  11A1	A3		   INC   DPTR
 5279:	  11A2	F0		   MOVX  @DPTR,A
 5280:				;------------------------------------------------------------
 5281:	  11A3			   TM109_HANDLER:
 5282:	  11A3	90 5F C8	   MOV   DPTR,#TM108_ENABLE_1
 5283:	  11A6	E0		   MOVX  A,@DPTR
 5284:	  11A7	30 E2 4B	   JNB   TM109E,TMR109_NOT_ENABLED
 5285:	  11AA	20 E3 56		JB    TM109D,TM110_HANDLER
 5286:	  11AD	30 03 53		JNB   TEN_MSEC_BIT,TM110_HANDLER
 5287:
 5288:	  11B0	90 24 C5	   MOV   DPTR,#TMC109L
 5289:	  11B3	E0		   MOVX  A,@DPTR
 5290:	  11B4	C3			CLR   C
 5291:	  11B5	24 01			ADD	A,#01
 5292:	  11B7	F0			MOVX	@DPTR,A
 5293:	  11B8	90 24 C4	   MOV   DPTR,#TMC109H
 5294:	  11BB	E0		   MOVX  A,@DPTR
 5295:	  11BC	34 00		   ADDC 	A,#0
 5296:	  11BE	F0			MOVX	@DPTR,A
 5297:
 5298:	  11BF	90 24 C4		MOV   DPTR,#TMC109H
 5299:	  11C2	E0			MOVX  A,@DPTR

ASEM-51 V1.3                                        Copyright (c) 2002 by W.W. Heinz                                         PAGE 96



 Line  I  Addr  Code            Source

 5300:	  11C3	F5 F0			MOV   B,A
 5301:	  11C5	90 10 88	   MOV   DPTR,#TMS109H
 5302:	  11C8	E0		   MOVX  A,@DPTR
 5303:	  11C9	B5 F0 02	   CJNE  A,B,CHK_TMC109H
 5304:	  11CC	80 04			SJMP  CHK_TMC109L
 5305:
 5306:	  11CE			   CHK_TMC109H:
 5307:
 5308:	  11CE	40 1C		   JC	   SET_TMR109_DONE
 5309:	  11D0	50 11		   JNC   TMR109_NOT_DONE
 5310:
 5311:	  11D2			   CHK_TMC109L:
 5312:
 5313:	  11D2	90 24 C5	   MOV   DPTR,#TMC109L
 5314:	  11D5	E0		   MOVX	A,@DPTR
 5315:	  11D6	F5 F0			MOV   B,A
 5316:	  11D8	90 10 89		MOV   DPTR,#TMS109L
 5317:	  11DB	E0			MOVX  A,@DPTR
 5318:	  11DC	B5 F0 02		CJNE  A,B,CHECK_CARRY_TM109
 5319:	  11DF	80 0B			SJMP  SET_TMR109_DONE
 5320:
 5321:	  11E1				CHECK_CARRY_TM109:
 5322:
 5323:	  11E1	40 09			JC	   SET_TMR109_DONE
 5324:
 5325:	  11E3			   TMR109_NOT_DONE:
 5326:
 5327:	  11E3	90 5F C8	   MOV   DPTR,#TM108_ENABLE_1
 5328:	  11E6	E0		   MOVX  A,@DPTR
 5329:	  11E7	C2 E3			CLR	TM109D
 5330:	  11E9	F0			MOVX  @DPTR,A
 5331:	  11EA	80 17			SJMP	TM110_HANDLER
 5332:
 5333:	  11EC			   SET_TMR109_DONE:
 5334:
 5335:	  11EC	90 5F C8	   MOV   DPTR,#TM108_ENABLE_1
 5336:	  11EF	E0		   MOVX  A,@DPTR
 5337:	  11F0	D2 E3			SETB	TM109D
 5338:	  11F2	F0			MOVX  @DPTR,A
 5339:
 5340:	  11F3	80 0E			SJMP	TM110_HANDLER
 5341:
 5342:	  11F5			   TMR109_NOT_ENABLED:
 5343:
 5344:	  11F5	90 5F C8		MOV   DPTR,#TM108_ENABLE_1
 5345:	  11F8	E0		   MOVX  A,@DPTR
 5346:	  11F9	C2 E3			CLR	TM109D
 5347:	  11FB	F0			MOVX  @DPTR,A
 5348:
 5349:	  11FC	E4		   CLR   A
 5350:	  11FD	90 24 C4	   MOV   DPTR,#TMC109H
 5351:	  1200	F0		   MOVX  @DPTR,A
 5352:	  1201	A3		   INC   DPTR
 5353:	  1202	F0		   MOVX  @DPTR,A
 5354:				;---------------------------------------------------
 5355:	  1203			   TM110_HANDLER:

ASEM-51 V1.3                                        Copyright (c) 2002 by W.W. Heinz                                         PAGE 97



 Line  I  Addr  Code            Source

 5356:	  1203	90 5F C8	   MOV   DPTR,#TM108_ENABLE_1
 5357:	  1206	E0		   MOVX  A,@DPTR
 5358:	  1207	30 E4 4B	   JNB   TM110E,TMR110_NOT_ENABLED
 5359:	  120A	20 E5 56		JB    TM110D,TM111_HANDLER
 5360:	  120D	30 03 53		JNB   TEN_MSEC_BIT,TM111_HANDLER
 5361:
 5362:	  1210	90 24 C7	   MOV   DPTR,#TMC110L
 5363:	  1213	E0		   MOVX  A,@DPTR
 5364:	  1214	C3			CLR   C
 5365:	  1215	24 01			ADD	A,#01
 5366:	  1217	F0			MOVX	@DPTR,A
 5367:	  1218	90 24 C6	   MOV   DPTR,#TMC110H
 5368:	  121B	E0		   MOVX  A,@DPTR
 5369:	  121C	34 00		   ADDC 	A,#0
 5370:	  121E	F0			MOVX	@DPTR,A
 5371:
 5372:	  121F	90 24 C6		MOV   DPTR,#TMC110H
 5373:	  1222	E0			MOVX  A,@DPTR
 5374:	  1223	F5 F0			MOV   B,A
 5375:	  1225	90 10 8A	   MOV   DPTR,#TMS110H
 5376:	  1228	E0		   MOVX  A,@DPTR
 5377:	  1229	B5 F0 02	   CJNE  A,B,CHK_TMC110H
 5378:	  122C	80 04			SJMP  CHK_TMC110L
 5379:
 5380:	  122E			   CHK_TMC110H:
 5381:
 5382:	  122E	40 1C		   JC	   SET_TMR110_DONE
 5383:	  1230	50 11		   JNC   TMR110_NOT_DONE
 5384:
 5385:	  1232			   CHK_TMC110L:
 5386:
 5387:	  1232	90 24 C7	   MOV   DPTR,#TMC110L
 5388:	  1235	E0		   MOVX	A,@DPTR
 5389:	  1236	F5 F0			MOV   B,A
 5390:	  1238	90 10 8B		MOV   DPTR,#TMS110L
 5391:	  123B	E0			MOVX  A,@DPTR
 5392:	  123C	B5 F0 02		CJNE  A,B,CHECK_CARRY_TM110
 5393:	  123F	80 0B			SJMP  SET_TMR110_DONE
 5394:
 5395:	  1241				CHECK_CARRY_TM110:
 5396:
 5397:	  1241	40 09			JC	   SET_TMR110_DONE
 5398:
 5399:	  1243			   TMR110_NOT_DONE:
 5400:
 5401:	  1243	90 5F C8	   MOV   DPTR,#TM108_ENABLE_1
 5402:	  1246	E0		   MOVX  A,@DPTR
 5403:	  1247	C2 E5			CLR	TM110D
 5404:	  1249	F0			MOVX  @DPTR,A
 5405:	  124A	80 17			SJMP	TM111_HANDLER
 5406:
 5407:	  124C			   SET_TMR110_DONE:
 5408:
 5409:	  124C	90 5F C8	   MOV   DPTR,#TM108_ENABLE_1
 5410:	  124F	E0		   MOVX  A,@DPTR
 5411:	  1250	D2 E5			SETB	TM110D

ASEM-51 V1.3                                        Copyright (c) 2002 by W.W. Heinz                                         PAGE 98



 Line  I  Addr  Code            Source

 5412:	  1252	F0			MOVX  @DPTR,A
 5413:
 5414:	  1253	80 0E			SJMP	TM111_HANDLER
 5415:
 5416:	  1255			   TMR110_NOT_ENABLED:
 5417:
 5418:	  1255	90 5F C8		MOV   DPTR,#TM108_ENABLE_1
 5419:	  1258	E0		   MOVX  A,@DPTR
 5420:	  1259	C2 E5			CLR	TM110D
 5421:	  125B	F0			MOVX  @DPTR,A
 5422:
 5423:	  125C	E4		   CLR   A
 5424:	  125D	90 24 C6	   MOV   DPTR,#TMC110H
 5425:	  1260	F0		   MOVX  @DPTR,A
 5426:	  1261	A3		   INC   DPTR
 5427:	  1262	F0		   MOVX  @DPTR,A
 5428:				;-----------------------------------------------------
 5429:	  1263			   TM111_HANDLER:
 5430:	  1263	90 5F C8	   MOV   DPTR,#TM108_ENABLE_1
 5431:	  1266	E0		   MOVX  A,@DPTR
 5432:	  1267	30 E6 4B	   JNB   TM111E,TMR111_NOT_ENABLED
 5433:	  126A	20 E7 56		JB    TM111D,TM112_HANDLER
 5434:	  126D	30 03 53		JNB   TEN_MSEC_BIT,TM112_HANDLER
 5435:
 5436:	  1270	90 24 C9	   MOV   DPTR,#TMC111L
 5437:	  1273	E0		   MOVX  A,@DPTR
 5438:	  1274	C3			CLR   C
 5439:	  1275	24 01			ADD	A,#01
 5440:	  1277	F0			MOVX	@DPTR,A
 5441:	  1278	90 24 C8	   MOV   DPTR,#TMC111H
 5442:	  127B	E0		   MOVX  A,@DPTR
 5443:	  127C	34 00		   ADDC 	A,#0
 5444:	  127E	F0			MOVX	@DPTR,A
 5445:
 5446:	  127F	90 24 C8		MOV   DPTR,#TMC111H
 5447:	  1282	E0			MOVX  A,@DPTR
 5448:	  1283	F5 F0			MOV   B,A
 5449:	  1285	90 10 8C	   MOV   DPTR,#TMS111H
 5450:	  1288	E0		   MOVX  A,@DPTR
 5451:	  1289	B5 F0 02	   CJNE  A,B,CHK_TMC111H
 5452:	  128C	80 04			SJMP  CHK_TMC111L
 5453:
 5454:	  128E			   CHK_TMC111H:
 5455:
 5456:	  128E	40 1C		   JC	   SET_TMR111_DONE
 5457:	  1290	50 11		   JNC   TMR111_NOT_DONE
 5458:
 5459:	  1292			   CHK_TMC111L:
 5460:
 5461:	  1292	90 24 C9	   MOV   DPTR,#TMC111L
 5462:	  1295	E0		   MOVX	A,@DPTR
 5463:	  1296	F5 F0			MOV   B,A
 5464:	  1298	90 10 8D		MOV   DPTR,#TMS111L
 5465:	  129B	E0			MOVX  A,@DPTR
 5466:	  129C	B5 F0 02		CJNE  A,B,CHECK_CARRY_TM111
 5467:	  129F	80 0B			SJMP  SET_TMR111_DONE

ASEM-51 V1.3                                        Copyright (c) 2002 by W.W. Heinz                                         PAGE 99



 Line  I  Addr  Code            Source

 5468:
 5469:	  12A1				CHECK_CARRY_TM111:
 5470:
 5471:	  12A1	40 09			JC	   SET_TMR111_DONE
 5472:
 5473:	  12A3			   TMR111_NOT_DONE:
 5474:
 5475:	  12A3	90 5F C8	   MOV   DPTR,#TM108_ENABLE_1
 5476:	  12A6	E0		   MOVX  A,@DPTR
 5477:	  12A7	C2 E7			CLR	TM111D
 5478:	  12A9	F0			MOVX  @DPTR,A
 5479:	  12AA	80 17			SJMP	TM112_HANDLER
 5480:
 5481:	  12AC			   SET_TMR111_DONE:
 5482:
 5483:	  12AC	90 5F C8	   MOV   DPTR,#TM108_ENABLE_1
 5484:	  12AF	E0		   MOVX  A,@DPTR
 5485:	  12B0	D2 E7			SETB	TM111D
 5486:	  12B2	F0			MOVX  @DPTR,A
 5487:
 5488:	  12B3	80 0E			SJMP	TM112_HANDLER
 5489:
 5490:	  12B5			   TMR111_NOT_ENABLED:
 5491:
 5492:	  12B5	90 5F C8		MOV   DPTR,#TM108_ENABLE_1
 5493:	  12B8	E0		   MOVX  A,@DPTR
 5494:	  12B9	C2 E7			CLR	TM111D
 5495:	  12BB	F0			MOVX  @DPTR,A
 5496:
 5497:	  12BC	E4		   CLR   A
 5498:	  12BD	90 24 C8	   MOV   DPTR,#TMC111H
 5499:	  12C0	F0		   MOVX  @DPTR,A
 5500:	  12C1	A3		   INC   DPTR
 5501:	  12C2	F0		   MOVX  @DPTR,A
 5502:				;-----------------------------------------------------------
 5503:	  12C3			   TM112_HANDLER:
 5504:
 5505:				;-----------------------------------------------------------
 5506:	  12C3	E5 1C		   MOV   A,SECOND_CLK                              ;TIMECT
 5507:	  12C5	C3		   CLR   C
 5508:	  12C6	C2 08		   CLR   HUND_MSEC_BIT
 5509:	  12C8	B4 64 00	   CJNE  A,#100,TIME_LESS_HUND_MILLISEC
 5510:
 5511:	  12CB			   TIME_LESS_HUND_MILLISEC:
 5512:
 5513:	  12CB	40 07		   JC    NOT_100MSEC
 5514:	  12CD	D2 08		   SETB  HUND_MSEC_BIT
 5515:	  12CF	C3		  	CLR   C
 5516:	  12D0	94 64		  	SUBB  A,#100
 5517:	  12D2	F5 1C		  	MOV   SECOND_CLK,A
 5518:
 5519:	  12D4			   NOT_100MSEC:
 5520:
 5521:	  12D4	30 08 00	   JNB   HUND_MSEC_BIT,TM20_HANDLER
 5522:
 5523:

ASEM-51 V1.3                                        Copyright (c) 2002 by W.W. Heinz                                        PAGE 100



 Line  I  Addr  Code            Source

 5524:
 5525:	  12D7			   TM20_HANDLER:
 5526:
 5527:
 5528:	  12D7	90 5F C0	   MOV   DPTR,#TM20_ENABLE_1
 5529:	  12DA	E0		   MOVX  A,@DPTR
 5530:	  12DB	30 E0 3A	   JNB	TM20E,TMR20_NOT_ENABLED
 5531:	  12DE	20 E1 4E		JB	   TM20D,TM21_HANDLER
 5532:	  12E1	30 08 4B		JNB   HUND_MSEC_BIT,TM21_HANDLER
 5533:	  12E4	C3		   CLR	C
 5534:	  12E5	90 23 B1	   MOV   DPTR,#TMC20L
 5535:	  12E8	E0			MOVX	A,@DPTR
 5536:	  12E9	94 01			SUBB	A,#01
 5537:	  12EB	F0			MOVX	@DPTR,A
 5538:	  12EC	90 23 B0	   MOV   DPTR,#TMC20H
 5539:	  12EF	E0			MOVX	A,@DPTR
 5540:	  12F0	94 00			SUBB	A,#0
 5541:	  12F2	F0			MOVX	@DPTR,A
 5542:	  12F3	40 13			JC	   SET_TMR20_DONE
 5543:	  12F5	60 02			JZ	   CHK_TMC20L
 5544:	  12F7	80 06			SJMP	TMR20_NOT_DONE
 5545:
 5546:	  12F9			   CHK_TMC20L:
 5547:
 5548:	  12F9	90 23 B1	   MOV   DPTR,#TMC20L
 5549:	  12FC	E0			MOVX	A,@DPTR
 5550:	  12FD	60 09			JZ	   SET_TMR20_DONE
 5551:
 5552:	  12FF			   TMR20_NOT_DONE:
 5553:
 5554:	  12FF	90 5F C0		MOV   DPTR,#TM20_ENABLE_1
 5555:	  1302	E0		   MOVX  A,@DPTR
 5556:	  1303	C2 E1			CLR	TM20D
 5557:	  1305	F0			MOVX  @DPTR,A
 5558:	  1306	80 27			SJMP	TM21_HANDLER
 5559:
 5560:	  1308			   SET_TMR20_DONE:
 5561:
 5562:	  1308	90 5F C0	   MOV   DPTR,#TM20_ENABLE_1
 5563:	  130B	E0		   MOVX  A,@DPTR
 5564:	  130C	D2 E1		   SETB	TM20D
 5565:	  130E	F0		   MOVX  @DPTR,A
 5566:	  130F	E4		   CLR   A
 5567:	  1310	90 23 B0	   MOV   DPTR,#TMC20H
 5568:	  1313	F0			MOVX	@DPTR,A
 5569:	  1314	A3		   INC   DPTR
 5570:	  1315	F0		   MOVX	@DPTR,A
 5571:	  1316	80 17			SJMP	TM21_HANDLER
 5572:
 5573:	  1318			   TMR20_NOT_ENABLED:
 5574:
 5575:	  1318	90 5F C0		MOV   DPTR,#TM20_ENABLE_1
 5576:	  131B	E0		   MOVX  A,@DPTR
 5577:	  131C	C2 E1			CLR	TM20D
 5578:	  131E	F0			MOVX  @DPTR,A
 5579:

ASEM-51 V1.3                                        Copyright (c) 2002 by W.W. Heinz                                        PAGE 101



 Line  I  Addr  Code            Source

 5580:	  131F	90 24 80	   MOV   DPTR,#TMS20H
 5581:	  1322	E0		   MOVX  A,@DPTR
 5582:	  1323	FD		   MOV   R5,A
 5583:	  1324	A3		   INC   DPTR
 5584:	  1325	E0		   MOVX  A,@DPTR
 5585:	  1326	90 23 B1	   MOV   DPTR,#TMC20L
 5586:	  1329	F0			MOVX	@DPTR,A
 5587:	  132A	90 23 B0	   MOV   DPTR,#TMC20H
 5588:	  132D	ED		   MOV   A,R5
 5589:	  132E	F0			MOVX	@DPTR,A
 5590:				;---------------------------------------------------------
 5591:	  132F			   TM21_HANDLER:
 5592:
 5593:	  132F	90 5F C0	   MOV   DPTR,#TM20_ENABLE_1
 5594:	  1332	E0		   MOVX  A,@DPTR
 5595:	  1333	30 E2 3A	   JNB	TM21E,TMR21_NOT_ENABLED
 5596:	  1336	20 E3 4E		JB	   TM21D,TM22_HANDLER
 5597:	  1339	30 08 4B		JNB   HUND_MSEC_BIT,TM22_HANDLER
 5598:	  133C	C3		   CLR	C
 5599:	  133D	90 23 B3	   MOV   DPTR,#TMC21L
 5600:	  1340	E0			MOVX	A,@DPTR
 5601:	  1341	94 01			SUBB	A,#01
 5602:	  1343	F0			MOVX	@DPTR,A
 5603:	  1344	90 23 B2	   MOV   DPTR,#TMC21H
 5604:	  1347	E0			MOVX	A,@DPTR
 5605:	  1348	94 00			SUBB	A,#0
 5606:	  134A	F0			MOVX	@DPTR,A
 5607:	  134B	40 13			JC	   SET_TMR21_DONE
 5608:	  134D	60 02			JZ	   CHK_TMC21L
 5609:	  134F	80 06			SJMP	TMR21_NOT_DONE
 5610:
 5611:	  1351			   CHK_TMC21L:
 5612:
 5613:	  1351	90 23 B3	   MOV   DPTR,#TMC21L
 5614:	  1354	E0			MOVX	A,@DPTR
 5615:	  1355	60 09			JZ	   SET_TMR21_DONE
 5616:
 5617:	  1357			   TMR21_NOT_DONE:
 5618:
 5619:	  1357	90 5F C0		MOV   DPTR,#TM20_ENABLE_1
 5620:	  135A	E0		   MOVX  A,@DPTR
 5621:	  135B	C2 E3			CLR	TM21D
 5622:	  135D	F0			MOVX  @DPTR,A
 5623:	  135E	80 27			SJMP	TM22_HANDLER
 5624:
 5625:	  1360			   SET_TMR21_DONE:
 5626:
 5627:	  1360	90 5F C0	   MOV   DPTR,#TM20_ENABLE_1
 5628:	  1363	E0		   MOVX  A,@DPTR
 5629:	  1364	D2 E3		   SETB	TM21D
 5630:	  1366	F0		   MOVX  @DPTR,A
 5631:	  1367	E4		   CLR   A
 5632:	  1368	90 23 B2	   MOV   DPTR,#TMC21H
 5633:	  136B	F0			MOVX	@DPTR,A
 5634:	  136C	A3		   INC   DPTR
 5635:	  136D	F0		   MOVX	@DPTR,A

ASEM-51 V1.3                                        Copyright (c) 2002 by W.W. Heinz                                        PAGE 102



 Line  I  Addr  Code            Source

 5636:	  136E	80 17			SJMP	TM22_HANDLER
 5637:
 5638:	  1370			   TMR21_NOT_ENABLED:
 5639:
 5640:	  1370	90 5F C0		MOV   DPTR,#TM20_ENABLE_1
 5641:	  1373	E0		   MOVX  A,@DPTR
 5642:	  1374	C2 E3			CLR	TM21D
 5643:	  1376	F0			MOVX  @DPTR,A
 5644:
 5645:	  1377	90 24 82	   MOV   DPTR,#TMS21H
 5646:	  137A	E0		   MOVX  A,@DPTR
 5647:	  137B	FD		   MOV   R5,A
 5648:	  137C	A3		   INC   DPTR
 5649:	  137D	E0		   MOVX  A,@DPTR
 5650:	  137E	90 23 B3	   MOV   DPTR,#TMC21L
 5651:	  1381	F0			MOVX	@DPTR,A
 5652:	  1382	90 23 B2	   MOV   DPTR,#TMC21H
 5653:	  1385	ED		   MOV   A,R5
 5654:	  1386	F0			MOVX	@DPTR,A
 5655:				;----------------------------------------------------------------
 5656:	  1387			   TM22_HANDLER:
 5657:
 5658:
 5659:	  1387	90 5F C0	   MOV   DPTR,#TM20_ENABLE_1
 5660:	  138A	E0		   MOVX  A,@DPTR
 5661:	  138B	30 E4 3A	   JNB	TM22E,TMR22_NOT_ENABLED
 5662:	  138E	20 E5 4E		JB	   TM22D,TM23_HANDLER
 5663:	  1391	30 08 4B		JNB   HUND_MSEC_BIT,TM23_HANDLER
 5664:	  1394	C3		   CLR	C
 5665:	  1395	90 23 B5	   MOV   DPTR,#TMC22L
 5666:	  1398	E0			MOVX	A,@DPTR
 5667:	  1399	94 01			SUBB	A,#01
 5668:	  139B	F0			MOVX	@DPTR,A
 5669:	  139C	90 23 B4	   MOV   DPTR,#TMC22H
 5670:	  139F	E0			MOVX	A,@DPTR
 5671:	  13A0	94 00			SUBB	A,#0
 5672:	  13A2	F0			MOVX	@DPTR,A
 5673:	  13A3	40 13			JC	   SET_TMR22_DONE
 5674:	  13A5	60 02			JZ	   CHK_TMC22L
 5675:	  13A7	80 06			SJMP	TMR22_NOT_DONE
 5676:
 5677:	  13A9			   CHK_TMC22L:
 5678:
 5679:	  13A9	90 23 B5	   MOV   DPTR,#TMC22L
 5680:	  13AC	E0			MOVX	A,@DPTR
 5681:	  13AD	60 09			JZ	   SET_TMR22_DONE
 5682:
 5683:	  13AF			   TMR22_NOT_DONE:
 5684:
 5685:	  13AF	90 5F C0		MOV   DPTR,#TM20_ENABLE_1
 5686:	  13B2	E0		   MOVX  A,@DPTR
 5687:	  13B3	C2 E5			CLR	TM22D
 5688:	  13B5	F0			MOVX  @DPTR,A
 5689:	  13B6	80 27			SJMP	TM23_HANDLER
 5690:
 5691:	  13B8			   SET_TMR22_DONE:

ASEM-51 V1.3                                        Copyright (c) 2002 by W.W. Heinz                                        PAGE 103



 Line  I  Addr  Code            Source

 5692:
 5693:	  13B8	90 5F C0	   MOV   DPTR,#TM20_ENABLE_1
 5694:	  13BB	E0		   MOVX  A,@DPTR
 5695:	  13BC	D2 E5		   SETB	TM22D
 5696:	  13BE	F0		   MOVX  @DPTR,A
 5697:	  13BF	E4		   CLR   A
 5698:	  13C0	90 23 B4	   MOV   DPTR,#TMC22H
 5699:	  13C3	F0			MOVX	@DPTR,A
 5700:	  13C4	A3		   INC   DPTR
 5701:	  13C5	F0		   MOVX	@DPTR,A
 5702:	  13C6	80 17			SJMP	TM23_HANDLER
 5703:
 5704:	  13C8			   TMR22_NOT_ENABLED:
 5705:
 5706:	  13C8	90 5F C0		MOV   DPTR,#TM20_ENABLE_1
 5707:	  13CB	E0		   MOVX  A,@DPTR
 5708:	  13CC	C2 E5			CLR	TM22D
 5709:	  13CE	F0			MOVX  @DPTR,A
 5710:
 5711:	  13CF	90 24 84	   MOV   DPTR,#TMS22H
 5712:	  13D2	E0		   MOVX  A,@DPTR
 5713:	  13D3	FD		   MOV   R5,A
 5714:	  13D4	A3		   INC   DPTR
 5715:	  13D5	E0		   MOVX  A,@DPTR
 5716:	  13D6	90 23 B5	   MOV   DPTR,#TMC22L
 5717:	  13D9	F0			MOVX	@DPTR,A
 5718:	  13DA	90 23 B4	   MOV   DPTR,#TMC22H
 5719:	  13DD	ED		   MOV   A,R5
 5720:	  13DE	F0			MOVX	@DPTR,A
 5721:				;----------------------------------------------------------
 5722:	  13DF			   TM23_HANDLER:
 5723:
 5724:
 5725:	  13DF	90 5F C0	   MOV   DPTR,#TM20_ENABLE_1
 5726:	  13E2	E0		   MOVX  A,@DPTR
 5727:	  13E3	30 E6 3A	   JNB	TM23E,TMR23_NOT_ENABLED
 5728:	  13E6	20 E7 4E		JB	   TM23D,TM24_HANDLER
 5729:	  13E9	30 08 4B		JNB   HUND_MSEC_BIT,TM24_HANDLER
 5730:	  13EC	C3		   CLR	C
 5731:	  13ED	90 23 B7	   MOV   DPTR,#TMC23L
 5732:	  13F0	E0			MOVX	A,@DPTR
 5733:	  13F1	94 01			SUBB	A,#01
 5734:	  13F3	F0			MOVX	@DPTR,A
 5735:	  13F4	90 23 B6	   MOV   DPTR,#TMC23H
 5736:	  13F7	E0			MOVX	A,@DPTR
 5737:	  13F8	94 00			SUBB	A,#0
 5738:	  13FA	F0			MOVX	@DPTR,A
 5739:	  13FB	40 13			JC	   SET_TMR23_DONE
 5740:	  13FD	60 02			JZ	   CHK_TMC23L
 5741:	  13FF	80 06			SJMP	TMR23_NOT_DONE
 5742:
 5743:	  1401			   CHK_TMC23L:
 5744:
 5745:	  1401	90 23 B7	   MOV   DPTR,#TMC23L
 5746:	  1404	E0			MOVX	A,@DPTR
 5747:	  1405	60 09			JZ	   SET_TMR23_DONE

ASEM-51 V1.3                                        Copyright (c) 2002 by W.W. Heinz                                        PAGE 104



 Line  I  Addr  Code            Source

 5748:
 5749:	  1407			   TMR23_NOT_DONE:
 5750:
 5751:	  1407	90 5F C0		MOV   DPTR,#TM20_ENABLE_1
 5752:	  140A	E0		   MOVX  A,@DPTR
 5753:	  140B	C2 E7			CLR	TM23D
 5754:	  140D	F0			MOVX  @DPTR,A
 5755:	  140E	80 27			SJMP	TM24_HANDLER
 5756:
 5757:	  1410			   SET_TMR23_DONE:
 5758:
 5759:	  1410	90 5F C0	   MOV   DPTR,#TM20_ENABLE_1
 5760:	  1413	E0		   MOVX  A,@DPTR
 5761:	  1414	D2 E7		   SETB	TM23D
 5762:	  1416	F0		   MOVX  @DPTR,A
 5763:	  1417	E4		   CLR   A
 5764:	  1418	90 23 B6	   MOV   DPTR,#TMC23H
 5765:	  141B	F0			MOVX	@DPTR,A
 5766:	  141C	A3		   INC   DPTR
 5767:	  141D	F0		   MOVX	@DPTR,A
 5768:	  141E	80 17			SJMP	TM24_HANDLER
 5769:
 5770:	  1420			   TMR23_NOT_ENABLED:
 5771:
 5772:	  1420	90 5F C0		MOV   DPTR,#TM20_ENABLE_1
 5773:	  1423	E0		   MOVX  A,@DPTR
 5774:	  1424	C2 E7			CLR	TM23D
 5775:	  1426	F0			MOVX  @DPTR,A
 5776:
 5777:	  1427	90 24 86	   MOV   DPTR,#TMS23H
 5778:	  142A	E0		   MOVX  A,@DPTR
 5779:	  142B	FD		   MOV   R5,A
 5780:	  142C	A3		   INC   DPTR
 5781:	  142D	E0		   MOVX  A,@DPTR
 5782:	  142E	90 23 B7	   MOV   DPTR,#TMC23L
 5783:	  1431	F0			MOVX	@DPTR,A
 5784:	  1432	90 23 B6	   MOV   DPTR,#TMC23H
 5785:	  1435	ED		   MOV   A,R5
 5786:	  1436	F0			MOVX	@DPTR,A
 5787:				;----------------------------------------------------------
 5788:	  1437			   TM24_HANDLER:
 5789:
 5790:	  1437	90 5F C1	   MOV   DPTR,#TM24_ENABLE_1
 5791:	  143A	E0		   MOVX  A,@DPTR
 5792:	  143B	30 E0 3A	   JNB	TM24E,TMR24_NOT_ENABLED
 5793:	  143E	20 E1 4E		JB	   TM24D,TM25_HANDLER
 5794:	  1441	30 08 4B		JNB   HUND_MSEC_BIT,TM25_HANDLER
 5795:	  1444	C3		   CLR	C
 5796:	  1445	90 23 B9	   MOV   DPTR,#TMC24L
 5797:	  1448	E0			MOVX	A,@DPTR
 5798:	  1449	94 01			SUBB	A,#01
 5799:	  144B	F0			MOVX	@DPTR,A
 5800:	  144C	90 23 B8	   MOV   DPTR,#TMC24H
 5801:	  144F	E0			MOVX	A,@DPTR
 5802:	  1450	94 00			SUBB	A,#0
 5803:	  1452	F0			MOVX	@DPTR,A

ASEM-51 V1.3                                        Copyright (c) 2002 by W.W. Heinz                                        PAGE 105



 Line  I  Addr  Code            Source

 5804:	  1453	40 13			JC	   SET_TMR24_DONE
 5805:	  1455	60 02			JZ	   CHK_TMC24L
 5806:	  1457	80 06			SJMP	TMR24_NOT_DONE
 5807:
 5808:	  1459			   CHK_TMC24L:
 5809:
 5810:	  1459	90 23 B9	   MOV   DPTR,#TMC24L
 5811:	  145C	E0			MOVX	A,@DPTR
 5812:	  145D	60 09			JZ	   SET_TMR24_DONE
 5813:
 5814:	  145F			   TMR24_NOT_DONE:
 5815:
 5816:	  145F	90 5F C1		MOV   DPTR,#TM24_ENABLE_1
 5817:	  1462	E0		   MOVX  A,@DPTR
 5818:	  1463	C2 E1			CLR	TM24D
 5819:	  1465	F0			MOVX  @DPTR,A
 5820:	  1466	80 27			SJMP	TM25_HANDLER
 5821:
 5822:	  1468			   SET_TMR24_DONE:
 5823:
 5824:	  1468	90 5F C1	   MOV   DPTR,#TM24_ENABLE_1
 5825:	  146B	E0		   MOVX  A,@DPTR
 5826:	  146C	D2 E1		   SETB	TM24D
 5827:	  146E	F0		   MOVX  @DPTR,A
 5828:	  146F	E4		   CLR   A
 5829:	  1470	90 23 B8	   MOV   DPTR,#TMC24H
 5830:	  1473	F0			MOVX	@DPTR,A
 5831:	  1474	A3		   INC   DPTR
 5832:	  1475	F0		   MOVX	@DPTR,A
 5833:	  1476	80 17			SJMP	TM25_HANDLER
 5834:
 5835:	  1478			   TMR24_NOT_ENABLED:
 5836:
 5837:	  1478	90 5F C1		MOV   DPTR,#TM24_ENABLE_1
 5838:	  147B	E0		   MOVX  A,@DPTR
 5839:	  147C	C2 E1			CLR	TM24D
 5840:	  147E	F0			MOVX  @DPTR,A
 5841:
 5842:	  147F	90 24 88	   MOV   DPTR,#TMS24H
 5843:	  1482	E0		   MOVX  A,@DPTR
 5844:	  1483	FD		   MOV   R5,A
 5845:	  1484	A3		   INC   DPTR
 5846:	  1485	E0		   MOVX  A,@DPTR
 5847:	  1486	90 23 B9	   MOV   DPTR,#TMC24L
 5848:	  1489	F0			MOVX	@DPTR,A
 5849:	  148A	90 23 B8	   MOV   DPTR,#TMC24H
 5850:	  148D	ED		   MOV   A,R5
 5851:	  148E	F0			MOVX	@DPTR,A
 5852:				;--------------------------------------------------
 5853:	  148F			   TM25_HANDLER:
 5854:
 5855:	  148F	90 5F C1	   MOV   DPTR,#TM24_ENABLE_1
 5856:	  1492	E0		   MOVX  A,@DPTR
 5857:	  1493	30 E2 3A	   JNB	TM25E,TMR25_NOT_ENABLED
 5858:	  1496	20 E3 4E		JB	   TM25D,TM26_HANDLER
 5859:	  1499	30 08 4B		JNB   HUND_MSEC_BIT,TM26_HANDLER

ASEM-51 V1.3                                        Copyright (c) 2002 by W.W. Heinz                                        PAGE 106



 Line  I  Addr  Code            Source

 5860:	  149C	C3		   CLR	C
 5861:	  149D	90 23 BB	   MOV   DPTR,#TMC25L
 5862:	  14A0	E0			MOVX	A,@DPTR
 5863:	  14A1	94 01			SUBB	A,#01
 5864:	  14A3	F0			MOVX	@DPTR,A
 5865:	  14A4	90 23 BA	   MOV   DPTR,#TMC25H
 5866:	  14A7	E0			MOVX	A,@DPTR
 5867:	  14A8	94 00			SUBB	A,#0
 5868:	  14AA	F0			MOVX	@DPTR,A
 5869:	  14AB	40 13			JC	   SET_TMR25_DONE
 5870:	  14AD	60 02			JZ	   CHK_TMC25L
 5871:	  14AF	80 06			SJMP	TMR25_NOT_DONE
 5872:
 5873:	  14B1			   CHK_TMC25L:
 5874:
 5875:	  14B1	90 23 BB	   MOV   DPTR,#TMC25L
 5876:	  14B4	E0			MOVX	A,@DPTR
 5877:	  14B5	60 09			JZ	   SET_TMR25_DONE
 5878:
 5879:	  14B7			   TMR25_NOT_DONE:
 5880:
 5881:	  14B7	90 5F C1		MOV   DPTR,#TM24_ENABLE_1
 5882:	  14BA	E0		   MOVX  A,@DPTR
 5883:	  14BB	C2 E3			CLR	TM25D
 5884:	  14BD	F0			MOVX  @DPTR,A
 5885:	  14BE	80 27			SJMP	TM26_HANDLER
 5886:
 5887:	  14C0			   SET_TMR25_DONE:
 5888:
 5889:	  14C0	90 5F C1	   MOV   DPTR,#TM24_ENABLE_1
 5890:	  14C3	E0		   MOVX  A,@DPTR
 5891:	  14C4	D2 E3		   SETB	TM25D
 5892:	  14C6	F0		   MOVX  @DPTR,A
 5893:	  14C7	E4		   CLR   A
 5894:	  14C8	90 23 BA	   MOV   DPTR,#TMC25H
 5895:	  14CB	F0			MOVX	@DPTR,A
 5896:	  14CC	A3		   INC   DPTR
 5897:	  14CD	F0		   MOVX	@DPTR,A
 5898:	  14CE	80 17			SJMP	TM26_HANDLER
 5899:
 5900:	  14D0			   TMR25_NOT_ENABLED:
 5901:
 5902:	  14D0	90 5F C1		MOV   DPTR,#TM24_ENABLE_1
 5903:	  14D3	E0		   MOVX  A,@DPTR
 5904:	  14D4	C2 E3			CLR	TM25D
 5905:	  14D6	F0			MOVX  @DPTR,A
 5906:
 5907:	  14D7	90 24 8A	   MOV   DPTR,#TMS25H
 5908:	  14DA	E0		   MOVX  A,@DPTR
 5909:	  14DB	FD		   MOV   R5,A
 5910:	  14DC	A3		   INC   DPTR
 5911:	  14DD	E0		   MOVX  A,@DPTR
 5912:	  14DE	90 23 BB	   MOV   DPTR,#TMC25L
 5913:	  14E1	F0			MOVX	@DPTR,A
 5914:	  14E2	90 23 BA	   MOV   DPTR,#TMC25H
 5915:	  14E5	ED		   MOV   A,R5

ASEM-51 V1.3                                        Copyright (c) 2002 by W.W. Heinz                                        PAGE 107



 Line  I  Addr  Code            Source

 5916:	  14E6	F0			MOVX	@DPTR,A
 5917:				;---------------------------------------------------------
 5918:	  14E7			   TM26_HANDLER:
 5919:
 5920:	  14E7	90 5F C1	   MOV   DPTR,#TM24_ENABLE_1
 5921:	  14EA	E0		   MOVX  A,@DPTR
 5922:	  14EB	30 E4 3A	   JNB	TM26E,TMR26_NOT_ENABLED
 5923:	  14EE	20 E5 4E		JB	   TM26D,TM27_HANDLER
 5924:	  14F1	30 08 4B		JNB   HUND_MSEC_BIT,TM27_HANDLER
 5925:	  14F4	C3		   CLR	C
 5926:	  14F5	90 23 BD	   MOV   DPTR,#TMC26L
 5927:	  14F8	E0			MOVX	A,@DPTR
 5928:	  14F9	94 01			SUBB	A,#01
 5929:	  14FB	F0			MOVX	@DPTR,A
 5930:	  14FC	90 23 BC	   MOV   DPTR,#TMC26H
 5931:	  14FF	E0			MOVX	A,@DPTR
 5932:	  1500	94 00			SUBB	A,#0
 5933:	  1502	F0			MOVX	@DPTR,A
 5934:	  1503	40 13			JC	   SET_TMR26_DONE
 5935:	  1505	60 02			JZ	   CHK_TMC26L
 5936:	  1507	80 06			SJMP	TMR26_NOT_DONE
 5937:
 5938:	  1509			   CHK_TMC26L:
 5939:
 5940:	  1509	90 23 BD	   MOV   DPTR,#TMC26L
 5941:	  150C	E0			MOVX	A,@DPTR
 5942:	  150D	60 09			JZ	   SET_TMR26_DONE
 5943:
 5944:	  150F			   TMR26_NOT_DONE:
 5945:
 5946:	  150F	90 5F C1		MOV   DPTR,#TM24_ENABLE_1
 5947:	  1512	E0		   MOVX  A,@DPTR
 5948:	  1513	C2 E5			CLR	TM26D
 5949:	  1515	F0			MOVX  @DPTR,A
 5950:	  1516	80 27			SJMP	TM27_HANDLER
 5951:
 5952:	  1518			   SET_TMR26_DONE:
 5953:
 5954:	  1518	90 5F C1	   MOV   DPTR,#TM24_ENABLE_1
 5955:	  151B	E0		   MOVX  A,@DPTR
 5956:	  151C	D2 E5		   SETB	TM26D
 5957:	  151E	F0		   MOVX  @DPTR,A
 5958:	  151F	E4		   CLR   A
 5959:	  1520	90 23 BC	   MOV   DPTR,#TMC26H
 5960:	  1523	F0			MOVX	@DPTR,A
 5961:	  1524	A3		   INC   DPTR
 5962:	  1525	F0		   MOVX	@DPTR,A
 5963:	  1526	80 17			SJMP	TM27_HANDLER
 5964:
 5965:	  1528			   TMR26_NOT_ENABLED:
 5966:
 5967:	  1528	90 5F C1		MOV   DPTR,#TM24_ENABLE_1
 5968:	  152B	E0		   MOVX  A,@DPTR
 5969:	  152C	C2 E5			CLR	TM26D
 5970:	  152E	F0			MOVX  @DPTR,A
 5971:

ASEM-51 V1.3                                        Copyright (c) 2002 by W.W. Heinz                                        PAGE 108



 Line  I  Addr  Code            Source

 5972:	  152F	90 24 8C	   MOV   DPTR,#TMS26H
 5973:	  1532	E0		   MOVX  A,@DPTR
 5974:	  1533	FD		   MOV   R5,A
 5975:	  1534	A3		   INC   DPTR
 5976:	  1535	E0		   MOVX  A,@DPTR
 5977:	  1536	90 23 BD	   MOV   DPTR,#TMC26L
 5978:	  1539	F0			MOVX	@DPTR,A
 5979:	  153A	90 23 BC	   MOV   DPTR,#TMC26H
 5980:	  153D	ED		   MOV   A,R5
 5981:	  153E	F0			MOVX	@DPTR,A
 5982:				;-----------------------------------------------------------
 5983:	  153F			   TM27_HANDLER:
 5984:
 5985:	  153F	90 5F C1	   MOV   DPTR,#TM24_ENABLE_1
 5986:	  1542	E0		   MOVX  A,@DPTR
 5987:	  1543	30 E6 3A	   JNB	TM27E,TMR27_NOT_ENABLED
 5988:	  1546	20 E7 4E		JB	   TM27D,TM28_HANDLER
 5989:	  1549	30 08 4B		JNB   HUND_MSEC_BIT,TM28_HANDLER
 5990:	  154C	C3		   CLR	C
 5991:	  154D	90 23 BF	   MOV   DPTR,#TMC27L
 5992:	  1550	E0			MOVX	A,@DPTR
 5993:	  1551	94 01			SUBB	A,#01
 5994:	  1553	F0			MOVX	@DPTR,A
 5995:	  1554	90 23 BE	   MOV   DPTR,#TMC27H
 5996:	  1557	E0			MOVX	A,@DPTR
 5997:	  1558	94 00			SUBB	A,#0
 5998:	  155A	F0			MOVX	@DPTR,A
 5999:	  155B	40 13			JC	   SET_TMR27_DONE
 6000:	  155D	60 02			JZ	   CHK_TMC27L
 6001:	  155F	80 06			SJMP	TMR27_NOT_DONE
 6002:
 6003:	  1561			   CHK_TMC27L:
 6004:
 6005:	  1561	90 23 BF	   MOV   DPTR,#TMC27L
 6006:	  1564	E0			MOVX	A,@DPTR
 6007:	  1565	60 09			JZ	   SET_TMR27_DONE
 6008:
 6009:	  1567			   TMR27_NOT_DONE:
 6010:
 6011:	  1567	90 5F C1		MOV   DPTR,#TM24_ENABLE_1
 6012:	  156A	E0		   MOVX  A,@DPTR
 6013:	  156B	C2 E7			CLR	TM27D
 6014:	  156D	F0			MOVX  @DPTR,A
 6015:	  156E	80 27			SJMP	TM28_HANDLER
 6016:
 6017:	  1570			   SET_TMR27_DONE:
 6018:
 6019:	  1570	90 5F C1	   MOV   DPTR,#TM24_ENABLE_1
 6020:	  1573	E0		   MOVX  A,@DPTR
 6021:	  1574	D2 E7		   SETB	TM27D
 6022:	  1576	F0		   MOVX  @DPTR,A
 6023:	  1577	E4		   CLR   A
 6024:	  1578	90 23 BE	   MOV   DPTR,#TMC27H
 6025:	  157B	F0			MOVX	@DPTR,A
 6026:	  157C	A3		   INC   DPTR
 6027:	  157D	F0		   MOVX	@DPTR,A

ASEM-51 V1.3                                        Copyright (c) 2002 by W.W. Heinz                                        PAGE 109



 Line  I  Addr  Code            Source

 6028:	  157E	80 17			SJMP	TM28_HANDLER
 6029:
 6030:	  1580			   TMR27_NOT_ENABLED:
 6031:
 6032:	  1580	90 5F C1		MOV   DPTR,#TM24_ENABLE_1
 6033:	  1583	E0		   MOVX  A,@DPTR
 6034:	  1584	C2 E7			CLR	TM27D
 6035:	  1586	F0			MOVX  @DPTR,A
 6036:
 6037:	  1587	90 24 8E	   MOV   DPTR,#TMS27H
 6038:	  158A	E0		   MOVX  A,@DPTR
 6039:	  158B	FD		   MOV   R5,A
 6040:	  158C	A3		   INC   DPTR
 6041:	  158D	E0		   MOVX  A,@DPTR
 6042:	  158E	90 23 BF	   MOV   DPTR,#TMC27L
 6043:	  1591	F0			MOVX	@DPTR,A
 6044:	  1592	90 23 BE	   MOV   DPTR,#TMC27H
 6045:	  1595	ED		   MOV   A,R5
 6046:	  1596	F0			MOVX	@DPTR,A
 6047:
 6048:	  1597			   TM28_HANDLER:
 6049:				;------------------------------------
 6050:
 6051:	  1597	90 5F C2	   MOV   DPTR,#TM28_ENABLE_1
 6052:	  159A	E0		   MOVX  A,@DPTR
 6053:	  159B	30 E0 3A	   JNB	TM28E,TMR28_NOT_ENABLED
 6054:	  159E	20 E1 4E		JB	   TM28D,TM29_HANDLER
 6055:	  15A1	30 08 4B		JNB   HUND_MSEC_BIT,TM29_HANDLER
 6056:	  15A4	C3		   CLR	C
 6057:	  15A5	90 24 AD	   MOV   DPTR,#TMC28L
 6058:	  15A8	E0			MOVX	A,@DPTR
 6059:	  15A9	94 01			SUBB	A,#01
 6060:	  15AB	F0			MOVX	@DPTR,A
 6061:	  15AC	90 24 AC	   MOV   DPTR,#TMC28H
 6062:	  15AF	E0			MOVX	A,@DPTR
 6063:	  15B0	94 00			SUBB	A,#0
 6064:	  15B2	F0			MOVX	@DPTR,A
 6065:	  15B3	40 13			JC	   SET_TMR28_DONE
 6066:	  15B5	60 02			JZ	   CHK_TMC28L
 6067:	  15B7	80 06			SJMP	TMR28_NOT_DONE
 6068:
 6069:	  15B9			   CHK_TMC28L:
 6070:
 6071:	  15B9	90 24 AD	   MOV   DPTR,#TMC28L
 6072:	  15BC	E0			MOVX	A,@DPTR
 6073:	  15BD	60 09			JZ	   SET_TMR28_DONE
 6074:
 6075:	  15BF			   TMR28_NOT_DONE:
 6076:
 6077:	  15BF	90 5F C2		MOV   DPTR,#TM28_ENABLE_1
 6078:	  15C2	E0		   MOVX  A,@DPTR
 6079:	  15C3	C2 E1			CLR	TM28D
 6080:	  15C5	F0			MOVX  @DPTR,A
 6081:	  15C6	80 27			SJMP	TM29_HANDLER
 6082:
 6083:	  15C8			   SET_TMR28_DONE:

ASEM-51 V1.3                                        Copyright (c) 2002 by W.W. Heinz                                        PAGE 110



 Line  I  Addr  Code            Source

 6084:
 6085:	  15C8	90 5F C2	   MOV   DPTR,#TM28_ENABLE_1
 6086:	  15CB	E0		   MOVX  A,@DPTR
 6087:	  15CC	D2 E1		   SETB	TM28D
 6088:	  15CE	F0		   MOVX  @DPTR,A
 6089:	  15CF	E4		   CLR   A
 6090:	  15D0	90 24 AC	   MOV   DPTR,#TMC28H
 6091:	  15D3	F0			MOVX	@DPTR,A
 6092:	  15D4	A3		   INC   DPTR
 6093:	  15D5	F0		   MOVX	@DPTR,A
 6094:	  15D6	80 17			SJMP	TM29_HANDLER
 6095:
 6096:	  15D8			   TMR28_NOT_ENABLED:
 6097:
 6098:	  15D8	90 5F C2		MOV   DPTR,#TM28_ENABLE_1
 6099:	  15DB	E0		   MOVX  A,@DPTR
 6100:	  15DC	C2 E1			CLR	TM28D
 6101:	  15DE	F0			MOVX  @DPTR,A
 6102:
 6103:	  15DF	90 24 A0	   MOV   DPTR,#TMS28H
 6104:	  15E2	E0		   MOVX  A,@DPTR
 6105:	  15E3	FD		   MOV   R5,A
 6106:	  15E4	A3		   INC   DPTR
 6107:	  15E5	E0		   MOVX  A,@DPTR
 6108:	  15E6	90 24 AD	   MOV   DPTR,#TMC28L
 6109:	  15E9	F0			MOVX	@DPTR,A
 6110:	  15EA	90 24 AC	   MOV   DPTR,#TMC28H
 6111:	  15ED	ED		   MOV   A,R5
 6112:	  15EE	F0			MOVX	@DPTR,A
 6113:				;--------------------------------------------------
 6114:	  15EF			   TM29_HANDLER:
 6115:
 6116:	  15EF	90 5F C2	   MOV   DPTR,#TM28_ENABLE_1
 6117:	  15F2	E0		   MOVX  A,@DPTR
 6118:	  15F3	30 E2 3A	   JNB	TM29E,TMR29_NOT_ENABLED
 6119:	  15F6	20 E3 4E		JB	   TM29D,TM30_HANDLER
 6120:	  15F9	30 08 4B		JNB   HUND_MSEC_BIT,TM30_HANDLER
 6121:	  15FC	C3		   CLR	C
 6122:	  15FD	90 24 AF	   MOV   DPTR,#TMC29L
 6123:	  1600	E0			MOVX	A,@DPTR
 6124:	  1601	94 01			SUBB	A,#01
 6125:	  1603	F0			MOVX	@DPTR,A
 6126:	  1604	90 24 AE	   MOV   DPTR,#TMC29H
 6127:	  1607	E0			MOVX	A,@DPTR
 6128:	  1608	94 00			SUBB	A,#0
 6129:	  160A	F0			MOVX	@DPTR,A
 6130:	  160B	40 13			JC	   SET_TMR29_DONE
 6131:	  160D	60 02			JZ	   CHK_TMC29L
 6132:	  160F	80 06			SJMP	TMR29_NOT_DONE
 6133:
 6134:	  1611			   CHK_TMC29L:
 6135:
 6136:	  1611	90 24 AF	   MOV   DPTR,#TMC29L
 6137:	  1614	E0			MOVX	A,@DPTR
 6138:	  1615	60 09			JZ	   SET_TMR29_DONE
 6139:

ASEM-51 V1.3                                        Copyright (c) 2002 by W.W. Heinz                                        PAGE 111



 Line  I  Addr  Code            Source

 6140:	  1617			   TMR29_NOT_DONE:
 6141:
 6142:	  1617	90 5F C2		MOV   DPTR,#TM28_ENABLE_1
 6143:	  161A	E0		   MOVX  A,@DPTR
 6144:	  161B	C2 E3			CLR	TM29D
 6145:	  161D	F0			MOVX  @DPTR,A
 6146:	  161E	80 27			SJMP	TM30_HANDLER
 6147:
 6148:	  1620			   SET_TMR29_DONE:
 6149:
 6150:	  1620	90 5F C2	   MOV   DPTR,#TM28_ENABLE_1
 6151:	  1623	E0		   MOVX  A,@DPTR
 6152:	  1624	D2 E3		   SETB	TM29D
 6153:	  1626	F0		   MOVX  @DPTR,A
 6154:	  1627	E4		   CLR   A
 6155:	  1628	90 24 AE	   MOV   DPTR,#TMC29H
 6156:	  162B	F0			MOVX	@DPTR,A
 6157:	  162C	A3		   INC   DPTR
 6158:	  162D	F0		   MOVX	@DPTR,A
 6159:	  162E	80 17			SJMP	TM30_HANDLER
 6160:
 6161:	  1630			   TMR29_NOT_ENABLED:
 6162:
 6163:	  1630	90 5F C2		MOV   DPTR,#TM28_ENABLE_1
 6164:	  1633	E0		   MOVX  A,@DPTR
 6165:	  1634	C2 E3			CLR	TM29D
 6166:	  1636	F0			MOVX  @DPTR,A
 6167:
 6168:	  1637	90 24 A2	   MOV   DPTR,#TMS29H
 6169:	  163A	E0		   MOVX  A,@DPTR
 6170:	  163B	FD		   MOV   R5,A
 6171:	  163C	A3		   INC   DPTR
 6172:	  163D	E0		   MOVX  A,@DPTR
 6173:	  163E	90 24 AF	   MOV   DPTR,#TMC29L
 6174:	  1641	F0			MOVX	@DPTR,A
 6175:	  1642	90 24 AE	   MOV   DPTR,#TMC29H
 6176:	  1645	ED		   MOV   A,R5
 6177:	  1646	F0			MOVX	@DPTR,A
 6178:				;---------------------------------------------------------
 6179:	  1647			   TM30_HANDLER:
 6180:
 6181:	  1647	90 5F C2	   MOV   DPTR,#TM28_ENABLE_1
 6182:	  164A	E0		   MOVX  A,@DPTR
 6183:	  164B	30 E4 3A	   JNB	TM30E,TMR30_NOT_ENABLED
 6184:	  164E	20 E5 4E		JB	   TM30D,TM31_HANDLER
 6185:	  1651	30 08 4B		JNB   HUND_MSEC_BIT,TM31_HANDLER
 6186:	  1654	C3		   CLR	C
 6187:	  1655	90 24 B1	   MOV   DPTR,#TMC30L
 6188:	  1658	E0			MOVX	A,@DPTR
 6189:	  1659	94 01			SUBB	A,#01
 6190:	  165B	F0			MOVX	@DPTR,A
 6191:	  165C	90 24 B0	   MOV   DPTR,#TMC30H
 6192:	  165F	E0			MOVX	A,@DPTR
 6193:	  1660	94 00			SUBB	A,#0
 6194:	  1662	F0			MOVX	@DPTR,A
 6195:	  1663	40 13			JC	   SET_TMR30_DONE

ASEM-51 V1.3                                        Copyright (c) 2002 by W.W. Heinz                                        PAGE 112



 Line  I  Addr  Code            Source

 6196:	  1665	60 02			JZ	   CHK_TMC30L
 6197:	  1667	80 06			SJMP	TMR30_NOT_DONE
 6198:
 6199:	  1669			   CHK_TMC30L:
 6200:
 6201:	  1669	90 24 B1	   MOV   DPTR,#TMC30L
 6202:	  166C	E0			MOVX	A,@DPTR
 6203:	  166D	60 09			JZ	   SET_TMR30_DONE
 6204:
 6205:	  166F			   TMR30_NOT_DONE:
 6206:
 6207:	  166F	90 5F C2		MOV   DPTR,#TM28_ENABLE_1
 6208:	  1672	E0		   MOVX  A,@DPTR
 6209:	  1673	C2 E5			CLR	TM30D
 6210:	  1675	F0			MOVX  @DPTR,A
 6211:	  1676	80 27			SJMP	TM31_HANDLER
 6212:
 6213:	  1678			   SET_TMR30_DONE:
 6214:
 6215:	  1678	90 5F C2	   MOV   DPTR,#TM28_ENABLE_1
 6216:	  167B	E0		   MOVX  A,@DPTR
 6217:	  167C	D2 E5		   SETB	TM30D
 6218:	  167E	F0		   MOVX  @DPTR,A
 6219:	  167F	E4		   CLR   A
 6220:	  1680	90 24 B0	   MOV   DPTR,#TMC30H
 6221:	  1683	F0			MOVX	@DPTR,A
 6222:	  1684	A3		   INC   DPTR
 6223:	  1685	F0		   MOVX	@DPTR,A
 6224:	  1686	80 17			SJMP	TM31_HANDLER
 6225:
 6226:	  1688			   TMR30_NOT_ENABLED:
 6227:
 6228:	  1688	90 5F C2		MOV   DPTR,#TM28_ENABLE_1
 6229:	  168B	E0		   MOVX  A,@DPTR
 6230:	  168C	C2 E5			CLR	TM30D
 6231:	  168E	F0			MOVX  @DPTR,A
 6232:
 6233:	  168F	90 24 A4	   MOV   DPTR,#TMS30H
 6234:	  1692	E0		   MOVX  A,@DPTR
 6235:	  1693	FD		   MOV   R5,A
 6236:	  1694	A3		   INC   DPTR
 6237:	  1695	E0		   MOVX  A,@DPTR
 6238:	  1696	90 24 B1	   MOV   DPTR,#TMC30L
 6239:	  1699	F0			MOVX	@DPTR,A
 6240:	  169A	90 24 B0	   MOV   DPTR,#TMC30H
 6241:	  169D	ED		   MOV   A,R5
 6242:	  169E	F0			MOVX	@DPTR,A
 6243:				;-----------------------------------------------------------
 6244:	  169F			   TM31_HANDLER:
 6245:
 6246:	  169F	90 5F C2	   MOV   DPTR,#TM28_ENABLE_1
 6247:	  16A2	E0		   MOVX  A,@DPTR
 6248:	  16A3	30 E6 3A	   JNB	TM31E,TMR31_NOT_ENABLED
 6249:	  16A6	20 E7 4E		JB	   TM31D,TM32_HANDLER
 6250:	  16A9	30 08 4B		JNB   HUND_MSEC_BIT,TM32_HANDLER
 6251:	  16AC	C3		   CLR	C

ASEM-51 V1.3                                        Copyright (c) 2002 by W.W. Heinz                                        PAGE 113



 Line  I  Addr  Code            Source

 6252:	  16AD	90 24 B3	   MOV   DPTR,#TMC31L
 6253:	  16B0	E0			MOVX	A,@DPTR
 6254:	  16B1	94 01			SUBB	A,#01
 6255:	  16B3	F0			MOVX	@DPTR,A
 6256:	  16B4	90 24 B2	   MOV   DPTR,#TMC31H
 6257:	  16B7	E0			MOVX	A,@DPTR
 6258:	  16B8	94 00			SUBB	A,#0
 6259:	  16BA	F0			MOVX	@DPTR,A
 6260:	  16BB	40 13			JC	   SET_TMR31_DONE
 6261:	  16BD	60 02			JZ	   CHK_TMC31L
 6262:	  16BF	80 06			SJMP	TMR31_NOT_DONE
 6263:
 6264:	  16C1			   CHK_TMC31L:
 6265:
 6266:	  16C1	90 24 B3	   MOV   DPTR,#TMC31L
 6267:	  16C4	E0			MOVX	A,@DPTR
 6268:	  16C5	60 09			JZ	   SET_TMR31_DONE
 6269:
 6270:	  16C7			   TMR31_NOT_DONE:
 6271:
 6272:	  16C7	90 5F C2		MOV   DPTR,#TM28_ENABLE_1
 6273:	  16CA	E0		   MOVX  A,@DPTR
 6274:	  16CB	C2 E7			CLR	TM31D
 6275:	  16CD	F0			MOVX  @DPTR,A
 6276:	  16CE	80 27			SJMP	TM32_HANDLER
 6277:
 6278:	  16D0			   SET_TMR31_DONE:
 6279:
 6280:	  16D0	90 5F C2	   MOV   DPTR,#TM28_ENABLE_1
 6281:	  16D3	E0		   MOVX  A,@DPTR
 6282:	  16D4	D2 E7		   SETB	TM31D
 6283:	  16D6	F0		   MOVX  @DPTR,A
 6284:	  16D7	E4		   CLR   A
 6285:	  16D8	90 24 B2	   MOV   DPTR,#TMC31H
 6286:	  16DB	F0			MOVX	@DPTR,A
 6287:	  16DC	A3		   INC   DPTR
 6288:	  16DD	F0		   MOVX	@DPTR,A
 6289:	  16DE	80 17			SJMP	TM32_HANDLER
 6290:
 6291:	  16E0			   TMR31_NOT_ENABLED:
 6292:
 6293:	  16E0	90 5F C2		MOV   DPTR,#TM28_ENABLE_1
 6294:	  16E3	E0		   MOVX  A,@DPTR
 6295:	  16E4	C2 E7			CLR	TM31D
 6296:	  16E6	F0			MOVX  @DPTR,A
 6297:
 6298:	  16E7	90 24 A6	   MOV   DPTR,#TMS31H
 6299:	  16EA	E0		   MOVX  A,@DPTR
 6300:	  16EB	FD		   MOV   R5,A
 6301:	  16EC	A3		   INC   DPTR
 6302:	  16ED	E0		   MOVX  A,@DPTR
 6303:	  16EE	90 24 B3	   MOV   DPTR,#TMC31L
 6304:	  16F1	F0			MOVX	@DPTR,A
 6305:	  16F2	90 24 B2	   MOV   DPTR,#TMC31H
 6306:	  16F5	ED		   MOV   A,R5
 6307:	  16F6	F0			MOVX	@DPTR,A

ASEM-51 V1.3                                        Copyright (c) 2002 by W.W. Heinz                                        PAGE 114



 Line  I  Addr  Code            Source

 6308:
 6309:	  16F7			   TM32_HANDLER:
 6310:				;---------------------------------------------------------------------------------
 6311:				;   ERROR TIMER STARS FROM HERE
 6312:				;---------------------------------------------------------------------------------
 6313:	  16F7			   TM40_HANDLER:
 6314:
 6315:	  16F7	90 5F C3	   MOV   DPTR,#TM40_ENABLE_1
 6316:	  16FA	E0		   MOVX  A,@DPTR
 6317:	  16FB	30 E0 3A	   JNB	TM40E,TMR40_NOT_ENABLED
 6318:	  16FE	20 E1 4E		JB	   TM40D,TM41_HANDLER
 6319:	  1701	30 03 4B		JNB   TEN_MSEC_BIT,TM41_HANDLER
 6320:	  1704	C3		   CLR	C
 6321:	  1705	90 23 C3	   MOV   DPTR,#TMC40L
 6322:	  1708	E0			MOVX	A,@DPTR
 6323:	  1709	94 01			SUBB	A,#01
 6324:	  170B	F0			MOVX	@DPTR,A
 6325:	  170C	90 23 C2	   MOV   DPTR,#TMC40H
 6326:	  170F	E0			MOVX	A,@DPTR
 6327:	  1710	94 00			SUBB	A,#0
 6328:	  1712	F0			MOVX	@DPTR,A
 6329:	  1713	40 13			JC	   SET_TMR40_DONE
 6330:	  1715	60 02			JZ	   CHK_TMC40L
 6331:	  1717	80 06			SJMP	TMR40_NOT_DONE
 6332:
 6333:	  1719			   CHK_TMC40L:
 6334:
 6335:	  1719	90 23 C3	   MOV   DPTR,#TMC40L
 6336:	  171C	E0			MOVX	A,@DPTR
 6337:	  171D	60 09			JZ	   SET_TMR40_DONE
 6338:
 6339:	  171F			   TMR40_NOT_DONE:
 6340:
 6341:	  171F	90 5F C3		MOV   DPTR,#TM40_ENABLE_1
 6342:	  1722	E0			MOVX  A,@DPTR
 6343:	  1723	C2 E1			CLR	TM40D
 6344:	  1725	F0		   MOVX  @DPTR,A
 6345:	  1726	80 27			SJMP	TM41_HANDLER
 6346:
 6347:	  1728			   SET_TMR40_DONE:
 6348:
 6349:	  1728	90 5F C3	   MOV   DPTR,#TM40_ENABLE_1
 6350:	  172B	E0		   MOVX  A,@DPTR
 6351:	  172C	D2 E1		   SETB	TM40D
 6352:	  172E	F0		   MOVX  @DPTR,A
 6353:	  172F	E4		   CLR   A
 6354:	  1730	90 23 C2	   MOV   DPTR,#TMC40H
 6355:	  1733	F0			MOVX	@DPTR,A
 6356:	  1734	A3		   INC   DPTR
 6357:	  1735	F0		   MOVX	@DPTR,A
 6358:	  1736	80 17			SJMP	TM41_HANDLER
 6359:
 6360:	  1738			   TMR40_NOT_ENABLED:
 6361:
 6362:	  1738	90 5F C3		MOV   DPTR,#TM40_ENABLE_1
 6363:	  173B	E0		   MOVX  A,@DPTR

ASEM-51 V1.3                                        Copyright (c) 2002 by W.W. Heinz                                        PAGE 115



 Line  I  Addr  Code            Source

 6364:	  173C	C2 E1			CLR	TM40D
 6365:	  173E	F0		   MOVX  @DPTR,A
 6366:
 6367:	  173F	90 24 90	   MOV   DPTR,#TMS40H
 6368:	  1742	E0		   MOVX  A,@DPTR
 6369:	  1743	FD		   MOV   R5,A
 6370:	  1744	A3		   INC   DPTR
 6371:	  1745	E0		   MOVX  A,@DPTR
 6372:	  1746	90 23 C3	   MOV   DPTR,#TMC40L
 6373:	  1749	F0			MOVX	@DPTR,A
 6374:	  174A	90 23 C2	   MOV   DPTR,#TMC40H
 6375:	  174D	ED		   MOV   A,R5
 6376:	  174E	F0			MOVX	@DPTR,A
 6377:
 6378:				;--------------------------------------------------------------------------------
 6379:
 6380:	  174F			   TM41_HANDLER:
 6381:
 6382:	  174F	90 5F C3	   MOV   DPTR,#TM40_ENABLE_1
 6383:	  1752	E0		   MOVX  A,@DPTR
 6384:	  1753	30 E2 3A	   JNB	TM41E,TMR41_NOT_ENABLED
 6385:	  1756	20 E3 4E		JB	   TM41D,TM42_HANDLER
 6386:	  1759	30 03 4B		JNB   TEN_MSEC_BIT,TM42_HANDLER
 6387:	  175C	C3		   CLR	C
 6388:	  175D	90 23 C5	   MOV   DPTR,#TMC41L
 6389:	  1760	E0			MOVX	A,@DPTR
 6390:	  1761	94 01			SUBB	A,#01
 6391:	  1763	F0			MOVX	@DPTR,A
 6392:	  1764	90 23 C4	   MOV   DPTR,#TMC41H
 6393:	  1767	E0			MOVX	A,@DPTR
 6394:	  1768	94 00			SUBB	A,#0
 6395:	  176A	F0			MOVX	@DPTR,A
 6396:	  176B	40 13			JC	   SET_TMR41_DONE
 6397:	  176D	60 02			JZ	   CHK_TMC41L
 6398:	  176F	80 06			SJMP	TMR41_NOT_DONE
 6399:
 6400:	  1771			   CHK_TMC41L:
 6401:
 6402:	  1771	90 23 C5	   MOV   DPTR,#TMC41L
 6403:	  1774	E0			MOVX	A,@DPTR
 6404:	  1775	60 09			JZ	   SET_TMR41_DONE
 6405:
 6406:	  1777			   TMR41_NOT_DONE:
 6407:
 6408:	  1777	90 5F C3		MOV   DPTR,#TM40_ENABLE_1
 6409:	  177A	E0			MOVX  A,@DPTR
 6410:	  177B	C2 E3			CLR	TM41D
 6411:	  177D	F0			MOVX  @DPTR,A
 6412:	  177E	80 27			SJMP	TM42_HANDLER
 6413:
 6414:	  1780			   SET_TMR41_DONE:
 6415:
 6416:	  1780	90 5F C3	   MOV   DPTR,#TM40_ENABLE_1
 6417:	  1783	E0			MOVX  A,@DPTR
 6418:	  1784	D2 E3			SETB	TM41D
 6419:	  1786	F0			MOVX  @DPTR,A

ASEM-51 V1.3                                        Copyright (c) 2002 by W.W. Heinz                                        PAGE 116



 Line  I  Addr  Code            Source

 6420:
 6421:	  1787	E4		   CLR   A
 6422:	  1788	90 23 C4	   MOV   DPTR,#TMC41H
 6423:	  178B	F0			MOVX	@DPTR,A
 6424:	  178C	A3		   INC   DPTR
 6425:	  178D	F0		   MOVX	@DPTR,A
 6426:	  178E	80 17			SJMP	TM42_HANDLER
 6427:
 6428:	  1790			   TMR41_NOT_ENABLED:
 6429:
 6430:	  1790	90 5F C3		MOV   DPTR,#TM40_ENABLE_1
 6431:	  1793	E0			MOVX  A,@DPTR
 6432:	  1794	C2 E3			CLR	TM41D
 6433:	  1796	F0			MOVX  @DPTR,A
 6434:
 6435:	  1797	90 24 92	   MOV   DPTR,#TMS41H
 6436:	  179A	E0		   MOVX  A,@DPTR
 6437:	  179B	FD		   MOV   R5,A
 6438:	  179C	A3		   INC   DPTR
 6439:	  179D	E0		   MOVX  A,@DPTR
 6440:	  179E	90 23 C5	   MOV   DPTR,#TMC41L
 6441:	  17A1	F0			MOVX	@DPTR,A
 6442:	  17A2	90 23 C4	   MOV   DPTR,#TMC41H
 6443:	  17A5	ED		   MOV   A,R5
 6444:	  17A6	F0			MOVX	@DPTR,A
 6445:				;---------------------------------------------------------------
 6446:	  17A7			   TM42_HANDLER:
 6447:
 6448:	  17A7	90 5F C3	   MOV   DPTR,#TM40_ENABLE_1
 6449:	  17AA	E0		   MOVX  A,@DPTR
 6450:	  17AB	30 E4 3A	   JNB	TM42E,TMR42_NOT_ENABLED
 6451:	  17AE	20 E5 4E		JB	   TM42D,TM43_HANDLER
 6452:	  17B1	30 03 4B		JNB   TEN_MSEC_BIT,TM43_HANDLER
 6453:	  17B4	C3		   CLR	C
 6454:	  17B5	90 23 C7	   MOV   DPTR,#TMC42L
 6455:	  17B8	E0			MOVX	A,@DPTR
 6456:	  17B9	94 01			SUBB	A,#01
 6457:	  17BB	F0			MOVX	@DPTR,A
 6458:	  17BC	90 23 C6	   MOV   DPTR,#TMC42H
 6459:	  17BF	E0			MOVX	A,@DPTR
 6460:	  17C0	94 00			SUBB	A,#0
 6461:	  17C2	F0			MOVX	@DPTR,A
 6462:	  17C3	40 13			JC	   SET_TMR42_DONE
 6463:	  17C5	60 02			JZ	   CHK_TMC42L
 6464:	  17C7	80 06			SJMP	TMR42_NOT_DONE
 6465:
 6466:	  17C9			   CHK_TMC42L:
 6467:
 6468:	  17C9	90 23 C7	   MOV   DPTR,#TMC42L
 6469:	  17CC	E0			MOVX	A,@DPTR
 6470:	  17CD	60 09			JZ	   SET_TMR42_DONE
 6471:
 6472:	  17CF			   TMR42_NOT_DONE:
 6473:
 6474:	  17CF	90 5F C3	   MOV   DPTR,#TM40_ENABLE_1
 6475:	  17D2	E0			MOVX  A,@DPTR

ASEM-51 V1.3                                        Copyright (c) 2002 by W.W. Heinz                                        PAGE 117



 Line  I  Addr  Code            Source

 6476:	  17D3	C2 E5			CLR	TM42D
 6477:	  17D5	F0			MOVX  @DPTR,A
 6478:	  17D6	80 27			SJMP	TM43_HANDLER
 6479:
 6480:	  17D8			   SET_TMR42_DONE:
 6481:
 6482:	  17D8	90 5F C3	   MOV   DPTR,#TM40_ENABLE_1
 6483:	  17DB	E0		   MOVX  A,@DPTR
 6484:	  17DC	D2 E5		   SETB	TM42D
 6485:	  17DE	F0		   MOVX  @DPTR,A
 6486:	  17DF	E4		   CLR   A
 6487:	  17E0	90 23 C6	   MOV   DPTR,#TMC42H
 6488:	  17E3	F0			MOVX	@DPTR,A
 6489:	  17E4	A3		   INC   DPTR
 6490:	  17E5	F0		   MOVX	@DPTR,A
 6491:	  17E6	80 17			SJMP	TM43_HANDLER
 6492:
 6493:	  17E8			   TMR42_NOT_ENABLED:
 6494:
 6495:	  17E8	90 5F C3		MOV   DPTR,#TM40_ENABLE_1
 6496:	  17EB	E0			MOVX  A,@DPTR
 6497:	  17EC	C2 E5			CLR	TM42D
 6498:	  17EE	F0			MOVX  @DPTR,A
 6499:	  17EF	90 24 94	   MOV   DPTR,#TMS42H
 6500:	  17F2	E0		   MOVX  A,@DPTR
 6501:	  17F3	FD		   MOV   R5,A
 6502:	  17F4	A3		   INC   DPTR
 6503:	  17F5	E0		   MOVX  A,@DPTR
 6504:	  17F6	90 23 C7	   MOV   DPTR,#TMC42L
 6505:	  17F9	F0			MOVX	@DPTR,A
 6506:	  17FA	90 23 C6	   MOV   DPTR,#TMC42H
 6507:	  17FD	ED		   MOV   A,R5
 6508:	  17FE	F0			MOVX	@DPTR,A
 6509:				;-----------------------------------------------------------
 6510:	  17FF			   TM43_HANDLER:
 6511:
 6512:	  17FF	90 5F C3	   MOV   DPTR,#TM40_ENABLE_1
 6513:	  1802	E0		   MOVX  A,@DPTR
 6514:	  1803	30 E6 3A	   JNB	TM43E,TMR43_NOT_ENABLED
 6515:	  1806	20 E7 4E		JB	   TM43D,TM44_HANDLER
 6516:	  1809	30 03 4B		JNB   TEN_MSEC_BIT,TM44_HANDLER
 6517:	  180C	C3		   CLR	C
 6518:	  180D	90 23 C9	   MOV   DPTR,#TMC43L
 6519:	  1810	E0			MOVX	A,@DPTR
 6520:	  1811	94 01			SUBB	A,#01
 6521:	  1813	F0			MOVX	@DPTR,A
 6522:	  1814	90 23 C8	   MOV   DPTR,#TMC43H
 6523:	  1817	E0			MOVX	A,@DPTR
 6524:	  1818	94 00			SUBB	A,#0
 6525:	  181A	F0			MOVX	@DPTR,A
 6526:	  181B	40 13			JC	   SET_TMR43_DONE
 6527:	  181D	60 02			JZ	   CHK_TMC43L
 6528:	  181F	80 06			SJMP	TMR43_NOT_DONE
 6529:
 6530:	  1821			   CHK_TMC43L:
 6531:

ASEM-51 V1.3                                        Copyright (c) 2002 by W.W. Heinz                                        PAGE 118



 Line  I  Addr  Code            Source

 6532:	  1821	90 23 C9	   MOV   DPTR,#TMC43L
 6533:	  1824	E0			MOVX	A,@DPTR
 6534:	  1825	60 09			JZ	   SET_TMR43_DONE
 6535:
 6536:	  1827			   TMR43_NOT_DONE:
 6537:
 6538:	  1827	90 5F C3		MOV   DPTR,#TM40_ENABLE_1
 6539:	  182A	E0			MOVX  A,@DPTR
 6540:	  182B	C2 E7			CLR	TM43D
 6541:	  182D	F0			MOVX  @DPTR,A
 6542:	  182E	80 27			SJMP	TM44_HANDLER
 6543:
 6544:	  1830			   SET_TMR43_DONE:
 6545:
 6546:	  1830	90 5F C3	   MOV   DPTR,#TM40_ENABLE_1
 6547:	  1833	E0			MOVX  A,@DPTR
 6548:	  1834	D2 E7		   SETB	TM43D
 6549:	  1836	F0		   MOVX  @DPTR,A
 6550:	  1837	E4		   CLR   A
 6551:	  1838	90 23 C8	   MOV   DPTR,#TMC43H
 6552:	  183B	F0			MOVX	@DPTR,A
 6553:	  183C	A3		   INC   DPTR
 6554:	  183D	F0		   MOVX	@DPTR,A
 6555:	  183E	80 17			SJMP	TM44_HANDLER
 6556:
 6557:	  1840			   TMR43_NOT_ENABLED:
 6558:
 6559:	  1840	90 5F C3		MOV   DPTR,#TM40_ENABLE_1
 6560:	  1843	E0			MOVX  A,@DPTR
 6561:	  1844	C2 E7			CLR	TM43D
 6562:	  1846	F0			MOVX  @DPTR,A
 6563:
 6564:
 6565:	  1847	90 24 96	   MOV   DPTR,#TMS43H
 6566:	  184A	E0		   MOVX  A,@DPTR
 6567:	  184B	FD		   MOV   R5,A
 6568:	  184C	A3		   INC   DPTR
 6569:	  184D	E0		   MOVX  A,@DPTR
 6570:	  184E	90 23 C9	   MOV   DPTR,#TMC43L
 6571:	  1851	F0			MOVX	@DPTR,A
 6572:	  1852	90 23 C8	   MOV   DPTR,#TMC43H
 6573:	  1855	ED		   MOV   A,R5
 6574:	  1856	F0			MOVX	@DPTR,A
 6575:
 6576:	  1857			   TM44_HANDLER:
 6577:				;---------------------------------------------------------
 6578:	  1857	22		   RET
 6579:				;--------------------------------------------------------------
 6580:	  1858			   LADDER_INIT_2:
 6581:
 6582:	  1858	90 24 97	   MOV   DPTR,#TMS43L      ;TIMER 18 IS USED FOR TEMP LOW LIMIT DEBOUNCING
 6583:	  185B	74 64		   MOV   A,#100
 6584:	  185D	F0		   MOVX  @DPTR,A
 6585:	  185E	90 24 96	   MOV   DPTR,#TMS43H
 6586:	  1861	E4		   CLR   A
 6587:	  1862	F0		   MOVX  @DPTR,A

ASEM-51 V1.3                                        Copyright (c) 2002 by W.W. Heinz                                        PAGE 119



 Line  I  Addr  Code            Source

 6588:
 6589:	  1863	90 24 90	   MOV   DPTR,#TMS40H      ;TMS40H IS BLOW PIN UP ERR TIMER
 6590:	  1866	F0		   MOVX  @DPTR,A
 6591:	  1867	90 24 91	   MOV   DPTR,#TMS40L
 6592:	  186A	74 32		   MOV   A,#50
 6593:	  186C	F0		   MOVX  @DPTR,A
 6594:
 6595:	  186D	E4		   CLR   A
 6596:	  186E	90 24 92	   MOV   DPTR,#TMS41H      ;TMS41H IS MOULD OPEN ERR TIMER
 6597:	  1871	F0		   MOVX  @DPTR,A
 6598:	  1872	90 24 93	   MOV   DPTR,#TMS41L
 6599:	  1875	74 32		   MOV   A,#50
 6600:	  1877	F0		   MOVX  @DPTR,A
 6601:
 6602:	  1878	E4		   CLR   A
 6603:	  1879	90 24 94	   MOV   DPTR,#TMS42H      ;TMS42H IS MOULD OUT ERR TIMER
 6604:	  187C	F0		   MOVX  @DPTR,A
 6605:	  187D	90 24 95	   MOV   DPTR,#TMS42L
 6606:	  1880	74 32		   MOV   A,#50
 6607:	  1882	F0		   MOVX  @DPTR,A
 6608:
 6609:
 6610:	  1883	90 10 90	   MOV   DPTR,#CTS00H
 6611:	  1886	74 27		   MOV   A,#27H
 6612:	  1888	F0		   MOVX  @DPTR,A
 6613:	  1889	90 10 92	   MOV   DPTR,#CTS01H
 6614:	  188C	F0		   MOVX  @DPTR,A
 6615:	  188D	90 10 94	   MOV   DPTR,#CTS02H
 6616:	  1890	F0		   MOVX  @DPTR,A
 6617:	  1891	74 10		   MOV   A,#10H
 6618:	  1893	90 10 91	   MOV   DPTR,#CTS00L
 6619:	  1896	F0		   MOVX  @DPTR,A
 6620:	  1897	90 10 93	   MOV   DPTR,#CTS01L
 6621:	  189A	F0		   MOVX  @DPTR,A
 6622:	  189B	90 10 95	   MOV   DPTR,#CTS02L
 6623:	  189E	F0		   MOVX  @DPTR,A
 6624:	  189F	22		   RET
 6625:
 6626:	  18A0			   LADDER:
 6627:				;-----------------------------------------------------------
 6628:				;SUPREME LADDER STARTS FROM HERE
 6629:				;-------------------------------------------------------------
 6630:	  18A0	A2 42		   MOV    C,AUTO_LUBRICATION_TIM_E
 6631:	  18A2	B0 43		   ANL    C,/AUTO_LUBRICATION_TIM_D
 6632:	  18A4	92 7E		   MOV    RLY39,C
 6633:	  18A6	90 5F 40	   MOV    DPTR,#RLY512_519
 6634:	  18A9	E0		   MOVX   A,@DPTR
 6635:	  18AA	A2 E0		   MOV    C,LUBRICATION_PB
 6636:	  18AC	72 7E		   ORL    C,RLY39
 6637:
 6638:	  18AE	90 5F 44	   MOV    DPTR,#RLY544_551
 6639:	  18B1	E0		   MOVX   A,@DPTR
 6640:	  18B2	82 E1		   ANL    C,LUBRICATION_SEL
 6641:
 6642:	  18B4	92 61		   MOV    LUBRICATION_OP,C
 6643:

ASEM-51 V1.3                                        Copyright (c) 2002 by W.W. Heinz                                        PAGE 120



 Line  I  Addr  Code            Source

 6644:				;----------------------------------------
 6645:	  18B6	90 5F 43	    MOV   DPTR,#RLY536_543
 6646:	  18B9	E0		    MOVX  A,@DPTR
 6647:	  18BA	A2 E3		    MOV   C,LOCKING_SEL_BIT
 6648:	  18BC	92 58		    MOV   LOCKING_SEL,C
 6649:
 6650:	  18BE	E0		    MOVX  A,@DPTR
 6651:	  18BF	A2 E1		    MOV   C,HEATER_ON_OFF_BIT
 6652:	  18C1	92 59		    MOV   HEATER_ON_OFF,C
 6653:
 6654:	  18C3	E0		    MOVX  A,@DPTR
 6655:	  18C4	A2 E0		    MOV   C,AUTO_MAN_SEL_BIT
 6656:	  18C6	92 5A		    MOV   AUTO_MAN_SEL,C
 6657:
 6658:	  18C8	E0		    MOVX  A,@DPTR
 6659:	  18C9	A2 E2		    MOV   C,DOUBLE_CUT_SEL_BIT
 6660:	  18CB	92 5D		    MOV   DOUBLE_CUT_SEL,C
 6661:
 6662:	  18CD	90 5F 43	    MOV   DPTR,#RLY536_543
 6663:	  18D0	E0		    MOVX  A,@DPTR
 6664:	  18D1	A2 E7		    MOV   C,DEFLASH_SEL_BIT
 6665:	  18D3	92 69		    MOV   DEFLASH_SEL,C
 6666:
 6667:				;-----------------------------------------------------------
 6668:				;THIS PROGRAM IS FOR DOUBLE CUT IT WILL TAKE THE SAME TIME
 6669:				;-----------------------------------------------------------
 6670:	  18D5	90 10 56	    MOV   DPTR,#TMS03H
 6671:	  18D8	E0		    MOVX  A,@DPTR
 6672:	  18D9	F5 F0		    MOV   B,A
 6673:	  18DB	A3		    INC   DPTR
 6674:	  18DC	E0		    MOVX  A,@DPTR
 6675:	  18DD	90 10 6F	    MOV   DPTR,#TMS15L
 6676:	  18E0	F0		    MOVX  @DPTR,A
 6677:	  18E1	E5 F0		    MOV   A,B
 6678:	  18E3	90 10 6E	    MOV   DPTR,#TMS15H
 6679:	  18E6	F0		    MOVX  @DPTR,A
 6680:
 6681:
 6682:
 6683:	  18E7			    START_SEQUENCE:
 6684:
 6685:				;----------------------------------------------------------------------------
 6686:				;BLOW MOULDING PROGRAM STARTS HERE
 6687:				;----------------------------------------------------------------------------
 6688:	  18E7	A2 5A		   MOV    C,AUTO_MAN_SEL
 6689:	  18E9	82 48		   ANL    C,MOULD_OPEN_IP
 6690:				  ; ANL    C,BLOW_PINUP_IP
 6691:	  18EB	82 4D		   ANL    C,MOULD_OUT_IP
 6692:	  18ED	50 02		   JNC    HOME_POSN_NOT_ACHIEVED
 6693:	  18EF	D2 5C		   SETB   B_HOME_POSN
 6694:
 6695:
 6696:	  18F1			  HOME_POSN_NOT_ACHIEVED:
 6697:
 6698:
 6699:

ASEM-51 V1.3                                        Copyright (c) 2002 by W.W. Heinz                                        PAGE 121



 Line  I  Addr  Code            Source

 6700:	  18F1	A2 48		  MOV    C,MOULD_OPEN_IP
 6701:				 ; ANL    C,BLOW_PINUP_IP
 6702:	  18F3	82 4D		  ANL    C,MOULD_OUT_IP
 6703:	  18F5	82 5A		  ANL    C,AUTO_MAN_SEL
 6704:	  18F7	82 5C		  ANL    C,B_HOME_POSN
 6705:	  18F9	82 4A		  ANL    C,EMERGENCY_IP
 6706:	  18FB	92 2C		  MOV    MOULDIN_DLY_TM14E,C         ;TM14E IS MOULD IN DELAY
 6707:
 6708:				;---------------------------------------------------------------------
 6709:	  18FD	A2 3B		  MOV    C,MOULD_IN_OP
 6710:				  ;ANL    C,/MOULD_IN_TM00D
 6711:	  18FF	B0 4C		  ANL    C,/MOULD_IN_IP
 6712:	  1901	82 5A		  ANL    C,AUTO_MAN_SEL
 6713:	  1903	82 5C		  ANL    C,B_HOME_POSN
 6714:	  1905	72 2D		  ORL    C,MOULDIN_DLY_TM14D
 6715:	  1907	92 7E		  MOV    RLY39,C
 6716:
 6717:	  1909	90 5F 42	  MOV    DPTR,#RLY528_535
 6718:	  190C	E0		  MOVX   A,@DPTR
 6719:	  190D	A2 E3		  MOV    C,MOULD_IN_PB
 6720:	  190F	72 52		  ORL    C,MOULD_IN_PB_IP
 6721:	  1911	B0 5A		  ANL    C,/AUTO_MAN_SEL
 6722:	  1913	B0 4C		  ANL    C,/MOULD_IN_IP
 6723:	  1915	72 7E		  ORL    C,RLY39
 6724:
 6725:	  1917	82 4A		  ANL    C,EMERGENCY_IP
 6726:				 ; ANL    C,BLOW_PINUP_IP
 6727:	  1919	92 3B		  MOV    MOULD_IN_OP,C
 6728:				;-----------------------------------------------------------------------------
 6729:				;MOULD IN SLOW TIMER
 6730:				;-----------------------------------------------------------------------------
 6731:	  191B	A2 3B		  MOV    C,MOULD_IN_OP      ;MOULD IN IS OP2
 6732:	  191D	92 22		  MOV    MOULDIN_SLOW_TM09E,C      ;TM09 IS MOULD IN SLOW TIMER
 6733:
 6734:				;----------------------------------------------------------------------------
 6735:				;MOULD IN TIMER START
 6736:				;----------------------------------------------------------------------------
 6737:
 6738:
 6739:	  191F	A2 3B		  MOV    C,MOULD_IN_OP
 6740:	  1921	82 5A		  ANL    C,AUTO_MAN_SEL
 6741:	  1923	50 02		  JNC    CHK_MOULD_CLOSE
 6742:	  1925	D2 10		  SETB   MOULD_IN_TM00E                  ;TM0 IS MOULD IN TIME
 6743:
 6744:	  1927			  CHK_MOULD_CLOSE:
 6745:				;--------------------------------
 6746:				   ; MOV   C,MOULD_IN_TM00D
 6747:	  1927	A2 4C		  MOV   C,MOULD_IN_IP
 6748:				 ; ANL   C,BLOW_PINUP_IP
 6749:	  1929	82 48		  ANL   C,MOULD_OPEN_IP
 6750:	  192B	82 5A		  ANL   C,AUTO_MAN_SEL
 6751:	  192D	82 5C		  ANL   C,B_HOME_POSN
 6752:	  192F	50 02		  JNC   MLD_CLS_DLY_NOT_STARTED
 6753:				  ;MOV   MOULD_CLOSE_DLY_TM01E,C
 6754:	  1931	D2 12		  SETB  MOULD_CLOSE_DLY_TM01E
 6755:

ASEM-51 V1.3                                        Copyright (c) 2002 by W.W. Heinz                                        PAGE 122



 Line  I  Addr  Code            Source

 6756:
 6757:
 6758:				;-----------------------------------------------------------------
 6759:
 6760:	  1933			  MLD_CLS_DLY_NOT_STARTED:
 6761:
 6762:	  1933	A2 13		  MOV    C,MOULD_CLOSE_DLY_TM01D
 6763:	  1935	82 48		  ANL    C,MOULD_OPEN_IP
 6764:				;  ANL    C,BLOW_PINUP_IP
 6765:	  1937	82 5A		  ANL    C,AUTO_MAN_SEL
 6766:	  1939	B0 21		  ANL    C,/EXHAUST_TM08D
 6767:	  193B	92 7E		  MOV    RLY39,C
 6768:
 6769:	  193D	A2 38		  MOV    C,MOULD_CLOSE_OP
 6770:	  193F	82 5A		  ANL    C,AUTO_MAN_SEL
 6771:				  ;ANL    C,/MLD_CLS_TM_D
 6772:				; ANL    C,/LOCKING_SEL
 6773:	  1941	B0 57		  ANL    C,/MOULD_CLOSE_IP
 6774:	  1943	72 7E		  ORL    C,RLY39
 6775:	  1945	92 7E		  MOV    RLY39,C
 6776:
 6777:				;  MOV    C,MOULD_CLOSE_OP
 6778:				;  ANL    C,AUTO_MAN_SEL
 6779:				;  ANL    C,LOCKING_SEL
 6780:				;  ANL    C,/EXHAUST_TM08E
 6781:				;  ORL    C,RLY39
 6782:				;  MOV    RLY39,C
 6783:
 6784:	  1947	90 5F 42	  MOV    DPTR,#RLY528_535
 6785:	  194A	E0		  MOVX   A,@DPTR
 6786:	  194B	A2 E0		  MOV    C,MOULD_CLOSE_PB
 6787:	  194D	72 50		  ORL    C,MOULD_CLOSE_PB_IP
 6788:	  194F	B0 5A		  ANL    C,/AUTO_MAN_SEL
 6789:	  1951	B0 57		  ANL    C,/MOULD_CLOSE_IP
 6790:	  1953	72 7E		  ORL    C,RLY39
 6791:
 6792:	  1955	82 4A		  ANL    C,EMERGENCY_IP    ;EMERGENCY
 6793:	  1957	92 38		  MOV    MOULD_CLOSE_OP,C
 6794:				;---------------------------------------------------------------------
 6795:
 6796:
 6797:				;-------------------------------------------------------------------
 6798:				;LOCKING O/P
 6799:				;------------------------------------------------------------------
 6800:				;  MOV    C,AUTO_MAN_SEL
 6801:				;  ANL    C,MLD_CLS_TM_D
 6802:				;  ANL    C,/EXHAUST_TM08E
 6803:				;  MOV    RLY39,C
 6804:
 6805:				;  MOV    DPTR,#RLY520_527
 6806:				;  MOVX   A,@DPTR
 6807:				;  MOV    C,RLY521
 6808:				;  ANL    C,/AUTO_MAN_SEL
 6809:				;  ORL    C,RLY39
 6810:
 6811:				;  MOV    LOCKING_OP,C

ASEM-51 V1.3                                        Copyright (c) 2002 by W.W. Heinz                                        PAGE 123



 Line  I  Addr  Code            Source

 6812:
 6813:				;-----------------------------------------------------------------------------
 6814:				;MOULD CLOSE SLOW TIMER
 6815:				;-----------------------------------------------------------------------------
 6816:
 6817:
 6818:
 6819:
 6820:	  1959	A2 38		  MOV    C,MOULD_CLOSE_OP
 6821:	  195B	92 24		  MOV    MOULDCLOSE_SLOW_TM10E,C      ;TM10 IS MOULD CLOSE SLOW TIMER
 6822:
 6823:	  195D	A2 13		  MOV    C,MOULD_CLOSE_DLY_TM01D
 6824:				;  MOV    C,MOULD_CLOSE_OP
 6825:	  195F	82 5A		  ANL    C,AUTO_MAN_SEL
 6826:	  1961	92 40		  MOV    MLD_CLS_TM_E,C
 6827:				;----------------------------------------------------------------------------
 6828:				;CUTTER DELAY
 6829:				;----------------------------------------------------------------------------
 6830:	  1963	A2 13		  MOV    C,MOULD_CLOSE_DLY_TM01D
 6831:	  1965	82 5A		  ANL    C,AUTO_MAN_SEL
 6832:				 ;ANL    C,MOULD_CLOSE_IP
 6833:				; ANL    C,MOULD_CLOSE_OP
 6834:	  1967	82 4A		  ANL    C,EMERGENCY_IP
 6835:	  1969	50 1D		  JNC    MOULD_CLOSE_IP_ON
 6836:
 6837:	  196B	D2 14		  SETB   CUTTER_DLY_TM02E
 6838:
 6839:	  196D	A2 14		  MOV    C,TM02E
 6840:	  196F	B0 15		  ANL    C,/TM02D
 6841:	  1971	50 15		  JNC    MOULD_CLOSE_IP_ON
 6842:	  1973	30 30 12	  JNB    TM16E,MOULD_CLOSE_IP_ON
 6843:	  1976	90 23 A8	  MOV    DPTR,#TMC16H
 6844:	  1979	E0		  MOVX   A,@DPTR
 6845:	  197A	90 23 C0	  MOV	   DPTR,#CYCLE_TIME_H
 6846:	  197D	F0		  MOVX	@DPTR,A
 6847:	  197E	90 23 A9	  MOV    DPTR,#TMC16L
 6848:	  1981	E0		  MOVX   A,@DPTR
 6849:	  1982	90 23 C1	  MOV	   DPTR,#CYCLE_TIME_L
 6850:	  1985	F0		  MOVX	@DPTR,A
 6851:
 6852:	  1986	C2 30		  CLR    TM16E
 6853:
 6854:	  1988			  MOULD_CLOSE_IP_ON:
 6855:
 6856:
 6857:				;---------------------------------------------------------------------------
 6858:				;CUTTER ON TIME START
 6859:				;---------------------------------------------------------------------------
 6860:
 6861:	  1988			  CHK_CUTTER_ONTIME:
 6862:
 6863:	  1988	A2 16		  MOV   C,TM03E
 6864:	  198A	B0 17		  ANL   C,/TM03D
 6865:	  198C	50 02		  JNC   DONT_START_CYCLE_TIME
 6866:	  198E	D2 30		  SETB  TM16E
 6867:

ASEM-51 V1.3                                        Copyright (c) 2002 by W.W. Heinz                                        PAGE 124



 Line  I  Addr  Code            Source

 6868:	  1990			  DONT_START_CYCLE_TIME:
 6869:
 6870:	  1990	A2 15		  MOV    C,CUTTER_DLY_TM02D
 6871:	  1992	92 16		  MOV    CUTTER_ON_TM03E,C
 6872:	  1994	50 02		  JNC    CUTTER_TIME_NOT_ON
 6873:	  1996	D2 28		  SETB   PARISON_DLY_TM12E
 6874:
 6875:
 6876:	  1998			  CUTTER_TIME_NOT_ON:
 6877:				;--------------------------------------------------------------------------
 6878:				;RESET TIMER 12
 6879:				;---------------------------------------------------------------------------
 6880:
 6881:	  1998	A2 14		   MOV   C,CUTTER_DLY_TM02E
 6882:	  199A	B0 15		   ANL   C,/CUTTER_DLY_TM02D
 6883:	  199C	50 02		   JNC   CUTTER_DELAY_OVER
 6884:	  199E	C2 28		   CLR   PARISON_DLY_TM12E
 6885:
 6886:				;---------------------------------------------------------------------------
 6887:	  19A0			   CUTTER_DELAY_OVER:
 6888:	  19A0			   DO_NOT_RESET_EXTRUDER_TIMER:
 6889:				;---------------------------------------------------------------------------
 6890:
 6891:	  19A0	A2 29		  MOV    C,PARISON_DLY_TM12D
 6892:	  19A2	92 2A		  MOV    PARISON_ON_TIME_TM13E,C
 6893:				;-----------------------------------------------------------------------
 6894:				;BELOW PROGRAM IS FOR SINGLE COIL IN CUTTER
 6895:				;-----------------------------------------------------------------------
 6896:	  19A4	A2 16		  MOV   C,CUTTER_ON_TM03E
 6897:	  19A6	82 5A		  ANL   C,AUTO_MAN_SEL
 6898:	  19A8	82 5D		  ANL   C,DOUBLE_CUT_SEL
 6899:	  19AA	B0 17		  ANL   C,/CUTTER_ON_TM03D
 6900:	  19AC	92 7E		  MOV   RLY39,C
 6901:
 6902:	  19AE	20 5D 16	  JB    DOUBLE_CUT_SEL,BYPASS_SINGLE_CUT
 6903:
 6904:	  19B1	A2 16		  MOV   C,CUTTER_ON_TM03E
 6905:	  19B3	82 5A		  ANL   C,AUTO_MAN_SEL
 6906:	  19B5	B0 5D		  ANL   C,/DOUBLE_CUT_SEL
 6907:	  19B7	B0 17		  ANL   C,/CUTTER_ON_TM03D
 6908:	  19B9	B0 5F		  ANL   C,/RLY08
 6909:	  19BB	50 04		  JNC   SINGLE_CUT_NOT_SEL
 6910:	  19BD	B2 5E		  CPL   RLY07
 6911:	  19BF	D2 5F		  SETB  RLY08
 6912:
 6913:
 6914:	  19C1			  SINGLE_CUT_NOT_SEL:
 6915:
 6916:	  19C1	A2 5E		  MOV   C,RLY07
 6917:	  19C3	72 7E		  ORL   C,RLY39
 6918:	  19C5	92 7E		  MOV   RLY39,C
 6919:
 6920:	  19C7			  BYPASS_SINGLE_CUT:
 6921:
 6922:	  19C7	90 5F 42	  MOV    DPTR,#RLY528_535
 6923:	  19CA	E0		  MOVX   A,@DPTR

ASEM-51 V1.3                                        Copyright (c) 2002 by W.W. Heinz                                        PAGE 125



 Line  I  Addr  Code            Source

 6924:	  19CB	A2 E7		  MOV    C,CUTTER2_PB
 6925:	  19CD	B0 5A		  ANL    C,/AUTO_MAN_SEL
 6926:	  19CF	72 7E		  ORL    C,RLY39
 6927:
 6928:	  19D1	92 3D		  MOV    CUTTER1_OP,C
 6929:				;-----------------------------------------------------------------------
 6930:				;CUTTER PROGRAM ENDS HERE
 6931:				;-----------------------------------------------------------------------
 6932:	  19D3	A2 15		  MOV    C,CUTTER_DLY_TM02D
 6933:	  19D5	82 5A		  ANL    C,AUTO_MAN_SEL
 6934:	  19D7	82 57		  ANL    C,MOULD_CLOSE_IP                                       ;MLD_CLS_TM_D
 6935:	  19D9	92 36		  MOV    MOULDOUT_DLY_TM19E,C
 6936:
 6937:	  19DB	A2 37		  MOV    C,MOULDOUT_DLY_TM19D
 6938:	  19DD	82 49		  ANL    C,BLOW_PINUP_IP
 6939:	  19DF	82 5A		  ANL    C,AUTO_MAN_SEL
 6940:	  19E1	B0 4D		  ANL    C,/MOULD_OUT_IP
 6941:				 ; ANL    C,/DOUBLE_CUT_SEL
 6942:	  19E3	92 7E		  MOV    RLY39,C
 6943:
 6944:	  19E5	A2 5A		  MOV    C,AUTO_MAN_SEL
 6945:	  19E7	82 48		  ANL    C,MOULD_OPEN_IP
 6946:	  19E9	82 49		  ANL    C,BLOW_PINUP_IP
 6947:	  19EB	B0 4D		  ANL    C,/MOULD_OUT_IP
 6948:	  19ED	B0 5C		  ANL    C,/B_HOME_POSN
 6949:	  19EF	72 7E		  ORL    C,RLY39
 6950:	  19F1	92 7E		  MOV    RLY39,C
 6951:
 6952:	  19F3	90 5F 42	  MOV    DPTR,#RLY528_535
 6953:	  19F6	E0		  MOVX   A,@DPTR
 6954:	  19F7	A2 E4		  MOV    C,MOULD_OUT_PB
 6955:	  19F9	72 53		  ORL    C,MOULD_OUT_PB_IP
 6956:	  19FB	B0 5A		  ANL    C,/AUTO_MAN_SEL
 6957:	  19FD	82 49		  ANL    C,BLOW_PINUP_IP
 6958:	  19FF	B0 4D		  ANL    C,/MOULD_OUT_IP
 6959:	  1A01	72 7E		  ORL    C,RLY39
 6960:
 6961:	  1A03	82 4A		  ANL    C,EMERGENCY_IP
 6962:	  1A05	92 3C		  MOV    MOULD_OUT_OP,C
 6963:				;--------------------------------------------------------------------------
 6964:				;MOULD OUT SLOW TIMER
 6965:				;--------------------------------------------------------------------------
 6966:	  1A07	A2 3C		  MOV    C,MOULD_OUT_OP
 6967:	  1A09	92 26		  MOV    MOULDOUT_SLOW_TM11E,C
 6968:
 6969:				;--------------------------------------------------------------------------
 6970:				;BLOW PIN DOWN DELAY START
 6971:				;--------------------------------------------------------------------------
 6972:	  1A0B	A2 4D		  MOV    C,MOULD_OUT_IP
 6973:	  1A0D	82 17		  ANL    C,CUTTER_ON_TM03D
 6974:	  1A0F	82 5A		  ANL    C,AUTO_MAN_SEL
 6975:	  1A11	92 18		  MOV    BLOW_PIN_DN_DLY_TM04E,C
 6976:				;-------------------------------------------------------------------------
 6977:				;BLOW PIN DN START
 6978:				;-------------------------------------------------------------------------
 6979:

ASEM-51 V1.3                                        Copyright (c) 2002 by W.W. Heinz                                        PAGE 126



 Line  I  Addr  Code            Source

 6980:	  1A13	A2 4D		  MOV    C,MOULD_OUT_IP
 6981:	  1A15	82 19		  ANL    C,BLOW_PIN_DN_DLY_TM04D
 6982:	  1A17	82 5A		  ANL    C,AUTO_MAN_SEL
 6983:	  1A19	B0 48		  ANL    C,/MOULD_OPEN_IP
 6984:	  1A1B	50 04		  JNC    DONT_SET_PIN_DN_OP
 6985:
 6986:	  1A1D	D2 68		  SETB   B_PIN_DN_OP
 6987:	  1A1F	80 0C		  SJMP   PIN_DN_OP_PRG_START
 6988:
 6989:	  1A21			  DONT_SET_PIN_DN_OP:
 6990:
 6991:	  1A21	A2 5A		  MOV    C,AUTO_MAN_SEL
 6992:	  1A23	82 4C		  ANL    C,MOULD_IN_IP                    ;/TM03D
 6993:	  1A25	82 57		  ANL    C,MOULD_CLOSE_IP
 6994:	  1A27	A0 5A		  ORL    C,/AUTO_MAN_SEL
 6995:	  1A29	50 02		  JNC    RESET_PIN_DN_OP
 6996:
 6997:	  1A2B	C2 68		  CLR    B_PIN_DN_OP
 6998:				;------------------------------
 6999:	  1A2D			  PIN_DN_OP_PRG_START:
 7000:	  1A2D			  RESET_PIN_DN_OP:
 7001:
 7002:	  1A2D	A2 68		  MOV    C,B_PIN_DN_OP
 7003:	  1A2F	82 5A		  ANL    C,AUTO_MAN_SEL
 7004:	  1A31	92 7E		  MOV    RLY39,C
 7005:
 7006:	  1A33	90 5F 42	  MOV    DPTR,#RLY528_535
 7007:	  1A36	E0		  MOVX   A,@DPTR
 7008:	  1A37	A2 E2		  MOV    C,BLOW_PIN_DN_PB
 7009:	  1A39	72 55		  ORL    C,BLOW_PINDN_PB_IP
 7010:	  1A3B	B0 5A		  ANL    C,/AUTO_MAN_SEL
 7011:	  1A3D	72 7E		  ORL    C,RLY39
 7012:
 7013:	  1A3F	82 4A		  ANL    C,EMERGENCY_IP
 7014:	  1A41	92 3A		  MOV    BLOW_PINDN_OP,C
 7015:
 7016:
 7017:
 7018:
 7019:				;--------------------------------------------------------------------------
 7020:				;PRE BLOW TIMER START
 7021:				;--------------------------------------------------------------------------
 7022:	  1A43	A2 19		  MOV    C,BLOW_PIN_DN_DLY_TM04D
 7023:	  1A45	82 5A		  ANL    C,AUTO_MAN_SEL
 7024:	  1A47	92 1A		  MOV    PREBLOW_TM05E,C
 7025:				;-------------------------------------------------------------------------
 7026:				;BLOW DELAY START
 7027:				;-------------------------------------------------------------------------
 7028:
 7029:	  1A49	A2 1B		  MOV    C,PREBLOW_TM05D
 7030:	  1A4B	82 5A		  ANL    C,AUTO_MAN_SEL
 7031:	  1A4D	82 4D		  ANL    C,MOULD_OUT_IP
 7032:	  1A4F	92 1C		  MOV    BLOW_DELAY_TM06E,C
 7033:				;-----------------------------------------------------------------
 7034:				;BLOWING START
 7035:				;-----------------------------------------------------------------

ASEM-51 V1.3                                        Copyright (c) 2002 by W.W. Heinz                                        PAGE 127



 Line  I  Addr  Code            Source

 7036:
 7037:	  1A51	A2 1A		  MOV    C,PREBLOW_TM05E
 7038:	  1A53	82 5A		  ANL    C,AUTO_MAN_SEL
 7039:	  1A55	B0 1B		  ANL    C,/PREBLOW_TM05D
 7040:	  1A57	92 7E		  MOV    RLY39,C
 7041:
 7042:	  1A59	A2 1E		  MOV    C,BLOWING_TM07E
 7043:	  1A5B	82 5A		  ANL    C,AUTO_MAN_SEL
 7044:	  1A5D	B0 1F		  ANL    C,/BLOWING_TM07D
 7045:				 ; ANL    C,BLOW_PINDN_PB_IP
 7046:	  1A5F	72 7E		  ORL    C,RLY39
 7047:	  1A61	92 7E		  MOV    RLY39,C
 7048:
 7049:	  1A63	90 5F 42	  MOV    DPTR,#RLY528_535
 7050:	  1A66	E0		  MOVX   A,@DPTR
 7051:	  1A67	A2 E6		  MOV    C,BLOWING_PB
 7052:	  1A69	B0 5A		  ANL    C,/AUTO_MAN_SEL
 7053:	  1A6B	72 7E		  ORL    C,RLY39
 7054:	  1A6D	82 4A		  ANL    C,EMERGENCY_IP
 7055:	  1A6F	92 3F		  MOV    BLOWING_OP,C
 7056:				;--------------------------------------------------------------------------
 7057:				;EXHAUST TIMER START
 7058:				;--------------------------------------------------------------------------
 7059:	  1A71	A2 1D		  MOV    C,BLOW_DELAY_TM06D
 7060:	  1A73	82 5A		  ANL    C,AUTO_MAN_SEL
 7061:	  1A75	92 1E		  MOV    BLOWING_TM07E,C    ;TM07 IS BLOWING TIME
 7062:				;--------------------------------------------------------------------------
 7063:				;EXHAUST TIMER
 7064:				;-------------------------------------------------------------------------
 7065:
 7066:	  1A77	A2 1F		  MOV    C,BLOWING_TM07D
 7067:	  1A79	82 5A		  ANL    C,AUTO_MAN_SEL
 7068:	  1A7B	92 20		  MOV    EXHAUST_TM08E,C    ;TM08 IS EXHAUST TIME
 7069:
 7070:				;--------------------------------------------------------------------------
 7071:				;SEALING TIMER
 7072:				;--------------------------------------------------------------------------
 7073:	  1A7D	90 5F 43	  MOV    DPTR,#RLY536_543
 7074:	  1A80	E0		  MOVX   A,@DPTR
 7075:	  1A81	A2 E5		  MOV    C,SEALING_SEL
 7076:	  1A83	82 5A		  ANL    C,AUTO_MAN_SEL
 7077:	  1A85	82 1F		  ANL    C,TM07D
 7078:	  1A87	92 32		  MOV    SEALING_DELAY_TM17E,C
 7079:
 7080:	  1A89	A2 33		  MOV    C,SEALING_DELAY_TM17D
 7081:	  1A8B	82 5A		  ANL    C,AUTO_MAN_SEL
 7082:	  1A8D	92 34		  MOV    SEALING_TIME_TM18E,C
 7083:
 7084:	  1A8F	A2 34		  MOV    C,SEALING_TIME_TM18E
 7085:	  1A91	B0 35		  ANL    C,/SEALING_TIME_TM18D
 7086:	  1A93	92 7E		  MOV    RLY39,C
 7087:
 7088:	  1A95	90 5F 44	  MOV    DPTR,#RLY544_551
 7089:	  1A98	A2 E0		  MOV    C,SEALING_PB
 7090:	  1A9A	B0 5A		  ANL    C,/AUTO_MAN_SEL
 7091:	  1A9C	72 7E		  ORL    C,RLY39

ASEM-51 V1.3                                        Copyright (c) 2002 by W.W. Heinz                                        PAGE 128



 Line  I  Addr  Code            Source

 7092:
 7093:	  1A9E	92 91		  MOV    P1.1,C
 7094:
 7095:				;--------------------------------------------------------------------------
 7096:				;START MOULD OPEN
 7097:				;--------------------------------------------------------------------------
 7098:
 7099:	  1AA0	A2 48		  MOV    C,MOULD_OPEN_IP
 7100:	  1AA2	82 39		  ANL    C,MOULD_OPEN_OP
 7101:	  1AA4	82 5A		  ANL    C,AUTO_MAN_SEL
 7102:	  1AA6	82 5C		  ANL    C,B_HOME_POSN
 7103:	  1AA8	50 06		  JNC    DO_NOT_RESET_TM_ENABLE
 7104:
 7105:	  1AAA	C2 10		  CLR    MOULD_IN_TM00E
 7106:	  1AAC	C2 14		  CLR    CUTTER_DLY_TM02E
 7107:	  1AAE	C2 12		  CLR    MOULD_CLOSE_DLY_TM01E
 7108:
 7109:	  1AB0			  DO_NOT_RESET_TM_ENABLE:
 7110:
 7111:
 7112:
 7113:				 ; MOV    C,EXHAUST_TM08D
 7114:				;  ANL    C,AUTO_MAN_SEL
 7115:				;  MOV    DPTR,#RLY536_543
 7116:				;  MOVX   A,@DPTR
 7117:				;  ANL    C,/SEALING_SEL
 7118:				;  MOV    RLY39,C
 7119:
 7120:	  1AB0	A2 21		  MOV    C,EXHAUST_TM08D
 7121:	  1AB2	82 5A		  ANL    C,AUTO_MAN_SEL
 7122:	  1AB4	72 7E		  ORL    C,RLY39
 7123:
 7124:	  1AB6	A0 4A		  ORL    C,/EMERGENCY_IP
 7125:	  1AB8	92 7E		  MOV    RLY39,C
 7126:				;--------------------------------------
 7127:	  1ABA	A2 5A		  MOV    C,AUTO_MAN_SEL
 7128:	  1ABC	B0 48		  ANL    C,/MOULD_OPEN_IP                      ;  AUTO HOME POSN
 7129:	  1ABE	B0 5C		  ANL    C,/B_HOME_POSN
 7130:				;--------------------------------------
 7131:	  1AC0	72 7E		  ORL    C,RLY39
 7132:	  1AC2	92 7E		  MOV    RLY39,C
 7133:
 7134:	  1AC4	A2 39		  MOV    C,MOULD_OPEN_OP
 7135:	  1AC6	82 5A		  ANL    C,AUTO_MAN_SEL
 7136:	  1AC8	72 7E		  ORL    C,RLY39
 7137:	  1ACA	92 7E		  MOV    RLY39,C
 7138:
 7139:	  1ACC	90 5F 42	  MOV    DPTR,#RLY528_535
 7140:	  1ACF	E0		  MOVX   A,@DPTR
 7141:	  1AD0	A2 E1		  MOV    C,MOULD_OPEN_PB
 7142:	  1AD2	72 51		  ORL    C,MOULD_OPEN_PB_IP
 7143:	  1AD4	B0 5A		  ANL    C,/AUTO_MAN_SEL
 7144:	  1AD6	72 7E		  ORL    C,RLY39
 7145:	  1AD8	B0 48		  ANL    C,/MOULD_OPEN_IP
 7146:	  1ADA	92 39		  MOV    MOULD_OPEN_OP,C      ;OUT6 IS MOULD OPEN
 7147:

ASEM-51 V1.3                                        Copyright (c) 2002 by W.W. Heinz                                        PAGE 129



 Line  I  Addr  Code            Source

 7148:				;--------------------------------------------------------------------------
 7149:				;    BIG PUMP O/P
 7150:				;--------------------------------------------------------------------------
 7151:				;  DO_NOT_RESET_TM_ENABLE:
 7152:
 7153:	  1ADC	A2 3B		  MOV    C,MOULD_IN_OP
 7154:	  1ADE	B0 23		  ANL    C,/MOULDIN_SLOW_TM09D      ;TM09D IS MOULD IN SLOW TIMER
 7155:				;  ANL    C,/MOULD_IN_SLOW_IP
 7156:	  1AE0	92 7E		  MOV    RLY39,C
 7157:
 7158:	  1AE2	A2 38		  MOV    C,MOULD_CLOSE_OP        ;TM10D IS MOULD CLOSE SLOW TIMER
 7159:	  1AE4	B0 25		  ANL    C,/MOULDCLOSE_SLOW_TM10D
 7160:				;  ANL    C,/CLS_SLWDN_IP
 7161:	  1AE6	72 7E		  ORL    C,RLY39
 7162:	  1AE8	92 7E		  MOV    RLY39,C
 7163:
 7164:	  1AEA	A2 3C		  MOV    C,MOULD_OUT_OP
 7165:	  1AEC	B0 27		  ANL    C,/MOULDOUT_SLOW_TM11D      ;RLY18 IS MOULD OUT SLOW
 7166:				;  ANL    C,/MOULD_OUT_SLOW_IP
 7167:	  1AEE	72 7E		  ORL    C,RLY39
 7168:	  1AF0	72 39		  ORL    C,MOULD_OPEN_OP
 7169:
 7170:	  1AF2	92 3E		  MOV    BIGPUMP_OP,C         ;OUT14 IS BIG PUMP
 7171:
 7172:				;---------------------------------------------------------------------------
 7173:				;  SMALL  PUMP
 7174:				;---------------------------------------------------------------------------
 7175:	  1AF4	A2 38		  MOV    C,MOULD_CLOSE_OP
 7176:	  1AF6	B0 41		  ANL    C,/MLD_CLS_TM_D
 7177:	  1AF8	72 39		  ORL    C,MOULD_OPEN_OP
 7178:	  1AFA	72 3C		  ORL    C,MOULD_OUT_OP
 7179:	  1AFC	72 3B		  ORL    C,MOULD_IN_OP
 7180:
 7181:	  1AFE	92 60		  MOV	   SMALLPUMP_OP,C	                 ;OUT13 IS SMALL PUMP
 7182:				;------------------------------------------------------------------------
 7183:	  1B00	A2 5A		  MOV    C,AUTO_MAN_SEL
 7184:	  1B02	82 1F		  ANL    C,BLOWING_TM07D
 7185:	  1B04	82 69		  ANL    C,DEFLASH_SEL
 7186:	  1B06	50 07		  JNC    DONT_START_DEFLASH
 7187:	  1B08	90 5F C7	  MOV    DPTR,#TM104_ENABLE_1
 7188:	  1B0B	E0		  MOVX   A,@DPTR
 7189:	  1B0C	D2 E0		  SETB   DEFLASH_DLY_START_TM104E
 7190:	  1B0E	F0		  MOVX   @DPTR,A
 7191:
 7192:	  1B0F			  DONT_START_DEFLASH:
 7193:
 7194:	  1B0F	90 5F C7	  MOV    DPTR,#TM104_ENABLE_1
 7195:	  1B12	E0		  MOVX   A,@DPTR
 7196:	  1B13	A2 E1		  MOV    C,DEFLASH_DLY_START_TM104D
 7197:	  1B15	82 5A		  ANL    C,AUTO_MAN_SEL
 7198:	  1B17	92 E2		  MOV    DEFLASH_IN_TM105E,C
 7199:	  1B19	F0		  MOVX   @DPTR,A
 7200:
 7201:	  1B1A	90 5F C7	  MOV    DPTR,#TM104_ENABLE_1
 7202:	  1B1D	E0		  MOVX   A,@DPTR
 7203:	  1B1E	A2 E1		  MOV    C,TM104D

ASEM-51 V1.3                                        Copyright (c) 2002 by W.W. Heinz                                        PAGE 130



 Line  I  Addr  Code            Source

 7204:	  1B20	82 5A		  ANL    C,AUTO_MAN_SEL
 7205:	  1B22	B0 E3		  ANL    C,/TM105D
 7206:	  1B24	92 7E		  MOV    RLY39,C
 7207:
 7208:				;--------------------------------------DEFLASH MANUALY ON
 7209:	  1B26	90 5F 44	  MOV    DPTR,#RLY544_551
 7210:	  1B29	E0		  MOVX   A,@DPTR
 7211:	  1B2A	A2 E2		  MOV    C,DEFLASH_PB
 7212:	  1B2C	B0 5A		  ANL    C,/AUTO_MAN_SEL
 7213:	  1B2E	72 7E		  ORL    C,RLY39
 7214:	  1B30	82 4A		  ANL    C,EMERGENCY_IP
 7215:
 7216:				;----------------------------------------
 7217:	  1B32	E5 30		  MOV    A,OUT16_23
 7218:	  1B34	92 E0		  MOV    DEFLASH_OP,C
 7219:	  1B36	F5 30		  MOV    OUT16_23,A
 7220:
 7221:				;--------------------------------------------------------
 7222:	  1B38			  CHECK_ROTARTY_OP:
 7223:
 7224:	  1B38	A2 5A		  MOV    C,AUTO_MAN_SEL
 7225:	  1B3A	82 1F		  ANL    C,BLOWING_TM07D
 7226:	  1B3C	82 69		  ANL    C,DEFLASH_SEL
 7227:	  1B3E	50 07		  JNC    DONT_START_ROTARY_CUT
 7228:
 7229:	  1B40	90 5F C7	  MOV    DPTR,#TM104_ENABLE_1
 7230:	  1B43	E0		  MOVX   A,@DPTR
 7231:	  1B44	D2 E4		  SETB   ROTARY_CUT_DLY_TM106E
 7232:	  1B46	F0		  MOVX   @DPTR,A
 7233:
 7234:	  1B47			  DONT_START_ROTARY_CUT:
 7235:
 7236:	  1B47	90 5F C7	  MOV    DPTR,#TM104_ENABLE_1
 7237:	  1B4A	E0		  MOVX   A,@DPTR
 7238:	  1B4B	A2 E5		  MOV    C,ROTARY_CUT_DLY_TM106D
 7239:	  1B4D	82 5A		  ANL    C,AUTO_MAN_SEL
 7240:	  1B4F	92 E6		  MOV    ROTARY_CUT_TM107E,C
 7241:	  1B51	F0		  MOVX   @DPTR,A
 7242:
 7243:	  1B52	90 5F C7	  MOV    DPTR,#TM104_ENABLE_1
 7244:	  1B55	E0		  MOVX   A,@DPTR
 7245:	  1B56	A2 E5		  MOV    C,TM106D
 7246:	  1B58	82 5A		  ANL    C,AUTO_MAN_SEL
 7247:	  1B5A	B0 E7		  ANL    C,/TM107D
 7248:	  1B5C	92 7E		  MOV    RLY39,C
 7249:
 7250:	  1B5E	90 5F 44	  MOV    DPTR,#RLY544_551     ;ROTARY MANUALY ON
 7251:	  1B61	E0		  MOVX   A,@DPTR
 7252:	  1B62	A2 E3		  MOV    C,ROTARY_PB
 7253:	  1B64	B0 5A		  ANL    C,/AUTO_MAN_SEL
 7254:	  1B66	72 7E		  ORL    C,RLY39
 7255:	  1B68	82 4A		  ANL    C,EMERGENCY_IP
 7256:
 7257:
 7258:
 7259:	  1B6A	E5 30		  MOV    A,OUT16_23

ASEM-51 V1.3                                        Copyright (c) 2002 by W.W. Heinz                                        PAGE 131



 Line  I  Addr  Code            Source

 7260:	  1B6C	92 E1		  MOV    ROTARY_OP,C
 7261:	  1B6E	F5 30		  MOV    OUT16_23,A
 7262:				;--------------------------------------------------------------------------
 7263:	  1B70			  CHECK_BOTTEM_OP:
 7264:
 7265:	  1B70	A2 5A		  MOV    C,AUTO_MAN_SEL
 7266:	  1B72	82 69		  ANL    C,DEFLASH_SEL
 7267:	  1B74	90 5F C7	  MOV    DPTR,#TM104_ENABLE_1
 7268:	  1B77	E0		  MOVX   A,@DPTR
 7269:	  1B78	82 E7		  ANL    C,ROTARY_CUT_TM107D
 7270:	  1B7A	50 07		  JNC    DONT_START_BOTTEM_CUT
 7271:
 7272:	  1B7C	90 5F C8	  MOV    DPTR,#TM108_ENABLE_1
 7273:	  1B7F	E0		  MOVX   A,@DPTR
 7274:	  1B80	D2 E0		  SETB   BOTTEM_DLY_START_TM108E
 7275:	  1B82	F0		  MOVX   @DPTR,A
 7276:
 7277:	  1B83			  DONT_START_BOTTEM_CUT:
 7278:
 7279:	  1B83	90 5F C8	  MOV    DPTR,#TM108_ENABLE_1
 7280:	  1B86	E0		  MOVX   A,@DPTR
 7281:	  1B87	A2 E1		  MOV    C,BOTTEM_DLY_START_TM108D
 7282:	  1B89	82 5A		  ANL    C,AUTO_MAN_SEL
 7283:	  1B8B	92 E2		  MOV    BOTTEM_ON_TM109E,C
 7284:	  1B8D	F0		  MOVX   @DPTR,A
 7285:
 7286:	  1B8E	90 5F C8	  MOV    DPTR,#TM108_ENABLE_1
 7287:	  1B91	E0		  MOVX   A,@DPTR
 7288:	  1B92	A2 E1		  MOV    C,TM108D
 7289:	  1B94	82 5A		  ANL    C,AUTO_MAN_SEL
 7290:	  1B96	B0 E3		  ANL    C,/TM109D
 7291:	  1B98	92 7E		  MOV    RLY39,C
 7292:
 7293:	  1B9A	90 5F 44	  MOV    DPTR,#RLY544_551     ;BOTTOM UP MANUALY ON
 7294:	  1B9D	E0		  MOVX   A,@DPTR
 7295:	  1B9E	A2 E4		  MOV    C,BOTTOM_UP_PB
 7296:	  1BA0	B0 5A		  ANL    C,/AUTO_MAN_SEL
 7297:	  1BA2	72 7E		  ORL    C,RLY39
 7298:	  1BA4	82 4A		  ANL    C,EMERGENCY_IP
 7299:
 7300:	  1BA6	E5 30		  MOV    A,OUT16_23
 7301:	  1BA8	92 E2		  MOV    BOTTEM_OP,C
 7302:	  1BAA	F5 30		  MOV    OUT16_23,A
 7303:
 7304:	  1BAC	90 5F C8	  MOV    DPTR,#TM108_ENABLE_1
 7305:	  1BAF	E0		  MOVX   A,@DPTR
 7306:	  1BB0	A2 E3		  MOV    C,BOTTEM_ON_TM109D
 7307:	  1BB2	B0 1F		  ANL    C,/BLOWING_TM07D
 7308:	  1BB4	50 0B		  JNC    CHECK_LIFTUP_OP
 7309:	  1BB6	C2 E0		  CLR    TM108E
 7310:	  1BB8	C2 E2		  CLR    TM109E
 7311:	  1BBA	F0		  MOVX   @DPTR,A
 7312:
 7313:	  1BBB	90 5F C7	  MOV    DPTR,#TM104_ENABLE_1
 7314:	  1BBE	E0		  MOVX   A,@DPTR
 7315:	  1BBF	E4		  CLR    A

ASEM-51 V1.3                                        Copyright (c) 2002 by W.W. Heinz                                        PAGE 132



 Line  I  Addr  Code            Source

 7316:	  1BC0	F0		  MOVX   @DPTR,A
 7317:
 7318:				;---------------------------------------------------------
 7319:	  1BC1			  CHECK_LIFTUP_OP:
 7320:
 7321:	  1BC1	A2 5A		  MOV    C,AUTO_MAN_SEL
 7322:	  1BC3	82 16		  ANL    C,CUTTER_ON_TM03E
 7323:
 7324:	  1BC5	50 07		  JNC    DONT_START_LIFTUP
 7325:
 7326:	  1BC7	90 5F C8	  MOV    DPTR,#TM108_ENABLE_1
 7327:	  1BCA	E0		  MOVX   A,@DPTR
 7328:	  1BCB	D2 E4		  SETB   LIFTUP_DLY_TM110E
 7329:	  1BCD	F0		  MOVX   @DPTR,A
 7330:
 7331:	  1BCE			  DONT_START_LIFTUP:
 7332:
 7333:	  1BCE	90 5F C8	  MOV    DPTR,#TM108_ENABLE_1
 7334:	  1BD1	E0		  MOVX   A,@DPTR
 7335:	  1BD2	A2 E5		  MOV    C,LIFTUP_DLY_TM110D
 7336:	  1BD4	82 5A		  ANL    C,AUTO_MAN_SEL
 7337:	  1BD6	92 E6		  MOV    LIFTUP_ON_TM111E,C
 7338:	  1BD8	F0		  MOVX   @DPTR,A
 7339:
 7340:	  1BD9	90 5F C8	  MOV    DPTR,#TM108_ENABLE_1
 7341:	  1BDC	E0		  MOVX   A,@DPTR
 7342:	  1BDD	A2 E5		  MOV    C,TM110D
 7343:	  1BDF	82 5A		  ANL    C,AUTO_MAN_SEL
 7344:	  1BE1	B0 E7		  ANL    C,/TM111D
 7345:	  1BE3	92 7E		  MOV    RLY39,C
 7346:
 7347:	  1BE5	90 5F 44	  MOV    DPTR,#RLY544_551     ;LIFT UP MANUALY ON
 7348:	  1BE8	E0		  MOVX   A,@DPTR
 7349:	  1BE9	A2 E5		  MOV    C,LIFTUP_PB
 7350:	  1BEB	B0 5A		  ANL    C,/AUTO_MAN_SEL
 7351:	  1BED	72 7E		  ORL    C,RLY39
 7352:	  1BEF	82 4A		  ANL    C,EMERGENCY_IP
 7353:
 7354:	  1BF1	E5 30		  MOV    A,OUT16_23
 7355:	  1BF3	92 E3		  MOV    LIFTUP_OP,C
 7356:	  1BF5	F5 30		  MOV    OUT16_23,A
 7357:
 7358:	  1BF7	90 5F C8	  MOV    DPTR,#TM108_ENABLE_1
 7359:	  1BFA	E0		  MOVX   A,@DPTR
 7360:	  1BFB	A2 E7		  MOV    C,LIFTUP_ON_TM111D
 7361:	  1BFD	B0 16		  ANL    C,/CUTTER_ON_TM03E
 7362:	  1BFF	50 03		  JNC    CHECK_EXTRUDER_OP
 7363:	  1C01	C2 E4		  CLR    LIFTUP_DLY_TM110E
 7364:	  1C03	F0		  MOVX   @DPTR,A
 7365:
 7366:
 7367:
 7368:
 7369:	  1C04			  CHECK_EXTRUDER_OP:
 7370:				;-------------------------------------------------------------------------
 7371:				;EXTRUDER MOTOR ON / OFF

ASEM-51 V1.3                                        Copyright (c) 2002 by W.W. Heinz                                        PAGE 133



 Line  I  Addr  Code            Source

 7372:				;--------------------------------------------------------------------------
 7373:	  1C04	90 5F 43	  MOV    DPTR,#RLY536_543
 7374:	  1C07	E0		  MOVX   A,@DPTR
 7375:	  1C08	A2 E4		  MOV    C,EXTRUDER_ON                      ;RLY17
 7376:	  1C0A	90 5F C3	  MOV    DPTR,#TM40_ENABLE_1
 7377:	  1C0D	E0		  MOVX   A,@DPTR
 7378:	  1C0E	B0 E7		  ANL    C,/TM43D
 7379:				 ; MOV    RLY39,C
 7380:
 7381:				;  MOV    C,EXTRUDER_ON                             ;RLY17
 7382:				;  ANL    C,/TM43D
 7383:				;  ANL    C,AUTO_MAN_SEL
 7384:				;  ANL    C,PARISON_ON_TIME_TM13E
 7385:				;  ANL    C,/PARISON_ON_TIME_TM13D
 7386:				;  ORL    C,RLY39
 7387:
 7388:	  1C10	50 04		  JNC    CHK_EXTRUDER_OFF
 7389:	  1C12	D2 67		  SETB   EXTRUDER_OP
 7390:	  1C14	80 09		  SJMP   SET_EXTRUDER_DONE                                               ;MOV	   EXTRUDER_OP,C
					;;OUT10 IS EXTRUDER MOTOR O/P
 7391:
 7392:
 7393:	  1C16			  CHK_EXTRUDER_OFF:
 7394:
 7395:	  1C16	90 5F 43	  MOV    DPTR,#RLY536_543
 7396:	  1C19	E0		  MOVX   A,@DPTR
 7397:	  1C1A	30 E6 02	  JNB    EXTRUDER_OFF,SET_EXTRUDER_DONE
 7398:	  1C1D	C2 67		  CLR    EXTRUDER_OP
 7399:
 7400:	  1C1F			  SET_EXTRUDER_DONE:
 7401:
 7402:				;----------------------------------------------------------------------
 7403:	  1C1F	20 16 02	  JB    CUTTER_ON_TM03E,CHECK_AUTO_MAN_RESET
 7404:	  1C22	C2 5F		  CLR   RLY08
 7405:
 7406:				;----------------------------------------------------------------------
 7407:				;REST FLAGS IN MANUAL MODE
 7408:				;----------------------------------------------------------------------
 7409:	  1C24			   CHECK_AUTO_MAN_RESET:
 7410:
 7411:	  1C24	20 5A 13	   JB    AUTO_MAN_SEL,CHECK_EMERGENCY
 7412:	  1C27	C2 10		   CLR   MOULD_IN_TM00E
 7413:	  1C29	C2 5E		   CLR   RLY07
 7414:	  1C2B	C2 5C		   CLR   B_HOME_POSN
 7415:	  1C2D	C2 14		   CLR   CUTTER_DLY_TM02E
 7416:	  1C2F	C2 12		   CLR   MOULD_CLOSE_DLY_TM01E
 7417:	  1C31	C2 30		   CLR   TM16E
 7418:	  1C33	E4		   CLR   A
 7419:	  1C34	90 5F C7	   MOV   DPTR,#TM104_ENABLE_1
 7420:	  1C37	F0		   MOVX  @DPTR,A
 7421:	  1C38	A3		   INC   DPTR
 7422:	  1C39	F0		   MOVX  @DPTR,A
 7423:
 7424:				;------------------------------------------------------------------------
 7425:				;RESET AUTO_MANUAL WHEN EMERGENCY IS ON
 7426:				;------------------------------------------------------------------------

ASEM-51 V1.3                                        Copyright (c) 2002 by W.W. Heinz                                        PAGE 134



 Line  I  Addr  Code            Source

 7427:	  1C3A			  CHECK_EMERGENCY:
 7428:
 7429:	  1C3A	A2 4A		  MOV    C,EMERGENCY_IP
 7430:	  1C3C	40 0A		  JC     CHK_LOW_LIMIT                          ;DISPLAY_KEYS_LED
 7431:				 ; CLR    RLY24
 7432:	  1C3E	C2 5C		  CLR    B_HOME_POSN
 7433:	  1C40	C2 10		  CLR    MOULD_IN_TM00E
 7434:	  1C42	C2 14		  CLR    CUTTER_DLY_TM02E
 7435:	  1C44	C2 5E		  CLR    RLY07
 7436:	  1C46	C2 12		  CLR    MOULD_CLOSE_DLY_TM01E                               ;AUTO_MAN_SEL
 7437:				;------------------------------------------------------------------------
 7438:				;RESET EXTRUDER MOTOR O/P IF TEMP IS BELOW LOW LIMIT
 7439:				;------------------------------------------------------------------------
 7440:	  1C48			  CHK_LOW_LIMIT:
 7441:
 7442:	  1C48	22		  RET
 7443:				;----------------------------------------------------------------------------
 7444:				;LADDER ENDS HERE
 7445:				;---------------------------------------------------------------------------
 7446:
 7447:				; END
 7448:
 7449:				;-----------------------------------------------------------------
 7450:				;TEMPERATUR DISPLAY & CONTROLLING STARTS HERE
 7451:				;-----------------------------------------------------------------
 7452:	  1C49			    ZONE_DISPLAY:
 7453:
 7454:				;-----------------------------------------------------------------------------------------
 7455:				;  ZONE 8   CALCULATION
 7456:				;-----------------------------------------------------------------------------------------
 7457:	  1C49	E5 31		   MOV   A,A2D_CHANNEL
 7458:	  1C4B	B4 00 1E	   CJNE  A,#0,CHECK_ZONE1
 7459:
 7460:	  1C4E	90 24 21		MOV   DPTR,#ZONE1_COUNTS_L
 7461:	  1C51	E0			MOVX	A,@DPTR
 7462:	  1C52	FA			MOV	R2,A
 7463:	  1C53	90 24 20	   MOV   DPTR,#ZONE1_COUNTS_H
 7464:	  1C56	E0			MOVX	A,@DPTR
 7465:	  1C57	54 0F			ANL	A,#0FH	;TC OPEN & TC NEG. MADE ZERO
 7466:	  1C59	FB			MOV	R3,A
 7467:	  1C5A	78 A0			MOV	R0,#TEMP_CAL_FACTOR_LO                            ;0A0H	; * BY 14417
 7468:	  1C5C	79 18			MOV	R1,#TEMP_CAL_FACTOR_HI                                              ;24
 7469:	  1C5E	12 08 F9		LCALL	MULTIPLICATION
 7470:
 7471:	  1C61	90 24 41	   MOV   DPTR,#ZONE8_ACT_TEMP_L                      ;CH19L
 7472:	  1C64	EE			MOV   A,R6
 7473:	  1C65	F0			MOVX	@DPTR,A
 7474:
 7475:	  1C66	90 24 40		MOV   DPTR,#ZONE8_ACT_TEMP_H
 7476:	  1C69	EF			MOV	A,R7
 7477:	  1C6A	F0			MOVX  @DPTR,A
 7478:	  1C6B	22			RET
 7479:				;------------------------------------------------------------------------------------
 7480:				;ZONE 1 TEMP. CALCULATION
 7481:				;------------------------------------------------------------------------------------
 7482:	  1C6C			   CHECK_ZONE1:

ASEM-51 V1.3                                        Copyright (c) 2002 by W.W. Heinz                                        PAGE 135



 Line  I  Addr  Code            Source

 7483:
 7484:	  1C6C	B4 01 1E	   CJNE  A,#1,CHECK_ZONE2
 7485:
 7486:	  1C6F	90 24 23		MOV   DPTR,#ZONE2_COUNTS_L           ;CH01L
 7487:	  1C72	E0			MOVX	A,@DPTR
 7488:	  1C73	FA			MOV	R2,A
 7489:	  1C74	90 24 22	   MOV   DPTR,#ZONE2_COUNTS_H                                 ; CH01H
 7490:	  1C77	E0			MOVX	A,@DPTR
 7491:	  1C78	54 0F			ANL	A,#0FH	;TC OPEN & TC NEG. MADE ZERO
 7492:	  1C7A	FB			MOV	R3,A
 7493:	  1C7B	78 A0			MOV	R0,#TEMP_CAL_FACTOR_LO                            ;0A0H	; * BY 14417
 7494:	  1C7D	79 18			MOV	R1,#TEMP_CAL_FACTOR_HI                                              ;24
 7495:	  1C7F	12 08 F9		LCALL	MULTIPLICATION
 7496:	  1C82	90 24 43	   MOV   DPTR,#ZONE1_ACT_TEMP_L           ;CH20L
 7497:	  1C85	EE			MOV   A,R6
 7498:	  1C86	F0			MOVX	@DPTR,A
 7499:	  1C87	90 24 42		MOV   DPTR,#ZONE1_ACT_TEMP_H         ;CH20H
 7500:	  1C8A	EF		   MOV	A,R7
 7501:	  1C8B	F0			MOVX  @DPTR,A
 7502:	  1C8C	22			RET
 7503:				;---------------------------------------------------------------------------------------
 7504:				;ZONE 2 TEMP. CALCULATION
 7505:				;---------------------------------------------------------------------------------------
 7506:	  1C8D			   CHECK_ZONE2:
 7507:
 7508:	  1C8D	B4 02 1E	   CJNE  A,#2,CHECK_ZONE3
 7509:
 7510:	  1C90	90 24 25		MOV   DPTR,#ZONE3_COUNTS_L                  ;CH02L
 7511:	  1C93	E0			MOVX	A,@DPTR
 7512:	  1C94	FA			MOV	R2,A
 7513:	  1C95	90 24 24	   MOV   DPTR,#ZONE3_COUNTS_H                      ;CH02H
 7514:	  1C98	E0			MOVX	A,@DPTR
 7515:	  1C99	54 0F			ANL	A,#0FH	;TC OPEN & TC NEG. MADE ZERO
 7516:	  1C9B	FB			MOV	R3,A
 7517:	  1C9C	78 A0			MOV	R0,#TEMP_CAL_FACTOR_LO                            ;0A0H	; * BY 14417
 7518:	  1C9E	79 18			MOV	R1,#TEMP_CAL_FACTOR_HI                                              ;24
 7519:	  1CA0	12 08 F9		LCALL	MULTIPLICATION
 7520:	  1CA3	90 24 45	   MOV   DPTR,#ZONE2_ACT_TEMP_L               ;CH21L
 7521:	  1CA6	EE			MOV   A,R6
 7522:	  1CA7	F0			MOVX	@DPTR,A
 7523:
 7524:	  1CA8	EF			MOV	A,R7
 7525:	  1CA9	90 24 44		MOV   DPTR,#ZONE2_ACT_TEMP_H               ;CH21H
 7526:	  1CAC	F0			MOVX  @DPTR,A
 7527:	  1CAD	22		   RET
 7528:				;--------------------------------------------------------------------------------------------
 7529:				; ZONE 3 TEMP. CALCULATION
 7530:				;--------------------------------------------------------------------------------------------
 7531:	  1CAE			   CHECK_ZONE3:
 7532:
 7533:	  1CAE	B4 03 1E	   CJNE  A,#3,CHECK_ZONE4
 7534:	  1CB1	90 24 27		MOV   DPTR,#ZONE4_COUNTS_L                  ;CH03L
 7535:	  1CB4	E0			MOVX	A,@DPTR
 7536:	  1CB5	FA			MOV	R2,A
 7537:	  1CB6	90 24 26	   MOV   DPTR,#ZONE4_COUNTS_H                    ;CH03H
 7538:	  1CB9	E0			MOVX	A,@DPTR

ASEM-51 V1.3                                        Copyright (c) 2002 by W.W. Heinz                                        PAGE 136



 Line  I  Addr  Code            Source

 7539:	  1CBA	54 0F			ANL	A,#0FH	;TC OPEN & TC NEG. MADE ZERO
 7540:	  1CBC	FB			MOV	R3,A
 7541:	  1CBD	78 A0			MOV	R0,#TEMP_CAL_FACTOR_LO                            ;0A0H	; * BY 14417
 7542:	  1CBF	79 18			MOV	R1,#TEMP_CAL_FACTOR_HI                                              ;24
 7543:	  1CC1	12 08 F9		LCALL	MULTIPLICATION
 7544:	  1CC4	90 24 47	   MOV   DPTR,#ZONE3_ACT_TEMP_L                 ;CH22L
 7545:	  1CC7	EE			MOV   A,R6
 7546:	  1CC8	F0			MOVX	@DPTR,A
 7547:
 7548:	  1CC9	EF			MOV	A,R7
 7549:	  1CCA	90 24 46		MOV   DPTR,#ZONE3_ACT_TEMP_H                   ;CH22H
 7550:	  1CCD	F0			MOVX  @DPTR,A
 7551:	  1CCE	22			RET
 7552:				;----------------------------------------------------------------------------
 7553:				;ZONE 4 TEMP CALCULATION
 7554:				;---------------------------------------------------------------------------
 7555:	  1CCF				CHECK_ZONE4:
 7556:
 7557:	  1CCF	B4 04 1E	   CJNE  A,#4,CHECK_ZONE5
 7558:	  1CD2	90 24 29		MOV   DPTR,#ZONE5_COUNTS_L                    ;CH04L
 7559:	  1CD5	E0			MOVX	A,@DPTR
 7560:	  1CD6	FA			MOV	R2,A
 7561:	  1CD7	90 24 28	   MOV   DPTR,#ZONE5_COUNTS_H                                  ;CH04H
 7562:	  1CDA	E0			MOVX	A,@DPTR
 7563:	  1CDB	54 0F			ANL	A,#0FH	;TC OPEN & TC NEG. MADE ZERO
 7564:	  1CDD	FB			MOV	R3,A
 7565:	  1CDE	78 A0			MOV	R0,#TEMP_CAL_FACTOR_LO                            ;0A0H	; * BY 14417
 7566:	  1CE0	79 18			MOV	R1,#TEMP_CAL_FACTOR_HI                                              ;24
 7567:	  1CE2	12 08 F9		LCALL	MULTIPLICATION
 7568:	  1CE5	90 24 49	   MOV   DPTR,#ZONE4_ACT_TEMP_L         ;CH23L
 7569:	  1CE8	EE			MOV   A,R6
 7570:	  1CE9	F0			MOVX	@DPTR,A
 7571:	  1CEA	EF			MOV	A,R7
 7572:	  1CEB	90 24 48		MOV   DPTR,#ZONE4_ACT_TEMP_H
 7573:	  1CEE	F0			MOVX  @DPTR,A
 7574:	  1CEF	22			RET
 7575:
 7576:				;-------------------------------------------------------------------------------------------------
 7577:				;ZONE 5 TEM. CALCULATION
 7578:				;-------------------------------------------------------------------------------------------------
 7579:	  1CF0			   CHECK_ZONE5:
 7580:
 7581:	  1CF0	B4 05 1E	   CJNE  A,#5,CHECK_ZONE6
 7582:	  1CF3	90 24 2B		MOV   DPTR,#ZONE6_COUNTS_L
 7583:	  1CF6	E0			MOVX	A,@DPTR
 7584:	  1CF7	FA			MOV	R2,A
 7585:	  1CF8	90 24 2A	   MOV   DPTR,#ZONE6_COUNTS_H
 7586:	  1CFB	E0			MOVX	A,@DPTR
 7587:	  1CFC	54 0F			ANL	A,#0FH
 7588:	  1CFE	FB			MOV	R3,A
 7589:	  1CFF	78 A0			MOV	R0,#TEMP_CAL_FACTOR_LO
 7590:	  1D01	79 18			MOV	R1,#TEMP_CAL_FACTOR_HI
 7591:	  1D03	12 08 F9		LCALL	MULTIPLICATION
 7592:	  1D06	90 24 4B	   MOV   DPTR,#ZONE5_ACT_TEMP_L
 7593:	  1D09	EE			MOV   A,R6
 7594:	  1D0A	F0			MOVX	@DPTR,A

ASEM-51 V1.3                                        Copyright (c) 2002 by W.W. Heinz                                        PAGE 137



 Line  I  Addr  Code            Source

 7595:	  1D0B	EF			MOV	A,R7
 7596:	  1D0C	90 24 4A		MOV   DPTR,#ZONE5_ACT_TEMP_H
 7597:	  1D0F	F0			MOVX  @DPTR,A
 7598:	  1D10	22			RET
 7599:
 7600:				;-----------------------------------------------------------------------
 7601:				;ZONE 6 TEMP. CALCULATION
 7602:				;--------------------------------------------------------------------------------------------------
 7603:	  1D11			  	CHECK_ZONE6:
 7604:
 7605:	  1D11	B4 06 1E	   CJNE  A,#6,CHECK_ZONE7
 7606:
 7607:	  1D14	90 24 2D	  	MOV   DPTR,#ZONE7_COUNTS_L
 7608:	  1D17	E0			MOVX	A,@DPTR
 7609:	  1D18	FA			MOV	R2,A
 7610:	  1D19	90 24 2C	   MOV   DPTR,#ZONE7_COUNTS_H
 7611:	  1D1C	E0			MOVX	A,@DPTR
 7612:	  1D1D	54 0F			ANL	A,#0FH
 7613:	  1D1F	FB			MOV	R3,A
 7614:	  1D20	78 A0			MOV	R0,#TEMP_CAL_FACTOR_LO
 7615:	  1D22	79 18			MOV	R1,#TEMP_CAL_FACTOR_HI
 7616:	  1D24	12 08 F9		LCALL	MULTIPLICATION
 7617:	  1D27	90 24 4D	   MOV   DPTR,#ZONE6_ACT_TEMP_L
 7618:	  1D2A	EE			MOV   A,R6
 7619:	  1D2B	F0			MOVX	@DPTR,A
 7620:	  1D2C	EF			MOV	A,R7
 7621:	  1D2D	90 24 4C		MOV   DPTR,#ZONE6_ACT_TEMP_H
 7622:	  1D30	F0			MOVX  @DPTR,A
 7623:	  1D31	22		   RET
 7624:				;------------------------------------------------------------------------
 7625:	  1D32			   CHECK_ZONE7:
 7626:
 7627:	  1D32	90 24 2F	   MOV   DPTR,#ZONE8_COUNTS_L
 7628:	  1D35	E0			MOVX	A,@DPTR
 7629:	  1D36	FA			MOV	R2,A
 7630:	  1D37	90 24 2E	   MOV   DPTR,#ZONE8_COUNTS_H
 7631:	  1D3A	E0			MOVX	A,@DPTR
 7632:	  1D3B	54 0F			ANL	A,#0FH
 7633:	  1D3D	FB			MOV	R3,A
 7634:	  1D3E	78 A0			MOV	R0,#TEMP_CAL_FACTOR_LO
 7635:	  1D40	79 18			MOV	R1,#TEMP_CAL_FACTOR_HI
 7636:	  1D42	12 08 F9		LCALL	MULTIPLICATION
 7637:	  1D45	90 24 4F	   MOV   DPTR,#ZONE7_ACT_TEMP_L
 7638:	  1D48	EE			MOV   A,R6
 7639:	  1D49	F0			MOVX	@DPTR,A
 7640:	  1D4A	EF			MOV	A,R7
 7641:	  1D4B	90 24 4E		MOV   DPTR,#ZONE7_ACT_TEMP_H
 7642:	  1D4E	F0			MOVX  @DPTR,A
 7643:	  1D4F	22		   RET
 7644:
 7645:				;----------------------------------------------------------------------------
 7646:
 7647:
 7648:
 7649:
 7650:	  1D50			   CONTROL_TEMP:

ASEM-51 V1.3                                        Copyright (c) 2002 by W.W. Heinz                                        PAGE 138



 Line  I  Addr  Code            Source

 7651:
 7652:		N      00C8	   HEATER_CYCLE_TIME  EQU  200
 7653:		N      0004	   TEMP_DIFF_5_TO_10  EQU  04H
 7654:
 7655:				;----------------------------------------------------------------------
 7656:				;HERE IN THIS LOGIC TOTAL CYCLE TIME IS SET BY HEATER_CYCLE_TIME
 7657:				;ACTUAL IS SUBSTRACTED FROM SET & THE RESULT IS STORED IN R6
 7658:				;R6 IS MULTIPLIED BY 40 TO GET THE ON TIME
 7659:				;OFF TIME IS CALCULATED BY SUBSTRACTING THE
 7660:				;ON TIME FROM THE TOTAL CYCLE TIME IN TMR HANDLER ROUTINE
 7661:				;IF THE TEMP DIFF IS BETWEEN 5 & 10 DEG  THE ON TIME =12SEC & OFF TIME =8 SEC
 7662:				;HENCE #3 IS LOADED DURING THE COMPARISON IN THE ROUTINE
 7663:				;----------------------------------------------------------------------
 7664:
 7665:	  1D50	90 24 42		MOV	DPTR,#ZONE1_ACT_TEMP_H
 7666:	  1D53	E0			MOVX  A,@DPTR
 7667:	  1D54	FB			MOV	R3,A
 7668:	  1D55	A3			INC	DPTR
 7669:	  1D56	E0		   MOVX  A,@DPTR
 7670:	  1D57	FA			MOV	R2,A
 7671:
 7672:	  1D58	90 10 41	   MOV   DPTR,#ZONE1_SET_L
 7673:	  1D5B	E0		   MOVX  A,@DPTR
 7674:	  1D5C	C3			CLR   C
 7675:	  1D5D	9A			SUBB  A,R2       ;SET-ACTUAL
 7676:	  1D5E	FE			MOV   R6,A
 7677:	  1D5F	90 10 40	   MOV   DPTR,#ZONE1_SET_H
 7678:	  1D62	E0			MOVX  A,@DPTR
 7679:	  1D63	9B			SUBB	A,R3
 7680:
 7681:	  1D64	50 03		   JNC   TEMP_LESS_THAN_SET  ;ACTUAL TEMP IS LESS THAN SET HENCE ON TIME =0
 7682:	  1D66	C3			CLR   C
 7683:	  1D67	80 3C			SJMP  HEATER1_OFF
 7684:
 7685:	  1D69				TEMP_LESS_THAN_SET:
 7686:
 7687:	  1D69	EE			MOV   A,R6
 7688:	  1D6A	B4 05 03		CJNE  A,#5,CHECK_LESS_THAN_TEN_Z1
 7689:	  1D6D	D3		   SETB  C
 7690:	  1D6E	80 35			SJMP  HEATER1_ON                       ;MULTIPLY_Z1
 7691:
 7692:	  1D70				CHECK_LESS_THAN_TEN_Z1:
 7693:
 7694:	  1D70	40 03			JC    ON_OFF_BAND_Z1
 7695:	  1D72	D3			SETB  C
 7696:	  1D73	80 30			SJMP  HEATER1_ON
 7697:
 7698:	  1D75				ON_OFF_BAND_Z1:
 7699:
 7700:	  1D75	12 09 2E		LCALL LOOK_UP_TABLE
 7701:
 7702:
 7703:	  1D78	90 24 81		MOV   DPTR,#TMS20L
 7704:	  1D7B	F0		   MOVX  @DPTR,A
 7705:	  1D7C	C3		   CLR   C
 7706:	  1D7D	FD		   MOV   R5,A

ASEM-51 V1.3                                        Copyright (c) 2002 by W.W. Heinz                                        PAGE 139



 Line  I  Addr  Code            Source

 7707:	  1D7E	74 C8		   MOV   A,#HEATER_CYCLE_TIME
 7708:	  1D80	9D		   SUBB  A,R5
 7709:	  1D81	90 24 83	   MOV   DPTR,#TMS21L
 7710:	  1D84	F0		   MOVX  @DPTR,A
 7711:	  1D85	E4		   CLR   A
 7712:	  1D86	90 24 80	   MOV   DPTR,#TMS20H
 7713:	  1D89	F0		   MOVX  @DPTR,A
 7714:	  1D8A	90 24 82	   MOV   DPTR,#TMS21H
 7715:	  1D8D	F0		   MOVX  @DPTR,A
 7716:
 7717:	  1D8E			   DO_NOT_LOAD_DATA:
 7718:
 7719:	  1D8E	90 5F C0	   MOV   DPTR,#TM20_ENABLE_1
 7720:	  1D91	E0		   MOVX  A,@DPTR
 7721:
 7722:	  1D92	A2 59		   MOV   C,HEATER_ON_OFF
 7723:	  1D94	B0 E3		   ANL   C,/TM21D
 7724:	  1D96	92 E0		   MOV   TM20E,C
 7725:
 7726:	  1D98	A2 E1		   MOV   C,TM20D
 7727:	  1D9A	92 E2		   MOV   TM21E,C
 7728:	  1D9C	F0		   MOVX  @DPTR,A
 7729:
 7730:	  1D9D			   CTRL2_ZONE1:
 7731:
 7732:	  1D9D	90 5F C0	   MOV   DPTR,#TM20_ENABLE_1
 7733:	  1DA0	E0		   MOVX  A,@DPTR
 7734:
 7735:	  1DA1	A2 E0		   MOV	C,TM20E
 7736:	  1DA3	B0 E1			ANL   C,/TM20D
 7737:				;	ANL   C,HEATER_ON_OFF
 7738:
 7739:	  1DA5				HEATER1_ON:
 7740:	  1DA5				HEATER1_OFF:
 7741:
 7742:
 7743:	  1DA5	82 59			ANL   C,HEATER_ON_OFF
 7744:	  1DA7	92 62			MOV	HEATER1,C
 7745:
 7746:				;------------------------------------------------------------
 7747:				;TEMP CONTROL OF ZONE 2 STARTS HERE
 7748:				;------------------------------------------------------------
 7749:
 7750:	  1DA9	90 24 44		MOV	DPTR,#ZONE2_ACT_TEMP_H                   ;CH21H
 7751:	  1DAC	E0			MOVX  A,@DPTR
 7752:	  1DAD	F5 03			MOV	NUM2H,A
 7753:	  1DAF	A3			INC	DPTR
 7754:	  1DB0	E0		   MOVX  A,@DPTR
 7755:	  1DB1	F5 02			MOV	NUM2L,A
 7756:
 7757:	  1DB3	90 10 43	   MOV   DPTR,#ZONE2_SET_L
 7758:	  1DB6	E0		   MOVX  A,@DPTR
 7759:	  1DB7	C3			CLR   C
 7760:	  1DB8	9A			SUBB  A,R2
 7761:	  1DB9	FE			MOV   R6,A
 7762:	  1DBA	90 10 42	   MOV   DPTR,#ZONE2_SET_H

ASEM-51 V1.3                                        Copyright (c) 2002 by W.W. Heinz                                        PAGE 140



 Line  I  Addr  Code            Source

 7763:	  1DBD	E0			MOVX  A,@DPTR
 7764:	  1DBE	9B			SUBB	A,R3
 7765:
 7766:	  1DBF	50 03		   JNC   TEMP_LESS_THAN_SET_Z2  ;ACTUAL TEMP IS LESS THAN SET HENCE ON TIME =0
 7767:	  1DC1	C3			CLR   C
 7768:	  1DC2	80 3C			SJMP  HEATER2_OFF
 7769:
 7770:	  1DC4				TEMP_LESS_THAN_SET_Z2:
 7771:
 7772:	  1DC4	EE			MOV   A,R6
 7773:	  1DC5	B4 05 03		CJNE  A,#5,CHECK_LESS_THAN_TEN_Z2
 7774:	  1DC8	D3		   SETB  C
 7775:	  1DC9	80 35			SJMP  HEATER2_ON                       ;MULTIPLY_Z1
 7776:
 7777:	  1DCB				CHECK_LESS_THAN_TEN_Z2:
 7778:
 7779:	  1DCB	40 03			JC    ON_OFF_BAND_Z2
 7780:	  1DCD	D3			SETB  C
 7781:	  1DCE	80 30			SJMP  HEATER2_ON
 7782:
 7783:	  1DD0				ON_OFF_BAND_Z2:
 7784:
 7785:	  1DD0	12 09 2E		LCALL LOOK_UP_TABLE
 7786:
 7787:
 7788:	  1DD3	90 24 85		MOV   DPTR,#TMS22L
 7789:	  1DD6	F0		   MOVX  @DPTR,A
 7790:	  1DD7	C3		   CLR   C
 7791:	  1DD8	FD		   MOV   R5,A
 7792:	  1DD9	74 C8		   MOV   A,#HEATER_CYCLE_TIME
 7793:	  1DDB	9D		   SUBB  A,R5
 7794:	  1DDC	90 24 87	   MOV   DPTR,#TMS23L
 7795:	  1DDF	F0		   MOVX  @DPTR,A
 7796:	  1DE0	E4		   CLR   A
 7797:	  1DE1	90 24 84	   MOV   DPTR,#TMS22H
 7798:	  1DE4	F0		   MOVX  @DPTR,A
 7799:	  1DE5	90 24 86	   MOV   DPTR,#TMS23H
 7800:	  1DE8	F0		   MOVX  @DPTR,A
 7801:
 7802:	  1DE9			   DO_NOT_LOAD_DATA_Z2:
 7803:
 7804:	  1DE9	90 5F C0	   MOV   DPTR,#TM20_ENABLE_1
 7805:	  1DEC	E0		   MOVX  A,@DPTR
 7806:
 7807:	  1DED	A2 59		   MOV   C,HEATER_ON_OFF
 7808:	  1DEF	B0 E7		   ANL   C,/TM23D
 7809:	  1DF1	92 E4		   MOV   TM22E,C
 7810:
 7811:	  1DF3	A2 E5		   MOV   C,TM22D
 7812:	  1DF5	92 E6		   MOV   TM23E,C
 7813:	  1DF7	F0		   MOVX  @DPTR,A
 7814:
 7815:	  1DF8			   CTRL2_ZONE2:
 7816:
 7817:	  1DF8	90 5F C0	   MOV   DPTR,#TM20_ENABLE_1
 7818:	  1DFB	E0		   MOVX  A,@DPTR

ASEM-51 V1.3                                        Copyright (c) 2002 by W.W. Heinz                                        PAGE 141



 Line  I  Addr  Code            Source

 7819:
 7820:	  1DFC	A2 E4		   MOV	C,TM22E
 7821:	  1DFE	B0 E5			ANL   C,/TM22D
 7822:				;	ANL   C,HEATER_ON_OFF
 7823:
 7824:	  1E00				HEATER2_ON:
 7825:	  1E00				HEATER2_OFF:
 7826:
 7827:
 7828:	  1E00	82 59			ANL   C,HEATER_ON_OFF
 7829:	  1E02	92 63			MOV	HEATER2,C
 7830:
 7831:				;--------------------------------------------------------
 7832:				;HEATER CONTROL ZONE 3
 7833:				;--------------------------------------------------------
 7834:
 7835:	  1E04	90 24 46		MOV	DPTR,#ZONE3_ACT_TEMP_H                     ;CH22H
 7836:	  1E07	E0			MOVX  A,@DPTR
 7837:	  1E08	F5 03			MOV	NUM2H,A
 7838:	  1E0A	A3			INC	DPTR
 7839:	  1E0B	E0		   MOVX  A,@DPTR
 7840:	  1E0C	F5 02			MOV	NUM2L,A
 7841:
 7842:	  1E0E	90 10 45	   MOV   DPTR,#ZONE3_SET_L
 7843:	  1E11	E0		   MOVX  A,@DPTR
 7844:	  1E12	C3			CLR   C
 7845:	  1E13	9A			SUBB  A,R2
 7846:	  1E14	FE			MOV   R6,A
 7847:	  1E15	90 10 44	   MOV   DPTR,#ZONE3_SET_H
 7848:	  1E18	E0			MOVX  A,@DPTR
 7849:	  1E19	9B			SUBB	A,R3
 7850:
 7851:	  1E1A	50 03		   JNC   TEMP_LESS_THAN_SET_Z3  ;ACTUAL TEMP IS LESS THAN SET HENCE ON TIME =0
 7852:	  1E1C	C3			CLR   C
 7853:	  1E1D	80 3C			SJMP  HEATER3_OFF
 7854:
 7855:	  1E1F				TEMP_LESS_THAN_SET_Z3:
 7856:
 7857:	  1E1F	EE			MOV   A,R6
 7858:	  1E20	B4 05 03		CJNE  A,#5,CHECK_LESS_THAN_TEN_Z3
 7859:	  1E23	D3		   SETB  C
 7860:	  1E24	80 35			SJMP  HEATER3_ON                       ;MULTIPLY_Z1
 7861:
 7862:	  1E26				CHECK_LESS_THAN_TEN_Z3:
 7863:
 7864:	  1E26	40 03			JC    ON_OFF_BAND_Z3
 7865:	  1E28	D3			SETB  C
 7866:	  1E29	80 30			SJMP  HEATER3_ON
 7867:
 7868:	  1E2B				ON_OFF_BAND_Z3:
 7869:
 7870:	  1E2B	12 09 2E		LCALL LOOK_UP_TABLE
 7871:
 7872:
 7873:	  1E2E	90 24 89		MOV   DPTR,#TMS24L
 7874:	  1E31	F0		   MOVX  @DPTR,A

ASEM-51 V1.3                                        Copyright (c) 2002 by W.W. Heinz                                        PAGE 142



 Line  I  Addr  Code            Source

 7875:	  1E32	C3		   CLR   C
 7876:	  1E33	FD		   MOV   R5,A
 7877:	  1E34	74 C8		   MOV   A,#HEATER_CYCLE_TIME
 7878:	  1E36	9D		   SUBB  A,R5
 7879:	  1E37	90 24 8B	   MOV   DPTR,#TMS25L
 7880:	  1E3A	F0		   MOVX  @DPTR,A
 7881:	  1E3B	E4		   CLR   A
 7882:	  1E3C	90 24 88	   MOV   DPTR,#TMS24H
 7883:	  1E3F	F0		   MOVX  @DPTR,A
 7884:	  1E40	90 24 8A	   MOV   DPTR,#TMS25H
 7885:	  1E43	F0		   MOVX  @DPTR,A
 7886:
 7887:	  1E44			   DO_NOT_LOAD_DATA_Z3:
 7888:
 7889:	  1E44	90 5F C1	   MOV   DPTR,#TM24_ENABLE_1
 7890:	  1E47	E0		   MOVX  A,@DPTR
 7891:
 7892:	  1E48	A2 59		   MOV   C,HEATER_ON_OFF
 7893:	  1E4A	B0 E3		   ANL   C,/TM25D
 7894:	  1E4C	92 E0		   MOV   TM24E,C
 7895:
 7896:	  1E4E	A2 E1		   MOV   C,TM24D
 7897:	  1E50	92 E2		   MOV   TM25E,C
 7898:	  1E52	F0		   MOVX  @DPTR,A
 7899:
 7900:
 7901:	  1E53			   CTRL2_ZONE3:
 7902:
 7903:	  1E53	90 5F C1	   MOV   DPTR,#TM24_ENABLE_1
 7904:	  1E56	E0		   MOVX  A,@DPTR
 7905:
 7906:	  1E57	A2 E0		   MOV	C,TM24E
 7907:	  1E59	B0 E1			ANL   C,/TM24D
 7908:				;	ANL   C,HEATER_ON_OFF
 7909:
 7910:	  1E5B				HEATER3_ON:
 7911:	  1E5B				HEATER3_OFF:
 7912:
 7913:
 7914:	  1E5B	82 59		   ANL   C,HEATER_ON_OFF
 7915:	  1E5D	92 64			MOV	HEATER3,C
 7916:
 7917:				;-----------------------------------------------------------------
 7918:				;ZONE 4 TEMP. CONTROL
 7919:				;-----------------------------------------------------------------
 7920:
 7921:	  1E5F	90 24 48	   MOV	DPTR,#ZONE4_ACT_TEMP_H                      ;CH23H
 7922:	  1E62	E0			MOVX  A,@DPTR
 7923:	  1E63	F5 03			MOV	NUM2H,A
 7924:	  1E65	A3			INC	DPTR
 7925:	  1E66	E0		   MOVX  A,@DPTR
 7926:	  1E67	F5 02			MOV	NUM2L,A
 7927:
 7928:	  1E69	90 10 47	   MOV   DPTR,#ZONE4_SET_L
 7929:	  1E6C	E0		   MOVX  A,@DPTR
 7930:	  1E6D	C3			CLR   C

ASEM-51 V1.3                                        Copyright (c) 2002 by W.W. Heinz                                        PAGE 143



 Line  I  Addr  Code            Source

 7931:	  1E6E	9A			SUBB  A,R2
 7932:	  1E6F	FE			MOV   R6,A
 7933:	  1E70	90 10 46	   MOV   DPTR,#ZONE4_SET_H
 7934:	  1E73	E0			MOVX  A,@DPTR
 7935:	  1E74	9B			SUBB	A,R3
 7936:
 7937:	  1E75	50 03		   JNC   TEMP_LESS_THAN_SET_Z4  ;ACTUAL TEMP IS LESS THAN SET HENCE ON TIME =0
 7938:	  1E77	C3			CLR   C
 7939:	  1E78	80 3C			SJMP  HEATER4_OFF
 7940:
 7941:	  1E7A				TEMP_LESS_THAN_SET_Z4:
 7942:
 7943:	  1E7A	EE			MOV   A,R6
 7944:	  1E7B	B4 05 03		CJNE  A,#5,CHECK_LESS_THAN_TEN_Z4
 7945:	  1E7E	D3		   SETB  C
 7946:	  1E7F	80 35			SJMP  HEATER4_ON                       ;MULTIPLY_Z1
 7947:
 7948:	  1E81				CHECK_LESS_THAN_TEN_Z4:
 7949:
 7950:	  1E81	40 03			JC    ON_OFF_BAND_Z4
 7951:	  1E83	D3			SETB  C
 7952:	  1E84	80 30			SJMP  HEATER4_ON
 7953:
 7954:	  1E86				ON_OFF_BAND_Z4:
 7955:
 7956:	  1E86	12 09 2E		LCALL LOOK_UP_TABLE
 7957:
 7958:
 7959:	  1E89	90 24 8D		MOV   DPTR,#TMS26L
 7960:	  1E8C	F0		   MOVX  @DPTR,A
 7961:	  1E8D	C3		   CLR   C
 7962:	  1E8E	FD		   MOV   R5,A
 7963:	  1E8F	74 C8		   MOV   A,#HEATER_CYCLE_TIME
 7964:	  1E91	9D		   SUBB  A,R5
 7965:	  1E92	90 24 8F	   MOV   DPTR,#TMS27L
 7966:	  1E95	F0		   MOVX  @DPTR,A
 7967:	  1E96	E4		   CLR   A
 7968:	  1E97	90 24 8C	   MOV   DPTR,#TMS26H
 7969:	  1E9A	F0		   MOVX  @DPTR,A
 7970:	  1E9B	90 24 8E	   MOV   DPTR,#TMS27H
 7971:	  1E9E	F0		   MOVX  @DPTR,A
 7972:
 7973:	  1E9F			   DO_NOT_LOAD_DATA_Z4:
 7974:
 7975:	  1E9F	90 5F C1	   MOV   DPTR,#TM24_ENABLE_1
 7976:	  1EA2	E0		   MOVX  A,@DPTR
 7977:
 7978:	  1EA3	A2 59		   MOV   C,HEATER_ON_OFF
 7979:	  1EA5	B0 E7		   ANL   C,/TM27D
 7980:	  1EA7	92 E4		   MOV   TM26E,C
 7981:
 7982:	  1EA9	A2 E5		   MOV   C,TM26D
 7983:	  1EAB	92 E6		   MOV   TM27E,C
 7984:	  1EAD	F0		   MOVX  @DPTR,A
 7985:
 7986:

ASEM-51 V1.3                                        Copyright (c) 2002 by W.W. Heinz                                        PAGE 144



 Line  I  Addr  Code            Source

 7987:	  1EAE			   CTRL2_ZONE4:
 7988:
 7989:	  1EAE	90 5F C1	   MOV   DPTR,#TM24_ENABLE_1
 7990:	  1EB1	E0		   MOVX  A,@DPTR
 7991:
 7992:	  1EB2	A2 E4		   MOV	C,TM26E
 7993:	  1EB4	B0 E5			ANL   C,/TM26D
 7994:					;
 7995:
 7996:	  1EB6				HEATER4_ON:
 7997:	  1EB6				HEATER4_OFF:
 7998:
 7999:
 8000:	  1EB6	82 59			ANL   C,HEATER_ON_OFF
 8001:
 8002:	  1EB8	92 65			MOV	HEATER4,C
 8003:
 8004:
 8005:				;--------------------------------------------------------------------------
 8006:				;ZONE 5 TEMP. CONTROL
 8007:				;---------------------------------------------------------------------------
 8008:
 8009:	  1EBA			   COMPARE_TEMP5:
 8010:
 8011:	  1EBA	90 24 4A	   MOV	DPTR,#ZONE5_ACT_TEMP_H                      ;CH23H
 8012:	  1EBD	E0			MOVX  A,@DPTR
 8013:	  1EBE	F5 03			MOV	NUM2H,A
 8014:	  1EC0	A3			INC	DPTR
 8015:	  1EC1	E0		   MOVX  A,@DPTR
 8016:	  1EC2	F5 02			MOV	NUM2L,A
 8017:
 8018:	  1EC4	90 10 49	   MOV   DPTR,#ZONE5_SET_L
 8019:	  1EC7	E0		   MOVX  A,@DPTR
 8020:	  1EC8	C3			CLR   C
 8021:	  1EC9	9A			SUBB  A,R2
 8022:	  1ECA	FE			MOV   R6,A
 8023:	  1ECB	90 10 48	   MOV   DPTR,#ZONE5_SET_H
 8024:	  1ECE	E0			MOVX  A,@DPTR
 8025:	  1ECF	9B			SUBB	A,R3
 8026:
 8027:	  1ED0	50 03		   JNC   TEMP_LESS_THAN_SET_Z5  ;ACTUAL TEMP IS LESS THAN SET HENCE ON TIME =0
 8028:	  1ED2	C3			CLR   C
 8029:	  1ED3	80 3C			SJMP  HEATER5_OFF
 8030:
 8031:	  1ED5				TEMP_LESS_THAN_SET_Z5:
 8032:
 8033:	  1ED5	EE			MOV   A,R6
 8034:	  1ED6	B4 05 03		CJNE  A,#5,CHECK_LESS_THAN_TEN_Z5
 8035:	  1ED9	D3		   SETB  C
 8036:	  1EDA	80 35			SJMP  HEATER5_ON                       ;MULTIPLY_Z1
 8037:
 8038:	  1EDC				CHECK_LESS_THAN_TEN_Z5:
 8039:
 8040:	  1EDC	40 03			JC    ON_OFF_BAND_Z5
 8041:	  1EDE	D3			SETB  C
 8042:	  1EDF	80 30			SJMP  HEATER5_ON

ASEM-51 V1.3                                        Copyright (c) 2002 by W.W. Heinz                                        PAGE 145



 Line  I  Addr  Code            Source

 8043:
 8044:	  1EE1				ON_OFF_BAND_Z5:
 8045:
 8046:	  1EE1	12 09 2E		LCALL LOOK_UP_TABLE
 8047:
 8048:
 8049:	  1EE4	90 24 A1		MOV   DPTR,#TMS28L
 8050:	  1EE7	F0		   MOVX  @DPTR,A
 8051:	  1EE8	C3		   CLR   C
 8052:	  1EE9	FD		   MOV   R5,A
 8053:	  1EEA	74 C8		   MOV   A,#HEATER_CYCLE_TIME
 8054:	  1EEC	9D		   SUBB  A,R5
 8055:	  1EED	90 24 A3	   MOV   DPTR,#TMS29L
 8056:	  1EF0	F0		   MOVX  @DPTR,A
 8057:	  1EF1	E4		   CLR   A
 8058:	  1EF2	90 24 A0	   MOV   DPTR,#TMS28H
 8059:	  1EF5	F0		   MOVX  @DPTR,A
 8060:	  1EF6	90 24 A2	   MOV   DPTR,#TMS29H
 8061:	  1EF9	F0		   MOVX  @DPTR,A
 8062:
 8063:	  1EFA			   DO_NOT_LOAD_DATA_Z5:
 8064:
 8065:	  1EFA	90 5F C2	   MOV   DPTR,#TM28_ENABLE_1
 8066:	  1EFD	E0		   MOVX  A,@DPTR
 8067:
 8068:	  1EFE	A2 59		   MOV   C,HEATER_ON_OFF
 8069:	  1F00	B0 E3		   ANL   C,/TM29D
 8070:	  1F02	92 E0		   MOV   TM28E,C
 8071:
 8072:	  1F04	A2 E1		   MOV   C,TM28D
 8073:	  1F06	92 E2		   MOV   TM29E,C
 8074:	  1F08	F0		   MOVX  @DPTR,A
 8075:
 8076:
 8077:	  1F09			   CTRL2_ZONE5:
 8078:
 8079:	  1F09	90 5F C2	   MOV   DPTR,#TM28_ENABLE_1
 8080:	  1F0C	E0		   MOVX  A,@DPTR
 8081:
 8082:	  1F0D	A2 E0		   MOV	C,TM28E
 8083:	  1F0F	B0 E1			ANL   C,/TM28D
 8084:				;
 8085:
 8086:	  1F11				HEATER5_ON:
 8087:	  1F11				HEATER5_OFF:
 8088:
 8089:
 8090:	  1F11	82 59			ANL   C,HEATER_ON_OFF
 8091:	  1F13	92 66			MOV	HEATER5,C
 8092:				;-----------------------------------------------------------
 8093:				;ZONE6 TEMP. CONTROL
 8094:				;-----------------------------------------------------------
 8095:
 8096:	  1F15	90 24 4C	   MOV	DPTR,#ZONE6_ACT_TEMP_H                      ;CH23H
 8097:	  1F18	E0			MOVX  A,@DPTR
 8098:	  1F19	F5 03			MOV	NUM2H,A

ASEM-51 V1.3                                        Copyright (c) 2002 by W.W. Heinz                                        PAGE 146



 Line  I  Addr  Code            Source

 8099:	  1F1B	A3			INC	DPTR
 8100:	  1F1C	E0		   MOVX  A,@DPTR
 8101:	  1F1D	F5 02			MOV	NUM2L,A
 8102:
 8103:	  1F1F	90 10 4B	   MOV   DPTR,#ZONE6_SET_L
 8104:	  1F22	E0		   MOVX  A,@DPTR
 8105:	  1F23	C3			CLR   C
 8106:	  1F24	9A			SUBB  A,R2
 8107:	  1F25	FE			MOV   R6,A
 8108:	  1F26	90 10 4A	   MOV   DPTR,#ZONE6_SET_H
 8109:	  1F29	E0			MOVX  A,@DPTR
 8110:	  1F2A	9B			SUBB	A,R3
 8111:
 8112:	  1F2B	50 03		   JNC   TEMP_LESS_THAN_SET_Z6  ;ACTUAL TEMP IS LESS THAN SET HENCE ON TIME =0
 8113:	  1F2D	C3			CLR   C
 8114:	  1F2E	80 3C			SJMP  HEATER6_OFF
 8115:
 8116:	  1F30				TEMP_LESS_THAN_SET_Z6:
 8117:
 8118:	  1F30	EE			MOV   A,R6
 8119:	  1F31	B4 05 03		CJNE  A,#5,CHECK_LESS_THAN_TEN_Z6
 8120:	  1F34	D3		   SETB  C
 8121:	  1F35	80 35			SJMP  HEATER6_ON                       ;MULTIPLY_Z1
 8122:
 8123:	  1F37				CHECK_LESS_THAN_TEN_Z6:
 8124:
 8125:	  1F37	40 03			JC    ON_OFF_BAND_Z6
 8126:	  1F39	D3			SETB  C
 8127:	  1F3A	80 30			SJMP  HEATER6_ON
 8128:
 8129:	  1F3C				ON_OFF_BAND_Z6:
 8130:
 8131:	  1F3C	12 09 2E		LCALL LOOK_UP_TABLE
 8132:
 8133:
 8134:	  1F3F	90 24 A5		MOV   DPTR,#TMS30L
 8135:	  1F42	F0		   MOVX  @DPTR,A
 8136:	  1F43	C3		   CLR   C
 8137:	  1F44	FD		   MOV   R5,A
 8138:	  1F45	74 C8		   MOV   A,#HEATER_CYCLE_TIME
 8139:	  1F47	9D		   SUBB  A,R5
 8140:	  1F48	90 24 A7	   MOV   DPTR,#TMS31L
 8141:	  1F4B	F0		   MOVX  @DPTR,A
 8142:	  1F4C	E4		   CLR   A
 8143:	  1F4D	90 24 A4	   MOV   DPTR,#TMS30H
 8144:	  1F50	F0		   MOVX  @DPTR,A
 8145:	  1F51	90 24 A6	   MOV   DPTR,#TMS31H
 8146:	  1F54	F0		   MOVX  @DPTR,A
 8147:
 8148:	  1F55			   DO_NOT_LOAD_DATA_Z6:
 8149:
 8150:	  1F55	90 5F C2	   MOV   DPTR,#TM28_ENABLE_1
 8151:	  1F58	E0		   MOVX  A,@DPTR
 8152:
 8153:	  1F59	A2 59		   MOV   C,HEATER_ON_OFF
 8154:	  1F5B	B0 E7		   ANL   C,/TM31D

ASEM-51 V1.3                                        Copyright (c) 2002 by W.W. Heinz                                        PAGE 147



 Line  I  Addr  Code            Source

 8155:	  1F5D	92 E4		   MOV   TM30E,C
 8156:
 8157:	  1F5F	A2 E5		   MOV   C,TM30D
 8158:	  1F61	92 E6		   MOV   TM31E,C
 8159:	  1F63	F0		   MOVX  @DPTR,A
 8160:
 8161:	  1F64			   CTRL2_ZONE6:
 8162:
 8163:	  1F64	90 5F C2	   MOV   DPTR,#TM28_ENABLE_1
 8164:	  1F67	E0		   MOVX  A,@DPTR
 8165:
 8166:	  1F68	A2 E4		   MOV	C,TM30E
 8167:	  1F6A	B0 E5			ANL   C,/TM30D
 8168:
 8169:
 8170:	  1F6C				HEATER6_ON:
 8171:	  1F6C				HEATER6_OFF:
 8172:
 8173:
 8174:	  1F6C	82 59			ANL   C,HEATER_ON_OFF
 8175:
 8176:	  1F6E	92 90			MOV	P1.0,C	           ;HEATER O/P TO BE SPECIFIED LATER
 8177:
 8178:
 8179:	  1F70	22			RET
 8180:
 8181:				;-----------------------------------------------------------
 8182:				;LOW LIMIT COMPARISON FOR EXTRUDER MOTOOR
 8183:				;<NUM2H><NUM2L> - <NUM1H><NUM1L>
 8184:				;-----------------------------------------------------------
 8185:				;ZONE 1 LOW LIMIT CHECK
 8186:				;------------------------------------------------------------
 8187:	  1F71			   LOW_LIMIT_CHK:
 8188:
 8189:	  1F71	90 10 3F		MOV   DPTR,#LOW_LIMIT_L
 8190:	  1F74	E0			MOVX  A,@DPTR
 8191:	  1F75	FD			MOV   R5,A
 8192:	  1F76	90 10 41		MOV   DPTR,#ZONE1_SET_L
 8193:	  1F79	E0		   MOVX	A,@DPTR
 8194:	  1F7A	C3			CLR	C
 8195:	  1F7B	9D			SUBB	A,R5
 8196:	  1F7C	F5 04			MOV	NUM1L,A
 8197:	  1F7E	90 10 40		MOV   DPTR,#ZONE1_SET_H
 8198:	  1F81	E0			MOVX	A,@DPTR
 8199:	  1F82	94 00			SUBB	A,#0
 8200:	  1F84	50 04		   JNC   TEMP_SET1_OK
 8201:	  1F86	C2 70		   CLR   LOW_LIM_Z1
 8202:	  1F88	80 13		   SJMP  CHK_LIMIT_ZONE2
 8203:
 8204:	  1F8A			   TEMP_SET1_OK:
 8205:
 8206:	  1F8A	F5 05			MOV	NUM1H,A
 8207:	  1F8C	90 24 44		MOV   DPTR,#ZONE2_ACT_TEMP_H
 8208:	  1F8F	E0			MOVX  A,@DPTR
 8209:	  1F90	F5 03			MOV	NUM2H,A
 8210:	  1F92	A3			INC	DPTR

ASEM-51 V1.3                                        Copyright (c) 2002 by W.W. Heinz                                        PAGE 148



 Line  I  Addr  Code            Source

 8211:	  1F93	E0		   MOVX  A,@DPTR
 8212:	  1F94	F5 02			MOV	NUM2L,A
 8213:	  1F96	12 08 5E		LCALL	COMPARE
 8214:	  1F99	A2 78			MOV	C,RLY33               ;RLY43 IS SET IF (CURRENT TEMP) < (SET POINT - LOW LIMIT)
 8215:	  1F9B	92 70			MOV	LOW_LIM_Z1,C
 8216:					             ;SET RLY28 IF TEMP IS BELOW LOW LIMIT
 8217:				;-----------------------------------------------------------
 8218:				;ZONE 2 LOW LIMIT CHECK
 8219:				;-----------------------------------------------------------
 8220:	  1F9D			   CHK_LIMIT_ZONE2:
 8221:
 8222:	  1F9D	90 10 3F		MOV   DPTR,#LOW_LIMIT_L
 8223:	  1FA0	E0			MOVX  A,@DPTR
 8224:	  1FA1	FD			MOV   R5,A
 8225:	  1FA2	90 10 43		MOV   DPTR,#ZONE2_SET_L
 8226:	  1FA5	E0		   MOVX	A,@DPTR
 8227:	  1FA6	C3			CLR	C
 8228:	  1FA7	9D			SUBB	A,R5
 8229:	  1FA8	F5 04			MOV	NUM1L,A
 8230:	  1FAA	90 10 42	   MOV   DPTR,#ZONE2_SET_H
 8231:	  1FAD	E0			MOVX	A,@DPTR
 8232:	  1FAE	94 00			SUBB	A,#0
 8233:	  1FB0	50 04		   JNC   TEMP_SET2_OK
 8234:	  1FB2	C2 71		   CLR   LOW_LIM_Z2
 8235:	  1FB4	80 13		   SJMP  CHK_LIMIT_ZONE3
 8236:
 8237:	  1FB6			   TEMP_SET2_OK:
 8238:
 8239:	  1FB6	F5 05			MOV	NUM1H,A
 8240:	  1FB8	90 24 44		MOV   DPTR,#CH21H
 8241:	  1FBB	E0			MOVX  A,@DPTR
 8242:	  1FBC	F5 03			MOV	NUM2H,A
 8243:	  1FBE	A3			INC	DPTR
 8244:	  1FBF	E0		   MOVX  A,@DPTR
 8245:	  1FC0	F5 02			MOV	NUM2L,A
 8246:	  1FC2	12 08 5E		LCALL	COMPARE
 8247:	  1FC5	A2 78			MOV	C,RLY33               ;RLY43 IS SET IF (CURRENT TEMP) < (SET POINT - LOW LIMIT)
 8248:	  1FC7	92 71			MOV	LOW_LIM_Z2,C
 8249:				;--------------------------------------------------------
 8250:				;ZONE 3 LOW LIMIT CHECK
 8251:				;--------------------------------------------------------
 8252:	  1FC9			   CHK_LIMIT_ZONE3:
 8253:
 8254:	  1FC9	90 10 3F		MOV   DPTR,#LOW_LIMIT_L
 8255:	  1FCC	E0			MOVX  A,@DPTR
 8256:	  1FCD	FD			MOV   R5,A
 8257:	  1FCE	90 10 45		MOV   DPTR,#ZONE3_SET_L
 8258:	  1FD1	E0		   MOVX	A,@DPTR
 8259:	  1FD2	C3			CLR	C
 8260:	  1FD3	9D			SUBB	A,R5
 8261:	  1FD4	F5 04			MOV	NUM1L,A
 8262:	  1FD6	90 10 44	   MOV   DPTR,#ZONE3_SET_H
 8263:	  1FD9	E0			MOVX	A,@DPTR
 8264:	  1FDA	94 00			SUBB	A,#0
 8265:	  1FDC	50 04		   JNC   TEMP_SET3_OK
 8266:	  1FDE	C2 72		   CLR   LOW_LIM_Z3

ASEM-51 V1.3                                        Copyright (c) 2002 by W.W. Heinz                                        PAGE 149



 Line  I  Addr  Code            Source

 8267:	  1FE0	80 13		   SJMP  CHK_LIMIT_ZONE4
 8268:
 8269:	  1FE2			   TEMP_SET3_OK:
 8270:
 8271:
 8272:	  1FE2	F5 05			MOV	NUM1H,A
 8273:	  1FE4	90 24 46		MOV   DPTR,#CH22H
 8274:	  1FE7	E0			MOVX  A,@DPTR
 8275:	  1FE8	F5 03			MOV	NUM2H,A
 8276:	  1FEA	A3			INC	DPTR
 8277:	  1FEB	E0		   MOVX  A,@DPTR
 8278:	  1FEC	F5 02			MOV	NUM2L,A
 8279:	  1FEE	12 08 5E		LCALL	COMPARE
 8280:	  1FF1	A2 78			MOV	C,RLY33               ;RLY33 IS SET IF (CURRENT TEMP) < (SET POINT - LOW LIMIT)
 8281:	  1FF3	92 72			MOV	LOW_LIM_Z3,C
 8282:
 8283:
 8284:				;----------------------------------------------------------
 8285:				;ZONE 4 LOW LIMIT CHECK
 8286:				;-----------------------------------------------------------
 8287:	  1FF5				CHK_LIMIT_ZONE4:
 8288:
 8289:	  1FF5	90 10 3F		MOV   DPTR,#LOW_LIMIT_L
 8290:	  1FF8	E0			MOVX  A,@DPTR
 8291:	  1FF9	FD			MOV   R5,A
 8292:	  1FFA	90 10 47		MOV   DPTR,#ZONE4_SET_L
 8293:	  1FFD	E0		   MOVX	A,@DPTR
 8294:	  1FFE	C3			CLR	C
 8295:	  1FFF	9D			SUBB	A,R5
 8296:	  2000	F5 04			MOV	NUM1L,A
 8297:	  2002	90 10 46	   MOV   DPTR,#ZONE4_SET_H
 8298:	  2005	E0			MOVX	A,@DPTR
 8299:	  2006	94 00			SUBB	A,#0
 8300:	  2008	50 04		   JNC   TEMP_SET4_OK
 8301:	  200A	C2 73		   CLR   LOW_LIM_Z4
 8302:	  200C	80 13		   SJMP  CHK_LIMIT_ZONE5
 8303:
 8304:	  200E			   TEMP_SET4_OK:
 8305:
 8306:
 8307:	  200E	F5 05			MOV	NUM1H,A
 8308:	  2010	90 24 48		MOV   DPTR,#CH23H
 8309:	  2013	E0			MOVX  A,@DPTR
 8310:	  2014	F5 03			MOV	NUM2H,A
 8311:	  2016	A3			INC	DPTR
 8312:	  2017	E0		   MOVX  A,@DPTR
 8313:	  2018	F5 02			MOV	NUM2L,A
 8314:	  201A	12 08 5E		LCALL	COMPARE
 8315:	  201D	A2 78			MOV	C,RLY33               ;RLY33 IS SET IF (CURRENT TEMP) < (SET POINT - LOW LIMIT)
 8316:	  201F	92 73			MOV	LOW_LIM_Z4,C
 8317:
 8318:				;-----------------------------------------------------------------
 8319:				;ZONE 5 LOW LIMIT CHECK
 8320:				;-----------------------------------------------------------------
 8321:	  2021				CHK_LIMIT_ZONE5:
 8322:

ASEM-51 V1.3                                        Copyright (c) 2002 by W.W. Heinz                                        PAGE 150



 Line  I  Addr  Code            Source

 8323:
 8324:	  2021	90 10 3F		MOV   DPTR,#LOW_LIMIT_L
 8325:	  2024	E0			MOVX  A,@DPTR
 8326:	  2025	FD			MOV   R5,A
 8327:	  2026	90 10 49		MOV   DPTR,#ZONE5_SET_L
 8328:	  2029	E0		   MOVX	A,@DPTR
 8329:	  202A	C3			CLR	C
 8330:	  202B	9D			SUBB	A,R5
 8331:	  202C	F5 04			MOV	NUM1L,A
 8332:	  202E	90 10 48	   MOV   DPTR,#ZONE5_SET_H
 8333:	  2031	E0			MOVX	A,@DPTR
 8334:	  2032	94 00			SUBB	A,#0
 8335:	  2034	50 04		   JNC   TEMP_SET5_OK
 8336:	  2036	C2 74		   CLR   LOW_LIM_Z5
 8337:	  2038	80 13		   SJMP  CHK_LIMIT_ZONE6
 8338:
 8339:	  203A			   TEMP_SET5_OK:
 8340:
 8341:
 8342:	  203A	F5 05			MOV	NUM1H,A
 8343:	  203C	90 24 4A		MOV   DPTR,#CH24H
 8344:	  203F	E0			MOVX  A,@DPTR
 8345:	  2040	F5 03			MOV	NUM2H,A
 8346:	  2042	A3			INC	DPTR
 8347:	  2043	E0		   MOVX  A,@DPTR
 8348:	  2044	F5 02			MOV	NUM2L,A
 8349:	  2046	12 08 5E		LCALL	COMPARE
 8350:	  2049	A2 78			MOV	C,RLY33               ;RLY33 IS SET IF (CURRENT TEMP) < (SET POINT - LOW LIMIT)
 8351:	  204B	92 74			MOV	LOW_LIM_Z5,C
 8352:
 8353:				;-----------------------------------------------------------------
 8354:				;ZONE 6 LOW LIMIT CHECK
 8355:				;-----------------------------------------------------------------
 8356:
 8357:
 8358:	  204D			   CHK_LIMIT_ZONE6:
 8359:
 8360:	  204D	90 10 3F	   MOV   DPTR,#LOW_LIMIT_L
 8361:	  2050	E0			MOVX  A,@DPTR
 8362:	  2051	FD			MOV   R5,A
 8363:	  2052	90 10 4B		MOV   DPTR,#ZONE6_SET_L
 8364:	  2055	E0		   MOVX	A,@DPTR
 8365:	  2056	C3			CLR	C
 8366:	  2057	9D			SUBB	A,R5
 8367:	  2058	F5 04			MOV	NUM1L,A
 8368:	  205A	90 10 4A	   MOV   DPTR,#ZONE6_SET_H
 8369:	  205D	E0			MOVX	A,@DPTR
 8370:	  205E	94 00			SUBB	A,#0
 8371:	  2060	50 04		   JNC   TEMP_SET6_OK
 8372:	  2062	C2 75		   CLR   LOW_LIM_Z6
 8373:	  2064	80 13		   SJMP  CHK_LIMIT_ZONE7
 8374:
 8375:	  2066			   TEMP_SET6_OK:
 8376:
 8377:
 8378:	  2066	F5 05			MOV	NUM1H,A

ASEM-51 V1.3                                        Copyright (c) 2002 by W.W. Heinz                                        PAGE 151



 Line  I  Addr  Code            Source

 8379:	  2068	90 24 4C		MOV   DPTR,#CH25H
 8380:	  206B	E0			MOVX  A,@DPTR
 8381:	  206C	F5 03			MOV	NUM2H,A
 8382:	  206E	A3			INC	DPTR
 8383:	  206F	E0		   MOVX  A,@DPTR
 8384:	  2070	F5 02			MOV	NUM2L,A
 8385:	  2072	12 08 5E		LCALL	COMPARE
 8386:	  2075	A2 78			MOV	C,RLY33               ;RLY33 IS SET IF (CURRENT TEMP) < (SET POINT - LOW LIMIT)
 8387:	  2077	92 75			MOV	LOW_LIM_Z6,C
 8388:
 8389:	  2079			   CHK_LIMIT_ZONE7:
 8390:
 8391:	  2079	22			RET
 8392:
 8393:
 8394:
 8395:				;-------------------------------------------------------
 8396:	  207A			   CHECK_ALARAM:
 8397:
 8398:
 8399:
 8400:	  207A	90 23 CB	   MOV    DPTR,#ALARM_1_L
 8401:	  207D	E0		   MOVX   A,@DPTR
 8402:	  207E	A2 4A		   MOV    C,EMERGENCY_IP
 8403:	  2080	B3		   CPL    C
 8404:	  2081	92 E0		   MOV    EMERGENCY_PRESSED,C
 8405:	  2083	F0		   MOVX   @DPTR,A
 8406:
 8407:				;-------------------------------------------------------
 8408:	  2084			   CHECK_BLOW_PIN_UP_ERROR:
 8409:
 8410:
 8411:	  2084	A2 49		   MOV     C,BLOW_PINUP_IP
 8412:	  2086	B3		   CPL     C
 8413:	  2087	B0 3A		   ANL     C,/BLOW_PINDN_OP
 8414:	  2089	92 7E		   MOV     RLY39,C
 8415:	  208B	A2 3A		   MOV     C,BLOW_PINDN_OP
 8416:	  208D	82 49		   ANL     C,BLOW_PINUP_IP
 8417:	  208F	72 7E		   ORL     C,RLY39
 8418:	  2091	90 5F C3	   MOV     DPTR,#TM40_ENABLE_1
 8419:	  2094	E0			MOVX    A,@DPTR
 8420:	  2095	92 E0			MOV     TM40E,C
 8421:	  2097	F0			MOVX    @DPTR,A
 8422:
 8423:				          ;TM40E IS BLOW PIN ERROR TIMER
 8424:
 8425:	  2098	A2 5A		   MOV     C,AUTO_MAN_SEL
 8426:	  209A	B0 49		   ANL     C,/BLOW_PINUP_IP           ;BLOW_PINUP_IP BLOW PIN UP I/P
 8427:				  ; ANL     C,/MOULD_OUT_OP
 8428:				  ; ANL     C,/MOULD_OPEN_OP           ;MOULD OPEN O/P
 8429:	  209C	B0 5C		   ANL     C,/B_HOME_POSN          ;B_HOME_POSN IS HOME POSN
 8430:	  209E	92 7E		   MOV     RLY39,C
 8431:
 8432:	  20A0	A2 53		   MOV     C,MOULD_OUT_PB_IP                          ;INP7             ;INP 7 IS MOULD OUT P/B
 8433:	  20A2	72 52		   ORL     C,MOULD_IN_PB_IP                   ;INP6             ;INP6 IS MOULD IN P/B
 8434:	  20A4	B0 5A		   ANL     C,/AUTO_MAN_SEL

ASEM-51 V1.3                                        Copyright (c) 2002 by W.W. Heinz                                        PAGE 152



 Line  I  Addr  Code            Source

 8435:	  20A6	B0 49		   ANL     C,/BLOW_PINUP_IP
 8436:	  20A8	72 7E		   ORL     C,RLY39
 8437:	  20AA	92 7E		   MOV     RLY39,C
 8438:
 8439:	  20AC	90 5F C3	   MOV     DPTR,#TM40_ENABLE_1
 8440:	  20AF	E0			MOVX    A,@DPTR
 8441:	  20B0	A2 E1			MOV     C,TM40D
 8442:	  20B2	B0 49		   ANL     C,/BLOW_PINUP_IP
 8443:	  20B4	B0 3A		   ANL     C,/BLOW_PINDN_OP
 8444:	  20B6	72 7E		   ORL     C,RLY39
 8445:
 8446:	  20B8	90 23 CB	   MOV     DPTR,#ALARM_1_L
 8447:	  20BB	E0		   MOVX    A,@DPTR
 8448:	  20BC	92 E3		   MOV     BLOW_PIN_DN_ERR,C
 8449:	  20BE	F0		   MOVX    @DPTR,A
 8450:
 8451:				;--------------------------------------------------------------------------------
 8452:				;MOULD OPEN I/P ERROR
 8453:				;--------------------------------------------------------------------------------
 8454:	  20BF	A2 39		   MOV     C,MOULD_OPEN_OP
 8455:	  20C1	B0 48		   ANL     C,/MOULD_OPEN_IP
 8456:	  20C3	90 5F C3	   MOV     DPTR,#TM40_ENABLE_1
 8457:	  20C6	E0		   MOVX    A,@DPTR
 8458:	  20C7	92 E2		   MOV     TM41E,C
 8459:	  20C9	F0		   MOVX    @DPTR,A
 8460:
 8461:	  20CA	A2 39		   MOV     C,MOULD_OPEN_OP
 8462:	  20CC	B0 48		   ANL     C,/MOULD_OPEN_IP
 8463:	  20CE	82 E3		   ANL     C,TM41D
 8464:	  20D0	92 7E		   MOV     RLY39,C
 8465:
 8466:	  20D2	A2 5A		   MOV     C,AUTO_MAN_SEL
 8467:	  20D4	B0 48		   ANL     C,/MOULD_OPEN_IP
 8468:	  20D6	B0 5C		   ANL     C,/B_HOME_POSN
 8469:	  20D8	72 7E		   ORL     C,RLY39
 8470:
 8471:	  20DA	90 23 CB	   MOV     DPTR,#ALARM_1_L
 8472:	  20DD	E0		   MOVX    A,@DPTR
 8473:	  20DE	92 E2		   MOV     MOULD_OPEN_ERR,C
 8474:	  20E0	F0		   MOVX    @DPTR,A
 8475:
 8476:				;------------------------------------------------------------------------------------
 8477:				;MOULD OUT ERROR
 8478:				;-----------------------------------------------------------------------------------
 8479:	  20E1	A2 3C		   MOV     C,MOULD_OUT_OP
 8480:	  20E3	B0 4D		   ANL     C,/MOULD_OUT_IP
 8481:	  20E5	90 5F C3	   MOV     DPTR,#TM40_ENABLE_1
 8482:	  20E8	E0		   MOVX    A,@DPTR
 8483:	  20E9	92 E4		   MOV     TM42E,C
 8484:	  20EB	F0		   MOVX    @DPTR,A
 8485:
 8486:
 8487:	  20EC	A2 3C		   MOV     C,MOULD_OUT_OP
 8488:	  20EE	B0 4D		   ANL     C,/MOULD_OUT_IP
 8489:	  20F0	82 E5		   ANL     C,TM42D
 8490:	  20F2	92 7E		   MOV     RLY39,C

ASEM-51 V1.3                                        Copyright (c) 2002 by W.W. Heinz                                        PAGE 153



 Line  I  Addr  Code            Source

 8491:
 8492:	  20F4	A2 5A		   MOV     C,AUTO_MAN_SEL
 8493:	  20F6	B0 4D		   ANL     C,/MOULD_OUT_IP
 8494:	  20F8	B0 5C		   ANL     C,/B_HOME_POSN
 8495:	  20FA	72 7E		   ORL     C,RLY39
 8496:
 8497:	  20FC	90 23 CB	   MOV     DPTR,#ALARM_1_L
 8498:	  20FF	E0		   MOVX    A,@DPTR
 8499:	  2100	92 E1		   MOV     MOULD_OUT_ERR,C
 8500:	  2102	F0		   MOVX    @DPTR,A
 8501:
 8502:				;-----------------------------------------------------------------------------------------
 8503:
 8504:
 8505:	  2103			   CHECK_TEMP_ERROR:
 8506:
 8507:	  2103	90 5F 45	   MOV    DPTR,#RLY552_559
 8508:	  2106	E0		   MOVX   A,@DPTR
 8509:
 8510:	  2107	A2 70		   MOV    C,LOW_LIM_Z1
 8511:	  2109	B0 E0		   ANL    C,/ZONE1_SEL
 8512:	  210B	92 7E		   MOV    RLY39,C
 8513:
 8514:
 8515:	  210D	A2 71		   MOV    C,LOW_LIM_Z2
 8516:	  210F	B0 E1		   ANL    C,/ZONE2_SEL
 8517:	  2111	72 7E		   ORL    C,RLY39
 8518:	  2113	92 7E		   MOV    RLY39,C
 8519:
 8520:	  2115	A2 72		   MOV    C,LOW_LIM_Z3
 8521:	  2117	B0 E2		   ANL    C,/ZONE3_SEL
 8522:	  2119	72 7E		   ORL    C,RLY39
 8523:	  211B	92 7E		   MOV    RLY39,C
 8524:
 8525:	  211D	A2 73		   MOV    C,LOW_LIM_Z4
 8526:	  211F	B0 E3		   ANL    C,/ZONE4_SEL
 8527:	  2121	72 7E		   ORL    C,RLY39
 8528:	  2123	92 7E		   MOV    RLY39,C
 8529:
 8530:	  2125	A2 74		   MOV    C,LOW_LIM_Z5
 8531:	  2127	B0 E4		   ANL    C,/ZONE5_SEL
 8532:	  2129	72 7E		   ORL    C,RLY39
 8533:	  212B	92 7E		   MOV    RLY39,C
 8534:
 8535:	  212D	A2 75		   MOV    C,LOW_LIM_Z6
 8536:	  212F	B0 E5		   ANL    C,/ZONE6_SEL
 8537:	  2131	72 7E		   ORL    C,RLY39
 8538:
 8539:
 8540:
 8541:
 8542:	  2133	90 5F C3	   MOV    DPTR,#TM40_ENABLE_1
 8543:	  2136	E0		   MOVX   A,@DPTR
 8544:	  2137	92 E6		   MOV    TM43E,C
 8545:	  2139	F0		   MOVX   @DPTR,A
 8546:

ASEM-51 V1.3                                        Copyright (c) 2002 by W.W. Heinz                                        PAGE 154



 Line  I  Addr  Code            Source

 8547:	  213A	90 5F C3	   MOV    DPTR,#TM40_ENABLE_1
 8548:	  213D	E0		   MOVX   A,@DPTR
 8549:	  213E	30 E7 03	   JNB    TM43D,ZONE1_ERROR
 8550:
 8551:				;   MOV    DPTR,#RLY536_543
 8552:				;   MOVX   A,@DPTR
 8553:	  2141	C2 67		   CLR    EXTRUDER_OP
 8554:	  2143	F0		   MOVX   @DPTR,A
 8555:
 8556:
 8557:	  2144			   ZONE1_ERROR:
 8558:
 8559:	  2144	90 5F 43	   MOV    DPTR,#RLY536_543
 8560:	  2147	E0		   MOVX   A,@DPTR
 8561:	  2148	A2 E4		   MOV    C,EXTRUDER_ON
 8562:	  214A	82 70		   ANL    C,LOW_LIM_Z1
 8563:	  214C	90 5F C3	   MOV    DPTR,#TM40_ENABLE_1
 8564:	  214F	E0		   MOVX   A,@DPTR
 8565:	  2150	82 E7		   ANL    C,TM43D
 8566:	  2152	90 23 CB	   MOV    DPTR,#ALARM_1_L
 8567:	  2155	E0		   MOVX   A,@DPTR
 8568:	  2156	92 E4		   MOV    ZONE1_LOW_LIMIT_ERR,C
 8569:	  2158	F0		   MOVX   @DPTR,A
 8570:
 8571:
 8572:	  2159			   ZONE2_ERROR:
 8573:
 8574:	  2159	90 5F 43	   MOV    DPTR,#RLY536_543
 8575:	  215C	E0		   MOVX   A,@DPTR
 8576:	  215D	A2 E4		   MOV    C,EXTRUDER_ON
 8577:	  215F	82 71		   ANL    C,LOW_LIM_Z2
 8578:	  2161	90 5F C3	   MOV    DPTR,#TM40_ENABLE_1
 8579:	  2164	E0		   MOVX   A,@DPTR
 8580:	  2165	82 E7		   ANL    C,TM43D
 8581:	  2167	90 23 CB	   MOV    DPTR,#ALARM_1_L
 8582:	  216A	E0		   MOVX   A,@DPTR
 8583:	  216B	92 E5		   MOV    ZONE2_LOW_LIMIT_ERR,C
 8584:	  216D	F0		   MOVX   @DPTR,A
 8585:
 8586:	  216E			   ZONE3_ERROR:
 8587:
 8588:	  216E	90 5F 43	   MOV    DPTR,#RLY536_543
 8589:	  2171	E0		   MOVX   A,@DPTR
 8590:	  2172	A2 E4		   MOV    C,EXTRUDER_ON
 8591:	  2174	82 72		   ANL    C,LOW_LIM_Z3
 8592:	  2176	90 5F C3	   MOV    DPTR,#TM40_ENABLE_1
 8593:	  2179	E0		   MOVX   A,@DPTR
 8594:	  217A	82 E7		   ANL    C,TM43D
 8595:	  217C	90 23 CB	   MOV    DPTR,#ALARM_1_L
 8596:	  217F	E0		   MOVX   A,@DPTR
 8597:	  2180	92 E6		   MOV    ZONE3_LOW_LIMIT_ERR,C
 8598:	  2182	F0		   MOVX   @DPTR,A
 8599:
 8600:	  2183			   ZONE4_ERROR:
 8601:
 8602:	  2183	90 5F 43	   MOV    DPTR,#RLY536_543

ASEM-51 V1.3                                        Copyright (c) 2002 by W.W. Heinz                                        PAGE 155



 Line  I  Addr  Code            Source

 8603:	  2186	E0		   MOVX   A,@DPTR
 8604:	  2187	A2 E4		   MOV    C,EXTRUDER_ON
 8605:	  2189	82 73		   ANL    C,LOW_LIM_Z4
 8606:	  218B	90 5F C3	   MOV    DPTR,#TM40_ENABLE_1
 8607:	  218E	E0		   MOVX   A,@DPTR
 8608:	  218F	82 E7		   ANL    C,TM43D
 8609:	  2191	90 23 CB	   MOV    DPTR,#ALARM_1_L
 8610:	  2194	E0		   MOVX   A,@DPTR
 8611:	  2195	92 E7		   MOV    ZONE4_LOW_LIMIT_ERR,C
 8612:	  2197	F0		   MOVX   @DPTR,A
 8613:
 8614:	  2198			   ZONE5_ERROR:
 8615:
 8616:	  2198	90 5F 43	   MOV    DPTR,#RLY536_543
 8617:	  219B	E0		   MOVX   A,@DPTR
 8618:	  219C	A2 E4		   MOV    C,EXTRUDER_ON
 8619:	  219E	82 74		   ANL    C,LOW_LIM_Z5
 8620:	  21A0	90 5F C3	   MOV    DPTR,#TM40_ENABLE_1
 8621:	  21A3	E0		   MOVX   A,@DPTR
 8622:	  21A4	82 E7		   ANL    C,TM43D
 8623:	  21A6	90 23 CA	   MOV    DPTR,#ALARM_1_H
 8624:	  21A9	E0		   MOVX   A,@DPTR
 8625:	  21AA	92 E0		   MOV    ZONE5_LOW_LIMIT_ERR,C
 8626:	  21AC	F0		   MOVX   @DPTR,A
 8627:
 8628:	  21AD			   ZONE6_ERROR:
 8629:
 8630:	  21AD	90 5F 43	   MOV    DPTR,#RLY536_543
 8631:	  21B0	E0		   MOVX   A,@DPTR
 8632:	  21B1	A2 E4		   MOV    C,EXTRUDER_ON
 8633:	  21B3	82 75		   ANL    C,LOW_LIM_Z6
 8634:	  21B5	90 5F C3	   MOV    DPTR,#TM40_ENABLE_1
 8635:	  21B8	E0		   MOVX   A,@DPTR
 8636:	  21B9	82 E7		   ANL    C,TM43D
 8637:	  21BB	90 23 CA	   MOV    DPTR,#ALARM_1_H
 8638:	  21BE	E0		   MOVX   A,@DPTR
 8639:	  21BF	92 E1		   MOV    ZONE6_LOW_LIMIT_ERR,C
 8640:	  21C1	F0		   MOVX   @DPTR,A
 8641:
 8642:
 8643:	  21C2	22		   RET
 8644:
 8645:
 8646:
 8647:				;****************************************************************************
 8648:				;UPDATE COUNTERS
 8649:				;****************************************************************************
 8650:		N      0001	RCLK00			EQU	01H	;RISING CLOCK SIGNAL FOR ALL
 8651:		N      0002	RCLK01			EQU	02H	;COUNTER WILL BE STORED IN
 8652:		N      0004	RCLK02			EQU	04H	;ONE BYTE LOCATION WE WILL
 8653:		N      0008	RCLK03			EQU	08H	;AND THAT LOCATION WITH RCLKxx
 8654:		N      0010	RCLK04			EQU	10H	;TO CHECK IF RISING EDGE IS
 8655:		N      0020	RCLK05			EQU	20H	;DETECTED AT CLK INPUT OF
 8656:		N      0040	RCLK06			EQU	40H	;COUNTER xx
 8657:		N      0080	RCLK07			EQU	80H
 8658:

ASEM-51 V1.3                                        Copyright (c) 2002 by W.W. Heinz                                        PAGE 156



 Line  I  Addr  Code            Source

 8659:	  21C3			   CTR_HANDLER:
 8660:
 8661:	  21C3	E5 32		   MOV	A,CTR_PREV_CLK
 8662:	  21C5	85 33 32		MOV	CTR_PREV_CLK,CTR_CLK
 8663:	  21C8	F4			CPL	A
 8664:	  21C9	55 33			ANL	A,CTR_CLK
 8665:	  21CB	FF			MOV	R7,A	;STORE RISING CLOCK PULSES IN R7
 8666:
 8667:	  21CC			   CT00_CHK:
 8668:
 8669:	  21CC	E5 34		   MOV   A,CTR_RESET
 8670:	  21CE	30 E0 0F	   JNB	CT00R,CT00_UPDATE
 8671:	  21D1	E4			CLR   A
 8672:	  21D2	90 23 00		MOV	DPTR,#CTC00H                                ;R0 ,#CTC00L
 8673:	  21D5	F0			MOVX	@DPTR,A
 8674:	  21D6	A3			INC	DPTR
 8675:	  21D7	F0			MOVX	@DPTR,A
 8676:	  21D8	E5 35			MOV   A,CTR_DONE                       ;COUNTER0_1
 8677:	  21DA	C2 E0			CLR	CT00D
 8678:	  21DC	F5 35			MOV   CTR_DONE,A
 8679:	  21DE	80 35			SJMP	CT01_CHK
 8680:
 8681:	  21E0			   CT00_UPDATE:
 8682:
 8683:	  21E0	E5 35		   MOV   A,CTR_DONE
 8684:	  21E2	20 E0 30	   JB	   CT00D,CT01_CHK
 8685:	  21E5	EF			MOV	A,R7
 8686:	  21E6	54 01			ANL	A,#RCLK00
 8687:	  21E8	60 2B			JZ	   CT01_CHK
 8688:	  21EA	90 23 01		MOV	DPTR,#CTC00L
 8689:	  21ED	E0			MOVX	A,@DPTR
 8690:	  21EE	24 01			ADD	A,#01H
 8691:	  21F0	F0			MOVX	@DPTR,A
 8692:	  21F1	90 23 00		MOV	DPTR,#CTC00H
 8693:	  21F4	E0			MOVX	A,@DPTR
 8694:	  21F5	34 00			ADDC	A,#00H
 8695:	  21F7	F0			MOVX	@DPTR,A
 8696:
 8697:	  21F8			   CT00_DONE:
 8698:
 8699:
 8700:	  21F8	90 10 91		MOV	DPTR,#CTS00L
 8701:	  21FB	E0		   MOVX  A,@DPTR
 8702:	  21FC	F9		   MOV   R1,A
 8703:	  21FD	90 23 01	   MOV   DPTR,#CTC00L
 8704:	  2200	E0			MOVX	A,@DPTR
 8705:	  2201	C3			CLR	C
 8706:	  2202	99			SUBB	A,R1
 8707:	  2203	90 10 90		MOV	DPTR,#CTS00H
 8708:	  2206	E0		   MOVX  A,@DPTR
 8709:	  2207	F9		   MOV   R1,A
 8710:	  2208	90 23 00		MOV   DPTR,#CTC00H
 8711:	  220B	E0			MOVX	A,@DPTR
 8712:	  220C	99			SUBB	A,R1
 8713:	  220D	40 06			JC	   CT01_CHK
 8714:	  220F	E5 35			MOV   A,CTR_DONE

ASEM-51 V1.3                                        Copyright (c) 2002 by W.W. Heinz                                        PAGE 157



 Line  I  Addr  Code            Source

 8715:	  2211	D2 E0			SETB	CT00D
 8716:	  2213	F5 35			MOV   CTR_DONE,A
 8717:
 8718:
 8719:				;*************************************************
 8720:	  2215			   CT01_CHK:
 8721:
 8722:	  2215	E5 34		   MOV   A,CTR_RESET
 8723:	  2217	30 E1 0F	   JNB	CT01R,CT01_UPDATE
 8724:	  221A	E4			CLR   A
 8725:	  221B	90 23 02		MOV	DPTR,#CTC01H                                ;R0 ,#CTC00L
 8726:	  221E	F0			MOVX	@DPTR,A
 8727:	  221F	A3			INC	DPTR
 8728:	  2220	F0			MOVX	@DPTR,A
 8729:	  2221	E5 35			MOV   A,CTR_DONE
 8730:	  2223	C2 E1			CLR	CT01D
 8731:	  2225	F5 35			MOV   CTR_DONE,A
 8732:	  2227	80 35			SJMP	CT02_CHK
 8733:
 8734:	  2229			   CT01_UPDATE:
 8735:
 8736:	  2229	E5 35		   MOV   A,CTR_DONE
 8737:	  222B	20 E1 30	   JB	   CT01D,CT02_CHK
 8738:	  222E	EF			MOV	A,R7
 8739:	  222F	54 02			ANL	A,#RCLK01
 8740:	  2231	60 2B			JZ	   CT02_CHK
 8741:	  2233	90 23 03		MOV	DPTR,#CTC01L
 8742:	  2236	E0			MOVX	A,@DPTR
 8743:	  2237	24 01			ADD	A,#01H
 8744:	  2239	F0			MOVX	@DPTR,A
 8745:	  223A	90 23 02		MOV	DPTR,#CTC01H
 8746:	  223D	E0			MOVX	A,@DPTR
 8747:	  223E	34 00			ADDC	A,#00H
 8748:	  2240	F0			MOVX	@DPTR,A
 8749:
 8750:	  2241			   CT01_DONE:
 8751:
 8752:
 8753:	  2241	90 10 93		MOV	DPTR,#CTS01L
 8754:	  2244	E0		   MOVX  A,@DPTR
 8755:	  2245	F9		   MOV   R1,A
 8756:	  2246	90 23 03	   MOV   DPTR,#CTC01L
 8757:	  2249	E0			MOVX	A,@DPTR
 8758:	  224A	C3			CLR	C
 8759:	  224B	99			SUBB	A,R1
 8760:	  224C	90 10 92		MOV	DPTR,#CTS01H
 8761:	  224F	E0		   MOVX  A,@DPTR
 8762:	  2250	F9		   MOV   R1,A
 8763:	  2251	90 23 02		MOV   DPTR,#CTC01H
 8764:	  2254	E0			MOVX	A,@DPTR
 8765:	  2255	99			SUBB	A,R1
 8766:	  2256	40 06			JC	   CT02_CHK
 8767:	  2258	E5 35			MOV   A,CTR_DONE
 8768:	  225A	D2 E1			SETB	CT01D
 8769:	  225C	F5 35			MOV   CTR_DONE,A
 8770:				;******************************************************

ASEM-51 V1.3                                        Copyright (c) 2002 by W.W. Heinz                                        PAGE 158



 Line  I  Addr  Code            Source

 8771:	  225E			   CT02_CHK:
 8772:
 8773:	  225E	E5 34		   MOV   A,CTR_RESET
 8774:	  2260	30 E2 0F	   JNB	CT02R,CT02_UPDATE
 8775:	  2263	E4			CLR   A
 8776:	  2264	90 23 04		MOV	DPTR,#CTC02H                                ;R0 ,#CTC00L
 8777:	  2267	F0			MOVX	@DPTR,A
 8778:	  2268	A3			INC	DPTR
 8779:	  2269	F0			MOVX	@DPTR,A
 8780:	  226A	E5 35			MOV   A,CTR_DONE
 8781:	  226C	C2 E2			CLR	CT02D
 8782:	  226E	F5 35			MOV   CTR_DONE,A
 8783:	  2270	80 35			SJMP	CT03_CHK
 8784:
 8785:	  2272			   CT02_UPDATE:
 8786:
 8787:	  2272	E5 35		   MOV   A,CTR_DONE
 8788:	  2274	20 E2 30	   JB	   CT02D,CT03_CHK
 8789:	  2277	EF			MOV	A,R7
 8790:	  2278	54 04			ANL	A,#RCLK02
 8791:	  227A	60 2B			JZ	   CT03_CHK
 8792:	  227C	90 23 05		MOV	DPTR,#CTC02L
 8793:	  227F	E0			MOVX	A,@DPTR
 8794:	  2280	24 01			ADD	A,#01H
 8795:	  2282	F0			MOVX	@DPTR,A
 8796:	  2283	90 23 04		MOV	DPTR,#CTC02H
 8797:	  2286	E0			MOVX	A,@DPTR
 8798:	  2287	34 00			ADDC	A,#00H
 8799:	  2289	F0			MOVX	@DPTR,A
 8800:
 8801:	  228A			   CT02_DONE:
 8802:
 8803:
 8804:	  228A	90 10 95		MOV	DPTR,#CTS02L
 8805:	  228D	E0		   MOVX  A,@DPTR
 8806:	  228E	F9		   MOV   R1,A
 8807:	  228F	90 23 05	   MOV   DPTR,#CTC02L
 8808:	  2292	E0			MOVX	A,@DPTR
 8809:	  2293	C3			CLR	C
 8810:	  2294	99			SUBB	A,R1
 8811:	  2295	90 10 94		MOV	DPTR,#CTS02H
 8812:	  2298	E0		   MOVX  A,@DPTR
 8813:	  2299	F9		   MOV   R1,A
 8814:	  229A	90 23 04		MOV   DPTR,#CTC02H
 8815:	  229D	E0			MOVX	A,@DPTR
 8816:	  229E	99			SUBB	A,R1
 8817:	  229F	40 06			JC	   CT03_CHK
 8818:	  22A1	E5 35			MOV   A,CTR_DONE
 8819:	  22A3	D2 E2			SETB	CT02D
 8820:	  22A5	F5 35			MOV   CTR_DONE,A
 8821:
 8822:	  22A7			   CT03_CHK:
 8823:
 8824:
 8825:	  22A7			   CT04_CHK:
 8826:

ASEM-51 V1.3                                        Copyright (c) 2002 by W.W. Heinz                                        PAGE 159



 Line  I  Addr  Code            Source

 8827:
 8828:	  22A7			   CT05_CHK:
 8829:
 8830:	  22A7	E5 34		     MOV   A,CTR_RESET
 8831:	  22A9	30 E5 0F	     JNB	CT05R,CT05_UPDATE
 8832:	  22AC	E4			CLR   A
 8833:	  22AD	90 23 0A		MOV	DPTR,#CTC05H                                ;R0 ,#CTC00L
 8834:	  22B0	F0			MOVX	@DPTR,A
 8835:	  22B1	A3			INC	DPTR
 8836:	  22B2	F0			MOVX	@DPTR,A
 8837:	  22B3	E5 35			MOV   A,CTR_DONE
 8838:	  22B5	C2 E5			CLR	CT05D
 8839:	  22B7	F5 35			MOV   CTR_DONE,A
 8840:	  22B9	80 35			SJMP	CT06_CHK
 8841:
 8842:	  22BB			   CT05_UPDATE:
 8843:
 8844:	  22BB	E5 35		   MOV   A,CTR_DONE
 8845:	  22BD	20 E5 30	   JB	   CT05D,CT06_CHK
 8846:	  22C0	EF			MOV	A,R7
 8847:	  22C1	54 20			ANL	A,#RCLK05
 8848:	  22C3	60 2B			JZ	   CT06_CHK
 8849:	  22C5	90 23 0B		MOV	DPTR,#CTC05L
 8850:	  22C8	E0			MOVX	A,@DPTR
 8851:	  22C9	24 01			ADD	A,#01H
 8852:	  22CB	F0			MOVX	@DPTR,A
 8853:	  22CC	90 23 0A		MOV	DPTR,#CTC05H
 8854:	  22CF	E0			MOVX	A,@DPTR
 8855:	  22D0	34 00			ADDC	A,#00H
 8856:	  22D2	F0			MOVX	@DPTR,A
 8857:
 8858:	  22D3			   CT05_DONE:
 8859:
 8860:
 8861:	  22D3	90 11 91		MOV	DPTR,#CTS05L
 8862:	  22D6	E0		   MOVX  A,@DPTR
 8863:	  22D7	F9		   MOV   R1,A
 8864:	  22D8	90 23 0B	   MOV   DPTR,#CTC05L
 8865:	  22DB	E0			MOVX	A,@DPTR
 8866:	  22DC	C3			CLR	C
 8867:	  22DD	99			SUBB	A,R1
 8868:	  22DE	90 11 90		MOV	DPTR,#CTS05H
 8869:	  22E1	E0		   MOVX  A,@DPTR
 8870:	  22E2	F9		   MOV   R1,A
 8871:	  22E3	90 23 0A		MOV   DPTR,#CTC05H
 8872:	  22E6	E0			MOVX	A,@DPTR
 8873:	  22E7	99			SUBB	A,R1
 8874:	  22E8	40 06			JC	   CT06_CHK
 8875:	  22EA	E5 35			MOV   A,CTR_DONE
 8876:	  22EC	D2 E5			SETB	CT05D
 8877:	  22EE	F5 35			MOV   CTR_DONE,A
 8878:
 8879:
 8880:				;-----------------------------------------------------------
 8881:	  22F0			   CT06_CHK:
 8882:

ASEM-51 V1.3                                        Copyright (c) 2002 by W.W. Heinz                                        PAGE 160



 Line  I  Addr  Code            Source

 8883:	  22F0	E5 34		   MOV   A,CTR_RESET
 8884:	  22F2	30 E6 0F	   JNB	CT06R,CT06_UPDATE
 8885:	  22F5	E4			CLR   A
 8886:	  22F6	90 23 0C		MOV	DPTR,#CTC06H                                ;R0 ,#CTC00L
 8887:	  22F9	F0			MOVX	@DPTR,A
 8888:	  22FA	A3			INC	DPTR
 8889:	  22FB	F0			MOVX	@DPTR,A
 8890:	  22FC	E5 35			MOV   A,CTR_DONE
 8891:	  22FE	C2 E6			CLR	CT06D
 8892:	  2300	F5 35			MOV   CTR_DONE,A
 8893:	  2302	80 35			SJMP	CT07_CHK
 8894:
 8895:	  2304			   CT06_UPDATE:
 8896:
 8897:	  2304	E5 35		   MOV   A,CTR_DONE
 8898:	  2306	20 E6 30	   JB	   CT06D,CT07_CHK
 8899:	  2309	EF			MOV	A,R7
 8900:	  230A	54 40			ANL	A,#RCLK06
 8901:	  230C	60 2B			JZ	   CT07_CHK
 8902:	  230E	90 23 0D		MOV	DPTR,#CTC06L
 8903:	  2311	E0			MOVX	A,@DPTR
 8904:	  2312	24 01			ADD	A,#01H
 8905:	  2314	F0			MOVX	@DPTR,A
 8906:	  2315	90 23 0C		MOV	DPTR,#CTC06H
 8907:	  2318	E0			MOVX	A,@DPTR
 8908:	  2319	34 00			ADDC	A,#00H
 8909:	  231B	F0			MOVX	@DPTR,A
 8910:
 8911:	  231C			   CT06_DONE:
 8912:
 8913:
 8914:	  231C	90 10 9D		MOV	DPTR,#CTS06L
 8915:	  231F	E0		   MOVX  A,@DPTR
 8916:	  2320	F9		   MOV   R1,A
 8917:	  2321	90 23 0D	   MOV   DPTR,#CTC06L
 8918:	  2324	E0			MOVX	A,@DPTR
 8919:	  2325	C3			CLR	C
 8920:	  2326	99			SUBB	A,R1
 8921:	  2327	90 10 9C		MOV	DPTR,#CTS06H
 8922:	  232A	E0		   MOVX  A,@DPTR
 8923:	  232B	F9		   MOV   R1,A
 8924:	  232C	90 23 0C		MOV   DPTR,#CTC06H
 8925:	  232F	E0			MOVX	A,@DPTR
 8926:	  2330	99			SUBB	A,R1
 8927:	  2331	40 06			JC	   CT07_CHK
 8928:	  2333	E5 35			MOV   A,CTR_DONE
 8929:	  2335	D2 E6			SETB	CT06D
 8930:	  2337	F5 35			MOV   CTR_DONE,A
 8931:
 8932:
 8933:
 8934:	  2339			   CT07_CHK:
 8935:
 8936:
 8937:	  2339	22		   RET
 8938:				;------------------------------------------------------------------

ASEM-51 V1.3                                        Copyright (c) 2002 by W.W. Heinz                                        PAGE 161



 Line  I  Addr  Code            Source

 8939:
 8940:	  233A				PROD_COUNTER:
 8941:
 8942:	  233A	E5 33		   MOV   A,CTR_CLK
 8943:	  233C	A2 21		   MOV	C,EXHAUST_TM08D	;CYCLE COUNTER LOWER 4 DIGITS
 8944:	  233E	92 E1		   MOV	CT01C,C
 8945:	  2340	F5 33		   MOV   CTR_CLK,A
 8946:	  2342	E5 35		   MOV   A,CTR_DONE
 8947:	  2344	A2 E1		   MOV	C,CT01D
 8948:	  2346	E5 34			MOV   A,CTR_RESET
 8949:	  2348	92 E1			MOV	CT01R,C
 8950:	  234A	F5 34		   MOV   CTR_RESET,A
 8951:
 8952:	  234C	E5 35		   MOV   A,CTR_DONE
 8953:	  234E	A2 E1		   MOV	C,CT01D	             ;CYCLE COUNTER HIGH 4 DIGITS
 8954:	  2350	E5 33		   MOV   A,CTR_CLK
 8955:	  2352	92 E0			MOV	CT00C,C
 8956:	  2354	F5 33			MOV   CTR_CLK,A
 8957:
 8958:	  2356	E5 35			MOV   A,CTR_DONE
 8959:	  2358	A2 E0			MOV	C,CT00D
 8960:	  235A	E5 34			MOV   A,CTR_RESET
 8961:	  235C	92 E0			MOV	CT00R,C
 8962:	  235E	F5 34		   MOV   CTR_RESET,A
 8963:
 8964:	  2360	E5 33		   MOV   A,CTR_CLK
 8965:	  2362	A2 21		   MOV	C,EXHAUST_TM08D	;HOURLY PRODUCTION COUNTER
 8966:	  2364	92 E2		   MOV	CT02C,C
 8967:	  2366	F5 33		   MOV   CTR_CLK,A
 8968:	  2368	E5 35		   MOV   A,CTR_DONE
 8969:	  236A	A2 E2		   MOV	C,CT02D
 8970:	  236C	E5 34			MOV   A,CTR_RESET
 8971:	  236E	92 E2			MOV	CT02R,C
 8972:	  2370	F5 34		   MOV   CTR_RESET,A
 8973:
 8974:				;------------------------------------------------
 8975:				;AUTO LUBRICATION COUNTER
 8976:				;-----------------------------------------------
 8977:
 8978:	  2372	E5 33		   MOV   A,CTR_CLK                                 ;EXHAUST_TM08D	;CYCLE COUNTER LOWER 4 DIGIT
				S
 8979:	  2374	A2 21		   MOV	C,EXHAUST_TM08D
 8980:	  2376	92 E5		   MOV	CT05C,C
 8981:	  2378	F5 33		   MOV   CTR_CLK,A
 8982:
 8983:	  237A	E5 35		   MOV   A,CTR_DONE
 8984:	  237C	A2 E5		   MOV	 C,CT05D
 8985:	  237E	92 42		   MOV   AUTO_LUBRICATION_TIM_E,C
 8986:
 8987:	  2380	A2 43		   MOV   C,AUTO_LUBRICATION_TIM_D
 8988:	  2382	90 5F 40	   MOV   DPTR,#RLY512_519
 8989:	  2385	E0		   MOVX  A,@DPTR
 8990:	  2386	72 E1		   ORL   C,LUB_RESET
 8991:	  2388	50 0D		   JNC   NO_RESET_LUB_COUNTER
 8992:	  238A	E4		   CLR   A
 8993:	  238B	90 23 0A	   MOV   DPTR,#CTC05H

ASEM-51 V1.3                                        Copyright (c) 2002 by W.W. Heinz                                        PAGE 162



 Line  I  Addr  Code            Source

 8994:	  238E	F0		   MOVX  @DPTR,A
 8995:	  238F	A3		   INC   DPTR
 8996:	  2390	F0		   MOVX  @DPTR,A
 8997:	  2391	E5 35		   MOV   A,CTR_DONE
 8998:	  2393	C2 E5		   CLR   CT05D
 8999:	  2395	F5 35		   MOV   CTR_DONE,A
 9000:	  2397			   NO_RESET_LUB_COUNTER:
 9001:				;	MOV   A,CTR_RESET
 9002:				;	MOV	CT05R,C
 9003:				;   MOV   CTR_RESET,A
 9004:
 9005:
 9006:	  2397	22		   RET
 9007:				;---------------------------------------
 9008:				;	MOV   A,SECOND_CLK
 9009:				;	CLR   C
 9010:				;	SUBB  A,#50
 9011:				;	JC    NOT_1SEC
 9012:
 9013:				;	MOV   A,CTR_CLK
 9014:				;	MOV	CT06C,C
 9015:				;   MOV   CTR_CLK,A
 9016:				;	MOV   SECOND_CLK,#0
 9017:
 9018:				;	NOT_1SEC:
 9019:
 9020:	  2398	22			RET
 9021:
 9022:				;	MOV	C,CT06D
 9023:				;	JNC	NOT2_1_HOUR_AUTO_DROP
 9024:				;----------------------------------------------------------
 9025:				;	MOV   R2,#11
 9026:				;	MOV   DPTR,#PROD_COUNT_11H
 9027:				;	MOVX  A,@DPTR
 9028:				;	PUSH  DPH
 9029:				;	PUSH  DPL
 9030:
 9031:
 9032:
 9033:				;----------------------------------------------------------
 9034:				;	MOV	R0,#CTC05H	;MOVE HOUR COUNTERS FORWARD
 9035:				;	MOV	R1,#CTC04H
 9036:				;	MOV	R2,#6
 9037:
 9038:				;   XFER2_COUNTS_AUTO_DROP:
 9039:
 9040:				;   MOV	A,@R1
 9041:				;	MOV	@R0,A
 9042:				;;	DEC	R0
 9043:				;	DEC	R1
 9044:				;	DJNZ	R2,XFER2_COUNTS_AUTO_DROP
 9045:				;------------------------------------------------------------
 9046:
 9047:				;	MOV	R0,#CTC02L
 9048:				;	MOV	@R0,#0
 9049:				;	INC	R0

ASEM-51 V1.3                                        Copyright (c) 2002 by W.W. Heinz                                        PAGE 163



 Line  I  Addr  Code            Source

 9050:				;	MOV	@R0,#0
 9051:
 9052:				;   NOT2_1_HOUR_AUTO_DROP:
 9053:
 9054:
 9055:
 9056:	  2399	22		   RET
 9057:
 9058:
 9059:
 9060:
 9061:
 9062:
 9063:
 9064:
 9065:
 9066:
 9067:				   END
 9068:
 9069:
 9070:				;-----------------------------------------------------------------------
 9071:				;DOUBLE CUTTER PROGRAM STARTS HERE
 9072:				;-----------------------------------------------------------------------
 9073:				  ; JNB   RLY00,NO_TIMER19
 9074:				   MOV   C,AUTO_MAN_SEL
				   ^
			  @@@@@ commands after END statement @@@@@

 9075:				   ANL   C,CUTTER_ON_TM03D
				   ^
			  @@@@@ commands after END statement @@@@@

 9076:				   ANL   C,DOUBLE_CUT_SEL
				   ^
			  @@@@@ commands after END statement @@@@@

 9077:				   MOV   CUTTERON_TIME2_TM15E,C
				   ^
			  @@@@@ commands after END statement @@@@@

 9078:				;---------------------------------------------------------------------
 9079:				;BELOW PROGRAM FOR DOUBLE CUT SELECTION
 9080:				;----------------------------------------------------------------------
 9081:				   MOV   C,CUTTERON_TIME2_TM15E
				   ^
			  @@@@@ commands after END statement @@@@@

 9082:				   ANL   C,AUTO_MAN_SEL
				   ^
			  @@@@@ commands after END statement @@@@@

 9083:				   ANL   C,DOUBLE_CUT_SEL
				   ^
			  @@@@@ commands after END statement @@@@@

 9084:				   ANL   C,/CUTTERON_TIME2_TM15D

ASEM-51 V1.3                                        Copyright (c) 2002 by W.W. Heinz                                        PAGE 164



 Line  I  Addr  Code            Source

				   ^
			  @@@@@ commands after END statement @@@@@

 9085:				   MOV   RLY39,C
				   ^
			  @@@@@ commands after END statement @@@@@

 9086:
 9087:				;-----------------------------------------------------------------------
 9088:				;BELOW PROGRAM IS FOR SINGLE CUT
 9089:				;-----------------------------------------------------------------------
 9090:				   MOV   C,CUTTER_ON_TM03E
				   ^
			  @@@@@ commands after END statement @@@@@

 9091:				   ANL   C,AUTO_MAN_SEL
				   ^
			  @@@@@ commands after END statement @@@@@

 9092:				   ANL   C,/DOUBLE_CUT_SEL
				   ^
			  @@@@@ commands after END statement @@@@@

 9093:				   ANL   C,/RLY07
				   ^
			  @@@@@ commands after END statement @@@@@

 9094:				   ANL   C,/CUTTER_ON_TM03D
				   ^
			  @@@@@ commands after END statement @@@@@

 9095:				   ORL   C,RLY39
				   ^
			  @@@@@ commands after END statement @@@@@

 9096:				   MOV   RLY39,C
				   ^
			  @@@@@ commands after END statement @@@@@

 9097:
 9098:				  MOV    DPTR,#RLY528_535
				  ^
			  @@@@@ commands after END statement @@@@@

 9099:				  MOVX   A,@DPTR
				  ^
			  @@@@@ commands after END statement @@@@@

 9100:				  MOV    C,CUTTER2_PB
				  ^
			  @@@@@ commands after END statement @@@@@

 9101:				  ANL    C,/AUTO_MAN_SEL
				  ^
			  @@@@@ commands after END statement @@@@@


ASEM-51 V1.3                                        Copyright (c) 2002 by W.W. Heinz                                        PAGE 165



 Line  I  Addr  Code            Source

 9102:				  ORL    C,RLY39
				  ^
			  @@@@@ commands after END statement @@@@@

 9103:
 9104:				   MOV   CUTTER2_OP,C       ;CUTTER 2
				   ^
			  @@@@@ commands after END statement @@@@@

 9105:
 9106:
 9107:
 9108:
 9109:
 9110:
 9111:
 9112:
 9113:
 9114:
 9115:
 9116:
 9117:
 9118:
 9119:
 9120:
 9121:
 9122:
 9123:
 9124:
 9125:
 9126:
 9127:
 9128:
 9129:
 9130:
 9131:
 9132:
 9133:
 9134:
 9135:
 9136:
 9137:
 9138:
 9139:
 9140:
 9141:
 9142:
 9143:
 9144:
 9145:
 9146:
 9147:
 9148:
 9149:
 9150:
 9151:

ASEM-51 V1.3                                        Copyright (c) 2002 by W.W. Heinz                                        PAGE 166



 Line  I  Addr  Code            Source

 9152:
 9153:
 9154:
 9155:
 9156:
 9157:
 9158:
 9159:
 9160:
 9161:
 9162:
 9163:
 9164:
 9165:
 9166:
 9167:
 9168:
 9169:
 9170:
 9171:
 9172:
 9173:
 9174:
 9175:
 9176:
 9177:
 9178:
 9179:
 9180:
 9181:
 9182:
 9183:
 9184:
 9185:
 9186:
 9187:
 9188:
 9189:
 9190:
 9191:
 9192:
 9193:
 9194:
 9195:
 9196:
 9197:





                     register banks used:  ---

                     22 errors detected



ASEM-51 V1.3                                        Copyright (c) 2002 by W.W. Heinz                                        PAGE 167





ASEM-51 V1.3                                        Copyright (c) 2002 by W.W. Heinz                                        PAGE 168





	       L I S T   O F   S Y M B O L S
	       =============================


SYMBOL				  TYPE     VALUE	LINE
------------------------------------------------------------
??ASEM_51			  NUMBER    8051
??VERSION			  NUMBER    0130
A2D_CHANNEL			  NUMBER    0031	 454
AC				  BIT	      D6
ACC				  DATA	      E0
ADD_LRC_ASC			  CODE	    078E	3024
ADIVLOOP			  CODE	    082E	3206
ADROP				  CODE	    0851	3232
ALARM_1_H			  NUMBER    23CA	 838
ALARM_1_L			  NUMBER    23CB	 846
ALARM_BIT_1_H			  NUMBER    5FC4	1360
ALARM_BIT_1_L			  NUMBER    5FC5	1363
ASCII_TO_HEX			  CODE	    07EB	3123
AUTO_LUBRICATION_TIM_D		  NUMBER    0043	 312
AUTO_LUBRICATION_TIM_E		  NUMBER    0042	 309
AUTO_MAN_SEL			  NUMBER    005A	 354
AUTO_MAN_SEL_BIT		  NUMBER    00E0	1166
A_T_H_1				  CODE	    07F2	3130
A_T_H_2				  CODE	    07F6	3135
A_T_H_3				  CODE	    0801	3146
A_T_H_4				  CODE	    0805	3151
B				  DATA	      F0
BIGPUMP_OP			  NUMBER    003E	 296
BIT_CNT				  NUMBER    000B	 118
BIT_NOT_ON			  CODE	    02DC	2039
BIT_NOT_ON_FN_CODE_02		  CODE	    042B	2312
BIT_READ_MORE_THAN_8		  NUMBER    0002	 140
BIT_START_ADDRESS		  NUMBER    5F00	1066
BIT_START_ADDRESS_INPUT		  NUMBER    0F00	 518
BLOWING_OP			  NUMBER    003F	 297
BLOWING_PB			  NUMBER    00E6	1157
BLOWING_TM07D			  NUMBER    001F	 207
BLOWING_TM07E			  NUMBER    001E	 204
BLOW_DELAY_TM06D		  NUMBER    001D	 201
BLOW_DELAY_TM06E		  NUMBER    001C	 198
BLOW_PINDN_OP			  NUMBER    003A	 292
BLOW_PINDN_PB_IP		  NUMBER    0055	 340
BLOW_PINUP_IP			  NUMBER    0049	 325
BLOW_PINUP_PB_IP		  NUMBER    0054	 339
BLOW_PIN_DN_DLY_TM04D		  NUMBER    0019	 189
BLOW_PIN_DN_DLY_TM04E		  NUMBER    0018	 186
BLOW_PIN_DN_ERR			  NUMBER    00E3	 851
BLOW_PIN_DN_PB			  NUMBER    00E2	1145
BOTTEM_DLY_START_TM108D		  NUMBER    00E1	1400
BOTTEM_DLY_START_TM108E		  NUMBER    00E0	1397
BOTTEM_ON_TM109D		  NUMBER    00E3	1406
BOTTEM_ON_TM109E		  NUMBER    00E2	1403
BOTTEM_OP			  NUMBER    00E2	 439
BOTTOM_UP_PB			  NUMBER    00E4	1206
BYPASS_SINGLE_CUT		  CODE	    19C7	6920

ASEM-51 V1.3                                        Copyright (c) 2002 by W.W. Heinz                                        PAGE 169



SYMBOL				  TYPE     VALUE	LINE
------------------------------------------------------------
BYTE_CNT			  NUMBER    0008	 115
BYTE_CNT_LOADED_FN_CODE_01	  CODE	    02AA	1990
BYTE_CNT_LOADED_FN_CODE_02	  CODE	    03F9	2263
B_FIRST_CYCLE			  NUMBER    0007	 145
B_HOME_POSN			  NUMBER    005C	 359
B_PIN_DN_OP			  NUMBER    0068	 384
CAL_DPTR			  CODE	    01A7	1795
CAL_LRC				  CODE	    07C1	3085
CAL_START_ADDRESS		  CODE	    0708	2883
CH00H				  NUMBER    2420	 862
CH00L				  NUMBER    2421	 865
CH01H				  NUMBER    2422	 868
CH01L				  NUMBER    2423	 871
CH02H				  NUMBER    2424	 874
CH02L				  NUMBER    2425	 877
CH03H				  NUMBER    2426	 880
CH03L				  NUMBER    2427	 883
CH04H				  NUMBER    2428	 886
CH04L				  NUMBER    2429	 889
CH05H				  NUMBER    242A	 892
CH05L				  NUMBER    242B	 895
CH06H				  NUMBER    242C	 898
CH06L				  NUMBER    242D	 901
CH07H				  NUMBER    242E	 904
CH07L				  NUMBER    242F	 907
CH19H				  NUMBER    2440	 910
CH19L				  NUMBER    2441	 913
CH20H				  NUMBER    2442	 916
CH20L				  NUMBER    2443	 919
CH21H				  NUMBER    2444	 922
CH21L				  NUMBER    2445	 925
CH22H				  NUMBER    2446	 928
CH22L				  NUMBER    2447	 931
CH23H				  NUMBER    2448	 934
CH23L				  NUMBER    2449	 937
CH24H				  NUMBER    244A	 940
CH24L				  NUMBER    244B	 943
CH25H				  NUMBER    244C	 946
CH25L				  NUMBER    244D	 949
CH26H				  NUMBER    244E	 952
CH26L				  NUMBER    244F	 955
CHECK_2				  CODE	    0345	2112
CHECK_2_FN_CODE_02		  CODE	    0494	2385
CHECK_3				  CODE	    034E	2119
CHECK_3_FN_CODE_02		  CODE	    049D	2392
CHECK_4				  CODE	    0357	2126
CHECK_4_FN_CODE_02		  CODE	    04A6	2399
CHECK_5				  CODE	    0360	2133
CHECK_5_FN_CODE_02		  CODE	    04AF	2406
CHECK_6				  CODE	    0369	2140
CHECK_6_FN_CODE_02		  CODE	    04B8	2413
CHECK_7				  CODE	    0372	2147
CHECK_7_FN_CODE_02		  CODE	    04C1	2420
CHECK_ALARAM			  CODE	    207A	8396
CHECK_AUTO_MAN_RESET		  CODE	    1C24	7409
CHECK_BLOW_PIN_UP_ERROR		  CODE	    2084	8408

ASEM-51 V1.3                                        Copyright (c) 2002 by W.W. Heinz                                        PAGE 170



SYMBOL				  TYPE     VALUE	LINE
------------------------------------------------------------
CHECK_BOTTEM_OP			  CODE	    1B70	7263
CHECK_CARRY			  CODE	    098B	3556
CHECK_CARRY_TM01		  CODE	    09D9	3621
CHECK_CARRY_TM02		  CODE	    0A26	3682
CHECK_CARRY_TM03		  CODE	    0A73	3743
CHECK_CARRY_TM04		  CODE	    0AC0	3805
CHECK_CARRY_TM05		  CODE	    0B0D	3867
CHECK_CARRY_TM06		  CODE	    0B5A	3929
CHECK_CARRY_TM07		  CODE	    0BA7	3991
CHECK_CARRY_TM08		  CODE	    0BF4	4054
CHECK_CARRY_TM09		  CODE	    0C41	4117
CHECK_CARRY_TM10		  CODE	    0C8E	4180
CHECK_CARRY_TM100		  CODE	    0F63	4816
CHECK_CARRY_TM101		  CODE	    0FB0	4881
CHECK_CARRY_TM104		  CODE	    1001	4947
CHECK_CARRY_TM105		  CODE	    1061	5023
CHECK_CARRY_TM106		  CODE	    10C1	5098
CHECK_CARRY_TM107		  CODE	    1121	5173
CHECK_CARRY_TM108		  CODE	    1181	5247
CHECK_CARRY_TM109		  CODE	    11E1	5321
CHECK_CARRY_TM11		  CODE	    0CDB	4242
CHECK_CARRY_TM110		  CODE	    1241	5395
CHECK_CARRY_TM111		  CODE	    12A1	5469
CHECK_CARRY_TM12		  CODE	    0D28	4304
CHECK_CARRY_TM13		  CODE	    0D75	4368
CHECK_CARRY_TM14		  CODE	    0DC2	4430
CHECK_CARRY_TM15		  CODE	    0E0F	4493
CHECK_CARRY_TM16		  CODE	    0E39	4555
CHECK_CARRY_TM17		  CODE	    0E7C	4618
CHECK_CARRY_TM18		  CODE	    0EC9	4684
CHECK_CARRY_TM19		  CODE	    0F16	4753
CHECK_EMERGENCY			  CODE	    1C3A	7427
CHECK_EXTRUDER_OP		  CODE	    1C04	7369
CHECK_FN_01_QUERY		  CODE	    0161	1723
CHECK_FN_CODE_02_QUERY		  CODE	    0167	1728
CHECK_FN_CODE_05_QUERY		  CODE	    016D	1734
CHECK_FN_CODE_06_QUERY		  CODE	    015B	1718
CHECK_FN_CODE_0F_QUERY		  CODE	    0173	1739
CHECK_FN_CODE_10_QUERY		  CODE	    0179	1745
CHECK_FOR_MORE_THAN_1_BIT	  CODE	    02AF	1997
CHECK_FOR_MORE_THAN_1_BIT_FN_CO	  CODE	    03FE	2270
CHECK_LESS_THAN_TEN_Z1		  CODE	    1D70	7692
CHECK_LESS_THAN_TEN_Z2		  CODE	    1DCB	7777
CHECK_LESS_THAN_TEN_Z3		  CODE	    1E26	7862
CHECK_LESS_THAN_TEN_Z4		  CODE	    1E81	7948
CHECK_LESS_THAN_TEN_Z5		  CODE	    1EDC	8038
CHECK_LESS_THAN_TEN_Z6		  CODE	    1F37	8123
CHECK_LIFTUP_OP			  CODE	    1BC1	7319
CHECK_NEXT_BIT			  CODE	    02CA	2018
CHECK_NEXT_BIT_FN_CODE_02	  CODE	    0419	2291
CHECK_QUERY_LESS_THAN_10H	  CODE	    0153	1711
CHECK_ROTARTY_OP		  CODE	    1B38	7222
CHECK_SERIAL_COMMUNICATION	  CODE	    06E0	2844
CHECK_TEMP_ERROR		  CODE	    2103	8505
CHECK_ZONE1			  CODE	    1C6C	7482
CHECK_ZONE2			  CODE	    1C8D	7506

ASEM-51 V1.3                                        Copyright (c) 2002 by W.W. Heinz                                        PAGE 171



SYMBOL				  TYPE     VALUE	LINE
------------------------------------------------------------
CHECK_ZONE3			  CODE	    1CAE	7531
CHECK_ZONE4			  CODE	    1CCF	7555
CHECK_ZONE5			  CODE	    1CF0	7579
CHECK_ZONE6			  CODE	    1D11	7603
CHECK_ZONE7			  CODE	    1D32	7625
CHK_CUTTER_ONTIME		  CODE	    1988	6861
CHK_EXTRUDER_OFF		  CODE	    1C16	7393
CHK_LIMIT_ZONE2			  CODE	    1F9D	8220
CHK_LIMIT_ZONE3			  CODE	    1FC9	8252
CHK_LIMIT_ZONE4			  CODE	    1FF5	8287
CHK_LIMIT_ZONE5			  CODE	    2021	8321
CHK_LIMIT_ZONE6			  CODE	    204D	8358
CHK_LIMIT_ZONE7			  CODE	    2079	8389
CHK_LOW_LIMIT			  CODE	    1C48	7440
CHK_MOULD_CLOSE			  CODE	    1927	6744
CHK_TMC00H			  CODE	    0978	3541
CHK_TMC00L			  CODE	    097C	3546
CHK_TMC01H			  CODE	    09C6	3606
CHK_TMC01L			  CODE	    09CA	3611
CHK_TMC02H			  CODE	    0A13	3667
CHK_TMC02L			  CODE	    0A17	3672
CHK_TMC03H			  CODE	    0A60	3728
CHK_TMC03L			  CODE	    0A64	3733
CHK_TMC04H			  CODE	    0AAD	3790
CHK_TMC04L			  CODE	    0AB1	3795
CHK_TMC05H			  CODE	    0AFA	3852
CHK_TMC05L			  CODE	    0AFE	3857
CHK_TMC06H			  CODE	    0B47	3914
CHK_TMC06L			  CODE	    0B4B	3919
CHK_TMC07H			  CODE	    0B94	3976
CHK_TMC07L			  CODE	    0B98	3981
CHK_TMC08H			  CODE	    0BE1	4039
CHK_TMC08L			  CODE	    0BE5	4044
CHK_TMC09H			  CODE	    0C2E	4102
CHK_TMC09L			  CODE	    0C32	4107
CHK_TMC100H			  CODE	    0F50	4801
CHK_TMC100L			  CODE	    0F54	4806
CHK_TMC101H			  CODE	    0F9D	4866
CHK_TMC101L			  CODE	    0FA1	4871
CHK_TMC104H			  CODE	    0FEE	4932
CHK_TMC104L			  CODE	    0FF2	4937
CHK_TMC105H			  CODE	    104E	5008
CHK_TMC105L			  CODE	    1052	5013
CHK_TMC106H			  CODE	    10AE	5083
CHK_TMC106L			  CODE	    10B2	5088
CHK_TMC107H			  CODE	    110E	5158
CHK_TMC107L			  CODE	    1112	5163
CHK_TMC108H			  CODE	    116E	5232
CHK_TMC108L			  CODE	    1172	5237
CHK_TMC109H			  CODE	    11CE	5306
CHK_TMC109L			  CODE	    11D2	5311
CHK_TMC10H			  CODE	    0C7B	4165
CHK_TMC10L			  CODE	    0C7F	4170
CHK_TMC110H			  CODE	    122E	5380
CHK_TMC110L			  CODE	    1232	5385
CHK_TMC111H			  CODE	    128E	5454

ASEM-51 V1.3                                        Copyright (c) 2002 by W.W. Heinz                                        PAGE 172



SYMBOL				  TYPE     VALUE	LINE
------------------------------------------------------------
CHK_TMC111L			  CODE	    1292	5459
CHK_TMC11H			  CODE	    0CC8	4227
CHK_TMC11L			  CODE	    0CCC	4232
CHK_TMC12H			  CODE	    0D15	4289
CHK_TMC12L			  CODE	    0D19	4294
CHK_TMC13H			  CODE	    0D62	4353
CHK_TMC13L			  CODE	    0D66	4358
CHK_TMC14H			  CODE	    0DAF	4415
CHK_TMC14L			  CODE	    0DB3	4420
CHK_TMC15H			  CODE	    0DFC	4478
CHK_TMC15L			  CODE	    0E00	4483
CHK_TMC16H			  CODE	    0E39	4540
CHK_TMC16L			  CODE	    0E39	4545
CHK_TMC17H			  CODE	    0E69	4603
CHK_TMC17L			  CODE	    0E6D	4608
CHK_TMC18H			  CODE	    0EB6	4669
CHK_TMC18L			  CODE	    0EBA	4674
CHK_TMC19H			  CODE	    0F03	4738
CHK_TMC19L			  CODE	    0F07	4743
CHK_TMC20L			  CODE	    12F9	5546
CHK_TMC21L			  CODE	    1351	5611
CHK_TMC22L			  CODE	    13A9	5677
CHK_TMC23L			  CODE	    1401	5743
CHK_TMC24L			  CODE	    1459	5808
CHK_TMC25L			  CODE	    14B1	5873
CHK_TMC26L			  CODE	    1509	5938
CHK_TMC27L			  CODE	    1561	6003
CHK_TMC28L			  CODE	    15B9	6069
CHK_TMC29L			  CODE	    1611	6134
CHK_TMC30L			  CODE	    1669	6199
CHK_TMC31L			  CODE	    16C1	6264
CHK_TMC40L			  CODE	    1719	6333
CHK_TMC41L			  CODE	    1771	6400
CHK_TMC42L			  CODE	    17C9	6466
CHK_TMC43L			  CODE	    1821	6530
CLEAR_NXT_INT_RAM		  CODE	    00B5	1567
CLR_BIT_01			  CODE	    055F	2560
CLR_BIT_02			  CODE	    0566	2566
CLR_BIT_03			  CODE	    056D	2572
CLR_BIT_04			  CODE	    0574	2578
CLR_BIT_05			  CODE	    057B	2585
CLR_BIT_06			  CODE	    0582	2591
CLR_BIT_07			  CODE	    0589	2598
CLS_SLWDN_IP			  NUMBER    0056	 341
COIL_NOT_SET			  CODE	    0556	2553
COMPARE				  CODE	    085E	3253
COMPARE_TEMP5			  CODE	    1EBA	8009
CONTROL_TEMP			  CODE	    1D50	7650
CONT_MUL_32			  CODE	    0902	3403
CONV_ASC			  CODE	    07AC	3055
COUNT_1S			  NUMBER    000F	 122
CT00C				  NUMBER    00E0	 462
CT00D				  NUMBER    00E0	 485
CT00R				  NUMBER    00E0	 473
CT00_CHK			  CODE	    21CC	8667
CT00_DONE			  CODE	    21F8	8697

ASEM-51 V1.3                                        Copyright (c) 2002 by W.W. Heinz                                        PAGE 173



SYMBOL				  TYPE     VALUE	LINE
------------------------------------------------------------
CT00_UPDATE			  CODE	    21E0	8681
CT01C				  NUMBER    00E1	 463
CT01D				  NUMBER    00E1	 486
CT01R				  NUMBER    00E1	 474
CT01_CHK			  CODE	    2215	8720
CT01_DONE			  CODE	    2241	8750
CT01_UPDATE			  CODE	    2229	8734
CT02C				  NUMBER    00E2	 464
CT02D				  NUMBER    00E2	 487
CT02R				  NUMBER    00E2	 475
CT02_CHK			  CODE	    225E	8771
CT02_DONE			  CODE	    228A	8801
CT02_UPDATE			  CODE	    2272	8785
CT03C				  NUMBER    00E3	 465
CT03D				  NUMBER    00E3	 488
CT03R				  NUMBER    00E3	 476
CT03_CHK			  CODE	    22A7	8822
CT04C				  NUMBER    00E4	 466
CT04D				  NUMBER    00E4	 489
CT04R				  NUMBER    00E4	 477
CT04_CHK			  CODE	    22A7	8825
CT05C				  NUMBER    00E5	 467
CT05D				  NUMBER    00E5	 490
CT05R				  NUMBER    00E5	 478
CT05_CHK			  CODE	    22A7	8828
CT05_DONE			  CODE	    22D3	8858
CT05_UPDATE			  CODE	    22BB	8842
CT06C				  NUMBER    00E6	 468
CT06D				  NUMBER    00E6	 491
CT06R				  NUMBER    00E6	 479
CT06_CHK			  CODE	    22F0	8881
CT06_DONE			  CODE	    231C	8911
CT06_UPDATE			  CODE	    2304	8895
CT07C				  NUMBER    00E7	 469
CT07D				  NUMBER    00E7	 492
CT07R				  NUMBER    00E7	 480
CT07_CHK			  CODE	    2339	8934
CTC00H				  NUMBER    2300	 694
CTC00L				  NUMBER    2301	 695
CTC01H				  NUMBER    2302	 697
CTC01L				  NUMBER    2303	 698
CTC02H				  NUMBER    2304	 700
CTC02L				  NUMBER    2305	 701
CTC03H				  NUMBER    2306	 703
CTC03L				  NUMBER    2307	 704
CTC04H				  NUMBER    2308	 706
CTC04L				  NUMBER    2309	 707
CTC05H				  NUMBER    230A	 709
CTC05L				  NUMBER    230B	 710
CTC06H				  NUMBER    230C	 712
CTC06L				  NUMBER    230D	 713
CTC07H				  NUMBER    230E	 715
CTC07L				  NUMBER    230F	 716
CTRL2_ZONE1			  CODE	    1D9D	7730
CTRL2_ZONE2			  CODE	    1DF8	7815
CTRL2_ZONE3			  CODE	    1E53	7901

ASEM-51 V1.3                                        Copyright (c) 2002 by W.W. Heinz                                        PAGE 174



SYMBOL				  TYPE     VALUE	LINE
------------------------------------------------------------
CTRL2_ZONE4			  CODE	    1EAE	7987
CTRL2_ZONE5			  CODE	    1F09	8077
CTRL2_ZONE6			  CODE	    1F64	8161
CTR_CLK				  NUMBER    0033	 460
CTR_DONE			  NUMBER    0035	 483
CTR_HANDLER			  CODE	    21C3	8659
CTR_PREV_CLK			  NUMBER    0032	 455
CTR_RESET			  NUMBER    0034	 471
CTS00H				  NUMBER    1090	 648
CTS00L				  NUMBER    1091	 649
CTS01H				  NUMBER    1092	 651
CTS01L				  NUMBER    1093	 652
CTS02H				  NUMBER    1094	 654
CTS02L				  NUMBER    1095	 655
CTS03H				  NUMBER    1096	 657
CTS03L				  NUMBER    1097	 658
CTS04H				  NUMBER    1098	 660
CTS04L				  NUMBER    1099	 661
CTS05H				  NUMBER    1190	 723
CTS05L				  NUMBER    1191	 724
CTS06H				  NUMBER    109C	 664
CTS06L				  NUMBER    109D	 665
CTS07H				  NUMBER    109E	 667
CTS07L				  NUMBER    109F	 668
CUTTER1_OP			  NUMBER    003D	 295
CUTTER1_PB			  NUMBER    00E5	1154
CUTTER2_PB			  NUMBER    00E7	1160
CUTTERON_TIME2_TM15D		  NUMBER    002F	 260
CUTTERON_TIME2_TM15E		  NUMBER    002E	 257
CUTTER_DELAY_OVER		  CODE	    19A0	6887
CUTTER_DLY_TM02D		  NUMBER    0015	 175
CUTTER_DLY_TM02E		  NUMBER    0014	 172
CUTTER_ON_TM03D			  NUMBER    0017	 181
CUTTER_ON_TM03E			  NUMBER    0016	 178
CUTTER_TIME_NOT_ON		  CODE	    1998	6876
CY				  BIT	      D7
CYCLE_TIME_H			  NUMBER    23C0	 820
CYCLE_TIME_L			  NUMBER    23C1	 821
DC_INPUT0			  NUMBER    0029	 322
DC_INPUT1			  NUMBER    002A	 333
DEFLASH_DLY_START_TM104D	  NUMBER    00E1	1374
DEFLASH_DLY_START_TM104E	  NUMBER    00E0	1371
DEFLASH_IN_TM105D		  NUMBER    00E3	1380
DEFLASH_IN_TM105E		  NUMBER    00E2	1377
DEFLASH_OP			  NUMBER    00E0	 437
DEFLASH_PB			  NUMBER    00E2	1200
DEFLASH_SEL			  NUMBER    0069	 385
DEFLASH_SEL_BIT			  NUMBER    00E7	1187
DELAY_OVER			  NUMBER    0006	 144
DIV_16BIT			  CODE	    0827	3202
DONT_LOAD_OPS			  CODE	    08A2	3312
DONT_SET_PIN_DN_OP		  CODE	    1A21	6989
DONT_START_BOTTEM_CUT		  CODE	    1B83	7277
DONT_START_CYCLE_TIME		  CODE	    1990	6868
DONT_START_DEFLASH		  CODE	    1B0F	7192
DONT_START_LIFTUP		  CODE	    1BCE	7331

ASEM-51 V1.3                                        Copyright (c) 2002 by W.W. Heinz                                        PAGE 175



SYMBOL				  TYPE     VALUE	LINE
------------------------------------------------------------
DONT_START_ROTARY_CUT		  CODE	    1B47	7234
DOUBLE_CUT_SEL			  NUMBER    005D	 362
DOUBLE_CUT_SEL_BIT		  NUMBER    00E2	1172
DOWN				  CODE	    0143	1694
DOWN_FN_01			  CODE	    028C	1965
DOWN_FN_02			  CODE	    03DB	2238
DO_NOT_INC_BYTE_COUNTER_1	  CODE	    0386	2173
DO_NOT_LOAD_DATA		  CODE	    1D8E	7717
DO_NOT_LOAD_DATA_Z2		  CODE	    1DE9	7802
DO_NOT_LOAD_DATA_Z3		  CODE	    1E44	7887
DO_NOT_LOAD_DATA_Z4		  CODE	    1E9F	7973
DO_NOT_LOAD_DATA_Z5		  CODE	    1EFA	8063
DO_NOT_LOAD_DATA_Z6		  CODE	    1F55	8148
DO_NOT_RESET_EXTRUDER_TIMER	  CODE	    19A0	6888
DO_NOT_RESET_TM_ENABLE		  CODE	    1AB0	7109
DPH				  DATA	      83
DPL				  DATA	      82
EA				  BIT	      AF
EMERGENCY_IP			  NUMBER    004A	 326
EMERGENCY_PRESSED		  NUMBER    00E0	 848
END_CHARACTER_1			  NUMBER    000D	1424
END_CHARACTER_2			  NUMBER    000A	1425
ES				  BIT	      AC
ET0				  BIT	      A9
ET1				  BIT	      AB
EX0				  BIT	      A8
EX1				  BIT	      AA
EXHAUST_TM08D			  NUMBER    0021	 216
EXHAUST_TM08E			  NUMBER    0020	 213
EXTI0				  CODE	    0003
EXTI1				  CODE	    0013
EXTRUDER_MTR			  NUMBER    004B	 327
EXTRUDER_OFF			  NUMBER    00E6	1184
EXTRUDER_ON			  NUMBER    00E4	1178
EXTRUDER_OP			  NUMBER    0067	 378
F0				  BIT	      D5
FIRST_BYTE			  NUMBER    0004	 142
FLAG_ADDRESS_RLY512		  NUMBER    5F40	1103
FN_CODE_01_QUERY		  CODE	    0249	1915
FN_CODE_02_QUERY		  CODE	    0398	2187
FN_CODE_03_REPLY		  CODE	    0183	1760
FN_CODE_05_QUERY		  CODE	    04E7	2462
FN_CODE_06_QUERY		  CODE	    01E9	1849
FN_CODE_0F_QUERY		  CODE	    05B3	2635
FN_CODE_10_QUERY		  CODE	    0631	2728
GENERAL_BIT_1			  NUMBER    0009	 150
GENERAL_BIT_2			  NUMBER    000A	 151
GENERAL_BIT_3			  NUMBER    000B	 152
GENERAL_BIT_4			  NUMBER    000C	 153
GENERAL_BIT_5			  NUMBER    000D	 154
GENERAL_BIT_6			  NUMBER    000E	 155
GENERAL_BIT_7			  NUMBER    000F	 156
GENERAL_PURPOSE_BITS_1		  NUMBER    0020	 136
GENERAL_PURPOSE_BITS_2		  NUMBER    0021	 147
GET_NEXT_DATA			  CODE	    01BA	1807
HEADER				  NUMBER    003A	1426

ASEM-51 V1.3                                        Copyright (c) 2002 by W.W. Heinz                                        PAGE 176



SYMBOL				  TYPE     VALUE	LINE
------------------------------------------------------------
HEADER_SLAVE_ID			  CODE	    071E	2901
HEATER1				  NUMBER    0062	 373
HEATER1_OFF			  CODE	    1DA5	7740
HEATER1_ON			  CODE	    1DA5	7739
HEATER2				  NUMBER    0063	 374
HEATER2_OFF			  CODE	    1E00	7825
HEATER2_ON			  CODE	    1E00	7824
HEATER3				  NUMBER    0064	 375
HEATER3_OFF			  CODE	    1E5B	7911
HEATER3_ON			  CODE	    1E5B	7910
HEATER4				  NUMBER    0065	 376
HEATER4_OFF			  CODE	    1EB6	7997
HEATER4_ON			  CODE	    1EB6	7996
HEATER5				  NUMBER    0066	 377
HEATER5_OFF			  CODE	    1F11	8087
HEATER5_ON			  CODE	    1F11	8086
HEATER6_OFF			  CODE	    1F6C	8171
HEATER6_ON			  CODE	    1F6C	8170
HEATER_CYCLE_TIME		  NUMBER    00C8	7652
HEATER_ON_OFF			  NUMBER    0059	 351
HEATER_ON_OFF_BIT		  NUMBER    00E1	1169
HEX_TO_ASCII			  CODE	    0807	3158
HOME_POSN_NOT_ACHIEVED		  CODE	    18F1	6696
HUND_MSEC_BIT			  NUMBER    0008	 149
H_T_A_1				  CODE	    0811	3166
H_T_A_2				  CODE	    0815	3171
H_T_A_3				  CODE	    0820	3180
H_T_A_4				  CODE	    0824	3185
IE				  DATA	      A8
IE0				  BIT	      89
IE1				  BIT	      8B
INCREMENT_BYTE_CNT		  CODE	    029F	1977
INCREMENT_BYTE_CNT_FN_CODE_02	  CODE	    03EE	2250
INIT				  CODE	    0026	1443
INITALISE_RECEIVE		  CODE	    06F2	2864
INIT_1				  CODE	    0048	1458
INIT_RCVE			  CODE	    007E	1519
INIT_TIMER0			  CODE	    0051	1472
INIT_TIMER1			  CODE	    0075	1507
INIT_XMIT			  CODE	    0088	1531
INPUT_ADDRESS			  NUMBER    F800	  98
INT0				  BIT	      B2
INT1				  BIT	      B3
IP				  DATA	      B8
IP_DEBOUNCE			  NUMBER    0037	 496
ISR_T0				  CODE	    0061	1486
IT0				  BIT	      88
IT1				  BIT	      8A
JUMP_BACK			  CODE	    0181	1753
LADDER				  CODE	    18A0	6626
LADDER_INIT_2			  CODE	    1858	6580
LAST_BYTE			  NUMBER    0005	 143
LIFTUP_DLY_TM110D		  NUMBER    00E5	1412
LIFTUP_DLY_TM110E		  NUMBER    00E4	1409
LIFTUP_ON_TM111D		  NUMBER    00E7	1418
LIFTUP_ON_TM111E		  NUMBER    00E6	1415

ASEM-51 V1.3                                        Copyright (c) 2002 by W.W. Heinz                                        PAGE 177



SYMBOL				  TYPE     VALUE	LINE
------------------------------------------------------------
LIFTUP_OP			  NUMBER    00E3	 440
LIFTUP_PB			  NUMBER    00E5	1209
LOAD_OPS			  CODE	    0880	3291
LOAD_OUTPUT			  CODE	    0878	3284
LOAD_TRANSMIT_BUFFER_FN_CODE_01	  CODE	    026E	1938
LOAD_TRANSMIT_BUFFER_FN_CODE_02	  CODE	    03BD	2211
LOCATE_BIT			  CODE	    02D4	2031
LOCATE_BIT_FN_CODE_02		  CODE	    0423	2304
LOCKING_PB			  NUMBER    00E0	1123
LOCKING_SEL			  NUMBER    0058	 348
LOCKING_SEL_BIT			  NUMBER    00E3	1175
LOOK_UP_TABLE			  CODE	    092E	3452
LOOP1_CALLRC			  CODE	    07C7	3094
LOOP1_SERIAL			  CODE	    0734	2936
LOOP2_SERIAL			  CODE	    073C	2943
LOOP2_TRANS			  CODE	    0780	3001
LOOP3_TRANS			  CODE	    0783	3005
LOW_LIMIT_CHK			  CODE	    1F71	8187
LOW_LIMIT_H			  NUMBER    103E	 527
LOW_LIMIT_L			  NUMBER    103F	 528
LOW_LIM_Z1			  NUMBER    0070	 398
LOW_LIM_Z2			  NUMBER    0071	 401
LOW_LIM_Z3			  NUMBER    0072	 404
LOW_LIM_Z4			  NUMBER    0073	 407
LOW_LIM_Z5			  NUMBER    0074	 410
LOW_LIM_Z6			  NUMBER    0075	 413
LOW_LIM_Z7			  NUMBER    0076	 416
LOW_LIM_Z8			  NUMBER    0077	 419
LRC_CODE			  NUMBER    000C	 119
LRC_HI				  NUMBER    000D	 120
LRC_LO				  NUMBER    000E	 121
LUBRICATION_OP			  NUMBER    0061	 372
LUBRICATION_PB			  NUMBER    00E0	1108
LUBRICATION_SEL			  NUMBER    00E1	1197
LUB_RESET			  NUMBER    00E1	1111
LUT_RTU_ASC			  CODE	    07B1	3061
MAIN				  CODE	    0092	1541
MAIN_LOOP			  CODE	    00E3	1625
MAIN_ROUTINE			  CODE	    00E6	1632
MLD_CLS_DLY_NOT_STARTED		  CODE	    1933	6760
MLD_CLS_TM_D			  NUMBER    0041	 306
MLD_CLS_TM_E			  NUMBER    0040	 303
MORE_THAN_EIGHT_TO_READ		  CODE	    0303	2065
MORE_THAN_EIGHT_TO_READ_FN_CODE	  CODE	    0452	2338
MOULDCLOSE_SLOW_TM10D		  NUMBER    0025	 228
MOULDCLOSE_SLOW_TM10E		  NUMBER    0024	 225
MOULDIN_DLY_TM14D		  NUMBER    002D	 254
MOULDIN_DLY_TM14E		  NUMBER    002C	 251
MOULDIN_SLOW_TM09D		  NUMBER    0023	 222
MOULDIN_SLOW_TM09E		  NUMBER    0022	 219
MOULDOUT_DLY_TM19D		  NUMBER    0037	 283
MOULDOUT_DLY_TM19E		  NUMBER    0036	 280
MOULDOUT_SLOW_TM11D		  NUMBER    0027	 234
MOULDOUT_SLOW_TM11E		  NUMBER    0026	 231
MOULD_CLOSE_DLY_TM01D		  NUMBER    0013	 169
MOULD_CLOSE_DLY_TM01E		  NUMBER    0012	 166

ASEM-51 V1.3                                        Copyright (c) 2002 by W.W. Heinz                                        PAGE 178



SYMBOL				  TYPE     VALUE	LINE
------------------------------------------------------------
MOULD_CLOSE_IP			  NUMBER    0057	 342
MOULD_CLOSE_IP_ON		  CODE	    1988	6854
MOULD_CLOSE_OP			  NUMBER    0038	 290
MOULD_CLOSE_PB			  NUMBER    00E0	1139
MOULD_CLOSE_PB_IP		  NUMBER    0050	 335
MOULD_IN_ERR			  NUMBER    00E4	 844
MOULD_IN_IP			  NUMBER    004C	 328
MOULD_IN_OP			  NUMBER    003B	 293
MOULD_IN_PB			  NUMBER    00E3	1148
MOULD_IN_PB_IP			  NUMBER    0052	 337
MOULD_IN_SLOW_IP		  NUMBER    004E	 330
MOULD_IN_TM00D			  NUMBER    0011	 163
MOULD_IN_TM00E			  NUMBER    0010	 160
MOULD_OPEN_ERR			  NUMBER    00E2	 850
MOULD_OPEN_IP			  NUMBER    0048	 324
MOULD_OPEN_OP			  NUMBER    0039	 291
MOULD_OPEN_PB			  NUMBER    00E1	1142
MOULD_OPEN_PB_IP		  NUMBER    0051	 336
MOULD_OUT_ERR			  NUMBER    00E1	 849
MOULD_OUT_IP			  NUMBER    004D	 329
MOULD_OUT_OP			  NUMBER    003C	 294
MOULD_OUT_PB			  NUMBER    00E4	1151
MOULD_OUT_PB_IP			  NUMBER    0053	 338
MOULD_OUT_SLOW_IP		  NUMBER    004F	 331
MOV_RES_LEFT			  CODE	    091F	3435
MULTIPLICATION			  CODE	    08F9	3394
MUL_OV_32			  CODE	    091E	3431
NEXT_BYTE_FN_CODE_0F		  CODE	    05F7	2682
NEXT_DATA			  CODE	    05DD	2662
NEXT_DATA_REG			  CODE	    063E	2736
NEXT_LOCN			  CODE	    00CB	1599
NEXT_LOCN1			  CODE	    00C9	1595
NON_BATBACKUP_WORDS		  NUMBER    2388	 733
NON_BATT_BITS			  CODE	    00BE	1582
NON_BAT_BACKUP_BITS		  NUMBER    5FC0	1256
NOT_100MSEC			  CODE	    12D4	5519
NOT_10MSEC			  CODE	    0951	3514
NOT_EQUAL			  CODE	    0875	3275
NOT_LESS			  CODE	    086F	3268
NOT_MY_SCAN			  CODE	    08CF	3353
NOT_MY_SCAN_TC			  CODE	    0120	1658
NO_DPTR_INCREASE		  CODE	    01C5	1816
NO_INCREMENT_BYTE_CNT		  CODE	    02A2	1982
NO_INCREMENT_BYTE_CNT_FN_CODE_0	  CODE	    03F1	2255
NO_RESET_LUB_COUNTER		  CODE	    2397	9000
NUM1H				  NUMBER    0005	3248
NUM1L				  NUMBER    0004	3247
NUM2H				  NUMBER    0003	3250
NUM2L				  NUMBER    0002	3249
ON_OFF_BAND_Z1			  CODE	    1D75	7698
ON_OFF_BAND_Z2			  CODE	    1DD0	7783
ON_OFF_BAND_Z3			  CODE	    1E2B	7868
ON_OFF_BAND_Z4			  CODE	    1E86	7954
ON_OFF_BAND_Z5			  CODE	    1EE1	8044
ON_OFF_BAND_Z6			  CODE	    1F3C	8129
OUT00				  NUMBER    00E0	1070

ASEM-51 V1.3                                        Copyright (c) 2002 by W.W. Heinz                                        PAGE 179



SYMBOL				  TYPE     VALUE	LINE
------------------------------------------------------------
OUT01				  NUMBER    00E1	1071
OUT02				  NUMBER    00E2	1072
OUT03				  NUMBER    00E3	1073
OUT04				  NUMBER    00E4	1074
OUT05				  NUMBER    00E5	1075
OUT06				  NUMBER    00E6	1076
OUT07				  NUMBER    00E7	1077
OUT08				  NUMBER    00E0	1081
OUT09				  NUMBER    00E1	1082
OUT0_7				  NUMBER    0027	 288
OUT10				  NUMBER    00E2	1083
OUT11				  NUMBER    00E3	1084
OUT12				  NUMBER    00E4	1085
OUT13				  NUMBER    00E5	1086
OUT14				  NUMBER    00E6	1087
OUT15				  NUMBER    00E7	1088
OUT16				  NUMBER    00E0	1091
OUT16_23			  NUMBER    0030	 435
OUT17				  NUMBER    00E1	1092
OUT18				  NUMBER    00E2	1093
OUT19				  NUMBER    00E3	1094
OUT20				  NUMBER    00E4	1095
OUT21				  NUMBER    00E5	1096
OUT22				  NUMBER    00E6	1097
OUT23				  NUMBER    00E7	1098
OUT8_15				  NUMBER    002C	 368
OUTPUT00_07			  NUMBER    5F00	1069
OUTPUT08_15			  NUMBER    5F01	1080
OUTPUT16_23			  NUMBER    5F02	1090
OUTPUT_ADDRESS			  NUMBER    E800	  97
OUT_ISRT0			  CODE	    0074	1500
OUT_RCVE			  CODE	    075C	2972
OUT_TRANS			  CODE	    0785	3009
OV				  BIT	      D2
P				  BIT	      D0
P0				  DATA	      80
P1				  DATA	      90
P2				  DATA	      A0
P3				  DATA	      B0
PARISON_DLY_TM12D		  NUMBER    0029	 242
PARISON_DLY_TM12E		  NUMBER    0028	 239
PARISON_ON_TIME_TM13D		  NUMBER    002B	 248
PARISON_ON_TIME_TM13E		  NUMBER    002A	 245
PCON				  DATA	      87
PIN_DN_OP_PRG_START		  CODE	    1A2D	6999
POWER_ON_STATE			  NUMBER    0036	 495
PREBLOW_TM05D			  NUMBER    001B	 195
PREBLOW_TM05E			  NUMBER    001A	 192
PREV_DCINP0			  NUMBER    001E	 129
PREV_DCINP1			  NUMBER    001F	 130
PREV_RECEIPE			  NUMBER    001D	 128
PROD_COUNTER			  CODE	    233A	8940
PS				  BIT	      BC
PSW				  DATA	      D0
PT0				  BIT	      B9
PT1				  BIT	      BB

ASEM-51 V1.3                                        Copyright (c) 2002 by W.W. Heinz                                        PAGE 180



SYMBOL				  TYPE     VALUE	LINE
------------------------------------------------------------
PX0				  BIT	      B8
PX1				  BIT	      BA
R0_ADDR				  NUMBER    0000	2919
RB8				  BIT	      9A
RCLK00				  NUMBER    0001	8650
RCLK01				  NUMBER    0002	8651
RCLK02				  NUMBER    0004	8652
RCLK03				  NUMBER    0008	8653
RCLK04				  NUMBER    0010	8654
RCLK05				  NUMBER    0020	8655
RCLK06				  NUMBER    0040	8656
RCLK07				  NUMBER    0080	8657
RCVE				  CODE	    0740	2951
RCVE_OVER			  NUMBER    0000	 138
RD				  BIT	      B7
READ_ADC			  CODE	    08D0	3359
READ_INPUTS			  CODE	    08A3	3317
READ_LESS_THAN_EIGHT		  CODE	    033C	2104
READ_LESS_THAN_EIGHT_FN_CODE_02	  CODE	    048B	2377
READ_MORE_THAN_1_BIT		  CODE	    02E2	2045
READ_MORE_THAN_1_BIT_FN_CODE_02	  CODE	    0431	2318
RELOAD_BACK_DATA		  CODE	    058B	2603
REMAINDER			  NUMBER    0039	 498
REN				  BIT	      9C
REPEAT				  CODE	    02D0	2025
REPEAT_05_REPLY			  CODE	    0591	2613
REPEAT_0F_REPLY			  CODE	    0602	2699
REPEAT_FN_CODE_02		  CODE	    041F	2298
REPEAT_TRANSFER_FROM_RX_TX	  CODE	    0227	1889
REPEAT_TRANSFER_FROM_RX_TX_FN_C	  CODE	    069B	2794
REPLY_05_START			  CODE	    058C	2607
REPLY_BIT_LOADED		  CODE	    0379	2160
REPLY_BIT_LOADED_FN_CODE_02	  CODE	    04C8	2433
RESET				  CODE	    0000
RESET_PIN_DN_OP			  CODE	    1A2D	7000
RESET_SERIAL_COMMUNICATION	  CODE	    06EE	2857
RESET_WATCHDOG			  CODE	    0937	3474
RI				  BIT	      98
RLY01				  NUMBER    0058	 347
RLY01_08			  NUMBER    002B	 345
RLY02				  NUMBER    0059	 350
RLY03				  NUMBER    005A	 353
RLY04				  NUMBER    005B	 356
RLY05				  NUMBER    005C	 358
RLY06				  NUMBER    005D	 361
RLY07				  NUMBER    005E	 364
RLY08				  NUMBER    005F	 365
RLY1536_1543			  NUMBER    5FC0	1259
RLY1537				  NUMBER    00E0	1263
RLY1538				  NUMBER    00E1	1266
RLY1539				  NUMBER    00E2	1269
RLY1540				  NUMBER    00E3	1272
RLY1541				  NUMBER    00E4	1275
RLY1542				  NUMBER    00E5	1278
RLY1543				  NUMBER    00E6	1281
RLY1544				  NUMBER    00E7	1284

ASEM-51 V1.3                                        Copyright (c) 2002 by W.W. Heinz                                        PAGE 181



SYMBOL				  TYPE     VALUE	LINE
------------------------------------------------------------
RLY1544_1551			  NUMBER    5FC1	1288
RLY1545				  NUMBER    00E0	1292
RLY1546				  NUMBER    00E1	1295
RLY1547				  NUMBER    00E2	1298
RLY1548				  NUMBER    00E3	1301
RLY1549				  NUMBER    00E4	1304
RLY1550				  NUMBER    00E5	1307
RLY1551				  NUMBER    00E6	1310
RLY1552				  NUMBER    00E7	1313
RLY1552_1559			  NUMBER    5FC2	1317
RLY1553				  NUMBER    00E0	1322
RLY1554				  NUMBER    00E1	1325
RLY1555				  NUMBER    00E2	1328
RLY1556				  NUMBER    00E3	1331
RLY1557				  NUMBER    00E4	1334
RLY1558				  NUMBER    00E5	1337
RLY1559				  NUMBER    00E6	1340
RLY1560				  NUMBER    00E7	1343
RLY1560_1567			  NUMBER    5FC3	1347
RLY1568_1575			  NUMBER    5FC4	1361
RLY1576_1583			  NUMBER    5FC5	1364
RLY17_24			  NUMBER    002D	 381
RLY18				  NUMBER    0069	 387
RLY19				  NUMBER    006A	 388
RLY20				  NUMBER    006B	 389
RLY21				  NUMBER    006C	 390
RLY22				  NUMBER    006D	 391
RLY23				  NUMBER    006E	 392
RLY24				  NUMBER    006F	 393
RLY25				  NUMBER    0070	 399
RLY25_32			  NUMBER    002E	 396
RLY26				  NUMBER    0071	 402
RLY27				  NUMBER    0072	 405
RLY28				  NUMBER    0073	 408
RLY29				  NUMBER    0074	 411
RLY30				  NUMBER    0075	 414
RLY31				  NUMBER    0076	 417
RLY32				  NUMBER    0077	 420
RLY33				  NUMBER    0078	 424
RLY33_40			  NUMBER    002F	 422
RLY34				  NUMBER    0079	 425
RLY35				  NUMBER    007A	 426
RLY36				  NUMBER    007B	 427
RLY37				  NUMBER    007C	 428
RLY38				  NUMBER    007D	 429
RLY39				  NUMBER    007E	 430
RLY40				  NUMBER    007F	 431
RLY512				  NUMBER    00E0	1107
RLY512_519			  NUMBER    5F40	1105
RLY513				  NUMBER    00E1	1110
RLY514				  NUMBER    00E2	1113
RLY515				  NUMBER    00E3	1114
RLY516				  NUMBER    00E4	1115
RLY517				  NUMBER    00E5	1116
RLY518				  NUMBER    00E6	1117
RLY519				  NUMBER    00E7	1118

ASEM-51 V1.3                                        Copyright (c) 2002 by W.W. Heinz                                        PAGE 182



SYMBOL				  TYPE     VALUE	LINE
------------------------------------------------------------
RLY520				  NUMBER    00E0	1122
RLY520_527			  NUMBER    5F41	1120
RLY521				  NUMBER    00E1	1125
RLY522				  NUMBER    00E2	1126
RLY523				  NUMBER    00E3	1127
RLY524				  NUMBER    00E4	1128
RLY525				  NUMBER    00E5	1129
RLY526				  NUMBER    00E6	1130
RLY527				  NUMBER    00E7	1131
RLY528				  NUMBER    00E0	1138
RLY528_535			  NUMBER    5F42	1136
RLY529				  NUMBER    00E1	1141
RLY530				  NUMBER    00E2	1144
RLY531				  NUMBER    00E3	1147
RLY532				  NUMBER    00E4	1150
RLY533				  NUMBER    00E5	1153
RLY534				  NUMBER    00E6	1156
RLY535				  NUMBER    00E7	1159
RLY536				  NUMBER    00E0	1165
RLY536_543			  NUMBER    5F43	1163
RLY537				  NUMBER    00E1	1168
RLY538				  NUMBER    00E2	1171
RLY539				  NUMBER    00E3	1174
RLY540				  NUMBER    00E4	1177
RLY541				  NUMBER    00E5	1180
RLY542				  NUMBER    00E6	1183
RLY543				  NUMBER    00E7	1186
RLY544				  NUMBER    00E0	1192
RLY544_551			  NUMBER    5F44	1190
RLY545				  NUMBER    00E1	1196
RLY546				  NUMBER    00E2	1199
RLY547				  NUMBER    00E3	1202
RLY548				  NUMBER    00E4	1205
RLY549				  NUMBER    00E5	1208
RLY550				  NUMBER    00E6	1211
RLY551				  NUMBER    00E7	1212
RLY552				  NUMBER    00E0	1218
RLY552_559			  NUMBER    5F45	1216
RLY553				  NUMBER    00E1	1221
RLY554				  NUMBER    00E2	1224
RLY555				  NUMBER    00E3	1227
RLY556				  NUMBER    00E4	1230
RLY557				  NUMBER    00E5	1233
RLY558				  NUMBER    00E6	1236
RLY559				  NUMBER    00E7	1239
RLY560_567			  NUMBER    5F46	1243
RLY592_599			  NUMBER    5F4A	1248
ROTARY_CUT_DLY_TM106D		  NUMBER    00E5	1386
ROTARY_CUT_DLY_TM106E		  NUMBER    00E4	1383
ROTARY_CUT_TM107D		  NUMBER    00E7	1392
ROTARY_CUT_TM107E		  NUMBER    00E6	1389
ROTARY_OP			  NUMBER    00E1	 438
ROTARY_PB			  NUMBER    00E3	1203
RS0				  BIT	      D3
RS1				  BIT	      D4
RSLT_0				  NUMBER    001A	 125

ASEM-51 V1.3                                        Copyright (c) 2002 by W.W. Heinz                                        PAGE 183



SYMBOL				  TYPE     VALUE	LINE
------------------------------------------------------------
RSLT_1				  NUMBER    001B	 126
RXD				  BIT	      B0
RX_BUF				  NUMBER    0400	 509
SAVE_DATA			  CODE	    05E4	2670
SBUF				  DATA	      99
SCON				  DATA	      98
SCRATCHPAD_0			  NUMBER    0080	 501
SCRATCHPAD_1			  NUMBER    0081	 502
SCRATCHPAD_2			  NUMBER    0082	 503
SCRATCHPAD_3			  NUMBER    0083	 504
SEALING_DELAY_TM17D		  NUMBER    0033	 271
SEALING_DELAY_TM17E		  NUMBER    0032	 268
SEALING_PB			  NUMBER    00E0	1193
SEALING_SEL			  NUMBER    00E5	1181
SEALING_TIME_TM18D		  NUMBER    0035	 277
SEALING_TIME_TM18E		  NUMBER    0034	 274
SECOND_CLK			  NUMBER    001C	 127
SERIAL				  CODE	    072D	2921
SET_BIT_01			  CODE	    0528	2509
SET_BIT_02			  CODE	    052F	2515
SET_BIT_03			  CODE	    0536	2521
SET_BIT_04			  CODE	    053D	2527
SET_BIT_05			  CODE	    0544	2534
SET_BIT_06			  CODE	    054B	2540
SET_BIT_07			  CODE	    0552	2547
SET_EXTRUDER_DONE		  CODE	    1C1F	7400
SET_TMR01_DONE			  CODE	    09DF	3630
SET_TMR02_DONE			  CODE	    0A2C	3691
SET_TMR03_DONE			  CODE	    0A79	3752
SET_TMR04_DONE			  CODE	    0AC6	3814
SET_TMR05_DONE			  CODE	    0B13	3876
SET_TMR06_DONE			  CODE	    0B60	3938
SET_TMR07_DONE			  CODE	    0BAD	4000
SET_TMR08_DONE			  CODE	    0BFA	4063
SET_TMR09_DONE			  CODE	    0C47	4126
SET_TMR100_DONE			  CODE	    0F69	4825
SET_TMR101_DONE			  CODE	    0FB6	4890
SET_TMR104_DONE			  CODE	    100C	4959
SET_TMR105_DONE			  CODE	    106C	5035
SET_TMR106_DONE			  CODE	    10CC	5110
SET_TMR107_DONE			  CODE	    112C	5185
SET_TMR108_DONE			  CODE	    118C	5259
SET_TMR109_DONE			  CODE	    11EC	5333
SET_TMR10_DONE			  CODE	    0C94	4189
SET_TMR110_DONE			  CODE	    124C	5407
SET_TMR111_DONE			  CODE	    12AC	5481
SET_TMR11_DONE			  CODE	    0CE1	4251
SET_TMR12_DONE			  CODE	    0D2E	4313
SET_TMR13_DONE			  CODE	    0D7B	4377
SET_TMR14_DONE			  CODE	    0DC8	4439
SET_TMR15_DONE			  CODE	    0E15	4502
SET_TMR16_DONE			  CODE	    0E39	4564
SET_TMR17_DONE			  CODE	    0E82	4627
SET_TMR18_DONE			  CODE	    0ECF	4693
SET_TMR19_DONE			  CODE	    0F1C	4762
SET_TMR20_DONE			  CODE	    1308	5560

ASEM-51 V1.3                                        Copyright (c) 2002 by W.W. Heinz                                        PAGE 184



SYMBOL				  TYPE     VALUE	LINE
------------------------------------------------------------
SET_TMR21_DONE			  CODE	    1360	5625
SET_TMR22_DONE			  CODE	    13B8	5691
SET_TMR23_DONE			  CODE	    1410	5757
SET_TMR24_DONE			  CODE	    1468	5822
SET_TMR25_DONE			  CODE	    14C0	5887
SET_TMR26_DONE			  CODE	    1518	5952
SET_TMR27_DONE			  CODE	    1570	6017
SET_TMR28_DONE			  CODE	    15C8	6083
SET_TMR29_DONE			  CODE	    1620	6148
SET_TMR30_DONE			  CODE	    1678	6213
SET_TMR31_DONE			  CODE	    16D0	6278
SET_TMR40_DONE			  CODE	    1728	6347
SET_TMR41_DONE			  CODE	    1780	6414
SET_TMR42_DONE			  CODE	    17D8	6480
SET_TMR43_DONE			  CODE	    1830	6544
SET_TMR_DONE			  CODE	    0991	3565
SINGLE_CUT_NOT_SEL		  CODE	    19C1	6914
SINT				  CODE	    0023
SM0				  BIT	      9F
SM1				  BIT	      9E
SM2				  BIT	      9D
SMALLPUMP_OP			  NUMBER    0060	 370
SP				  DATA	      81
START_ADDRESS_DATA_REG		  NUMBER    1000	 511
START_CURRENT_LOCNS		  NUMBER    1000	 520
START_SEQUENCE			  CODE	    18E7	6683
START_TRANSMISSION_OF_REPLY	  CODE	    06EA	2851
T0				  BIT	      B4
T1				  BIT	      B5
TB8				  BIT	      9B
TCON				  DATA	      88
TC_DEBOUNCE			  NUMBER    0038	 497
TEMP				  NUMBER    0009	 116
TEMP1				  NUMBER    0010	 123
TEMP2				  NUMBER    0011	 124
TEMP_CAL_FACTOR_HI		  NUMBER    0018	  85
TEMP_CAL_FACTOR_LO		  NUMBER    00A0	  86
TEMP_CUR_VALUES			  NUMBER    2420	 859
TEMP_DIFF_5_TO_10		  NUMBER    0004	7653
TEMP_IP_12_H			  NUMBER    F819	 101
TEMP_IP_12_L			  NUMBER    F818	 100
TEMP_LESS_THAN_SET		  CODE	    1D69	7685
TEMP_LESS_THAN_SET_Z2		  CODE	    1DC4	7770
TEMP_LESS_THAN_SET_Z3		  CODE	    1E1F	7855
TEMP_LESS_THAN_SET_Z4		  CODE	    1E7A	7941
TEMP_LESS_THAN_SET_Z5		  CODE	    1ED5	8031
TEMP_LESS_THAN_SET_Z6		  CODE	    1F30	8116
TEMP_SET1_OK			  CODE	    1F8A	8204
TEMP_SET2_OK			  CODE	    1FB6	8237
TEMP_SET3_OK			  CODE	    1FE2	8269
TEMP_SET4_OK			  CODE	    200E	8304
TEMP_SET5_OK			  CODE	    203A	8339
TEMP_SET6_OK			  CODE	    2066	8375
TEN_MSEC_BIT			  NUMBER    0003	 141
TF0				  BIT	      8D
TF1				  BIT	      8F

ASEM-51 V1.3                                        Copyright (c) 2002 by W.W. Heinz                                        PAGE 185



SYMBOL				  TYPE     VALUE	LINE
------------------------------------------------------------
TH0				  DATA	      8C
TH1				  DATA	      8D
TI				  BIT	      99
TIMECT				  NUMBER    000A	 117
TIMER0				  CODE	    000B
TIMER1				  CODE	    001B
TIME_LESS_HUND_MILLISEC		  CODE	    12CB	5511
TIME_LESS_TEM_MILLISEC		  CODE	    0946	3505
TL0				  DATA	      8A
TL1				  DATA	      8B
TM00D				  NUMBER    0011	 164
TM00E				  NUMBER    0010	 161
TM00_HANDLER			  CODE	    0951	3517
TM01D				  NUMBER    0013	 170
TM01E				  NUMBER    0012	 167
TM01_HANDLER			  CODE	    099E	3582
TM02D				  NUMBER    0015	 176
TM02E				  NUMBER    0014	 173
TM02_HANDLER			  CODE	    09EC	3644
TM03D				  NUMBER    0017	 182
TM03E				  NUMBER    0016	 179
TM03_HANDLER			  CODE	    0A39	3705
TM04D				  NUMBER    0019	 190
TM04E				  NUMBER    0018	 187
TM04_HANDLER			  CODE	    0A86	3767
TM05D				  NUMBER    001B	 196
TM05E				  NUMBER    001A	 193
TM05_HANDLER			  CODE	    0AD3	3828
TM06D				  NUMBER    001D	 202
TM06E				  NUMBER    001C	 199
TM06_HANDLER			  CODE	    0B20	3890
TM07D				  NUMBER    001F	 208
TM07E				  NUMBER    001E	 205
TM07_HANDLER			  CODE	    0B6D	3952
TM08D				  NUMBER    0021	 217
TM08E				  NUMBER    0020	 214
TM08_HANDLER			  CODE	    0BBA	4014
TM09D				  NUMBER    0023	 223
TM09E				  NUMBER    0022	 220
TM09_HANDLER			  CODE	    0C07	4077
TM100D				  NUMBER    0041	 305
TM100E				  NUMBER    0040	 302
TM100_HANDLER			  CODE	    0F29	4777
TM100_TM103			  NUMBER    0028	 299
TM101D				  NUMBER    0043	 311
TM101E				  NUMBER    0042	 308
TM101_HANDLER			  CODE	    0F76	4842
TM102D				  NUMBER    0045	 316
TM102E				  NUMBER    0044	 314
TM102_HANDLER			  CODE	    0FC3	4904
TM103D				  NUMBER    0047	 318
TM103E				  NUMBER    0046	 317
TM104D				  NUMBER    00E1	1373
TM104E				  NUMBER    00E0	1370
TM104_ENABLE_1			  NUMBER    5FC7	1368
TM104_HANDLER			  CODE	    0FC3	4906

ASEM-51 V1.3                                        Copyright (c) 2002 by W.W. Heinz                                        PAGE 186



SYMBOL				  TYPE     VALUE	LINE
------------------------------------------------------------
TM105D				  NUMBER    00E3	1379
TM105E				  NUMBER    00E2	1376
TM105_HANDLER			  CODE	    1023	4981
TM106D				  NUMBER    00E5	1385
TM106E				  NUMBER    00E4	1382
TM106_HANDLER			  CODE	    1083	5057
TM107D				  NUMBER    00E7	1391
TM107E				  NUMBER    00E6	1388
TM107_HANDLER			  CODE	    10E3	5132
TM108D				  NUMBER    00E1	1399
TM108E				  NUMBER    00E0	1396
TM108_ENABLE_1			  NUMBER    5FC8	1394
TM108_HANDLER			  CODE	    1143	5207
TM109D				  NUMBER    00E3	1405
TM109E				  NUMBER    00E2	1402
TM109_HANDLER			  CODE	    11A3	5281
TM10D				  NUMBER    0025	 229
TM10E				  NUMBER    0024	 226
TM10_HANDLER			  CODE	    0C54	4141
TM110D				  NUMBER    00E5	1411
TM110E				  NUMBER    00E4	1408
TM110_HANDLER			  CODE	    1203	5355
TM111D				  NUMBER    00E7	1417
TM111E				  NUMBER    00E6	1414
TM111_HANDLER			  CODE	    1263	5429
TM112_HANDLER			  CODE	    12C3	5503
TM11D				  NUMBER    0027	 235
TM11E				  NUMBER    0026	 232
TM11_HANDLER			  CODE	    0CA1	4203
TM12D				  NUMBER    0029	 243
TM12E				  NUMBER    0028	 240
TM12_HANDLER			  CODE	    0CEE	4265
TM13D				  NUMBER    002B	 249
TM13E				  NUMBER    002A	 246
TM13_HANDLER			  CODE	    0D3B	4329
TM14D				  NUMBER    002D	 255
TM14E				  NUMBER    002C	 252
TM14_HANDLER			  CODE	    0D88	4391
TM15D				  NUMBER    002F	 261
TM15E				  NUMBER    002E	 258
TM15_HANDLER			  CODE	    0DD5	4453
TM16D				  NUMBER    0031	 266
TM16E				  NUMBER    0030	 265
TM16_HANDLER			  CODE	    0E22	4516
TM17D				  NUMBER    0033	 272
TM17E				  NUMBER    0032	 269
TM17_HANDLER			  CODE	    0E42	4579
TM18D				  NUMBER    0035	 278
TM18E				  NUMBER    0034	 275
TM18_HANDLER			  CODE	    0E8F	4645
TM19D				  NUMBER    0037	 284
TM19E				  NUMBER    0036	 281
TM19_HANDLER			  CODE	    0EDC	4714
TM20D				  NUMBER    00E1	1265
TM20E				  NUMBER    00E0	1262
TM20_ENABLE_1			  NUMBER    5FC0	1260

ASEM-51 V1.3                                        Copyright (c) 2002 by W.W. Heinz                                        PAGE 187



SYMBOL				  TYPE     VALUE	LINE
------------------------------------------------------------
TM20_HANDLER			  CODE	    12D7	5525
TM21D				  NUMBER    00E3	1271
TM21E				  NUMBER    00E2	1268
TM21_HANDLER			  CODE	    132F	5591
TM22D				  NUMBER    00E5	1277
TM22E				  NUMBER    00E4	1274
TM22_HANDLER			  CODE	    1387	5656
TM23D				  NUMBER    00E7	1283
TM23E				  NUMBER    00E6	1280
TM23_HANDLER			  CODE	    13DF	5722
TM24D				  NUMBER    00E1	1294
TM24E				  NUMBER    00E0	1291
TM24_ENABLE_1			  NUMBER    5FC1	1289
TM24_HANDLER			  CODE	    1437	5788
TM25D				  NUMBER    00E3	1300
TM25E				  NUMBER    00E2	1297
TM25_HANDLER			  CODE	    148F	5853
TM26D				  NUMBER    00E5	1306
TM26E				  NUMBER    00E4	1303
TM26_HANDLER			  CODE	    14E7	5918
TM27D				  NUMBER    00E7	1312
TM27E				  NUMBER    00E6	1309
TM27_HANDLER			  CODE	    153F	5983
TM28D				  NUMBER    00E1	1324
TM28E				  NUMBER    00E0	1321
TM28_ENABLE_1			  NUMBER    5FC2	1318
TM28_HANDLER			  CODE	    1597	6048
TM29D				  NUMBER    00E3	1330
TM29E				  NUMBER    00E2	1327
TM29_HANDLER			  CODE	    15EF	6114
TM30D				  NUMBER    00E5	1336
TM30E				  NUMBER    00E4	1333
TM30_HANDLER			  CODE	    1647	6179
TM31D				  NUMBER    00E7	1342
TM31E				  NUMBER    00E6	1339
TM31_HANDLER			  CODE	    169F	6244
TM32_HANDLER			  CODE	    16F7	6309
TM40D				  NUMBER    00E1	1351
TM40E				  NUMBER    00E0	1350
TM40_ENABLE_1			  NUMBER    5FC3	1348
TM40_HANDLER			  CODE	    16F7	6313
TM41D				  NUMBER    00E3	1353
TM41E				  NUMBER    00E2	1352
TM41_HANDLER			  CODE	    174F	6380
TM42D				  NUMBER    00E5	1355
TM42E				  NUMBER    00E4	1354
TM42_HANDLER			  CODE	    17A7	6446
TM43D				  NUMBER    00E7	1357
TM43E				  NUMBER    00E6	1356
TM43_HANDLER			  CODE	    17FF	6510
TM44_HANDLER			  CODE	    1857	6576
TMC00H				  NUMBER    2388	 736
TMC00L				  NUMBER    2389	 737
TMC01H				  NUMBER    238A	 739
TMC01L				  NUMBER    238B	 740
TMC02H				  NUMBER    238C	 742

ASEM-51 V1.3                                        Copyright (c) 2002 by W.W. Heinz                                        PAGE 188



SYMBOL				  TYPE     VALUE	LINE
------------------------------------------------------------
TMC02L				  NUMBER    238D	 743
TMC03H				  NUMBER    238E	 745
TMC03L				  NUMBER    238F	 746
TMC04H				  NUMBER    2390	 748
TMC04L				  NUMBER    2391	 749
TMC05H				  NUMBER    2392	 751
TMC05L				  NUMBER    2393	 752
TMC06H				  NUMBER    2394	 754
TMC06L				  NUMBER    2395	 755
TMC07H				  NUMBER    2396	 757
TMC07L				  NUMBER    2397	 758
TMC08H				  NUMBER    2398	 760
TMC08L				  NUMBER    2399	 761
TMC09H				  NUMBER    239A	 763
TMC09L				  NUMBER    239B	 764
TMC100H				  NUMBER    24B6	1029
TMC100L				  NUMBER    24B7	1030
TMC101H				  NUMBER    24B8	1032
TMC101L				  NUMBER    24B9	1033
TMC104H				  NUMBER    24BA	1038
TMC104L				  NUMBER    24BB	1039
TMC105H				  NUMBER    24BC	1041
TMC105L				  NUMBER    24BD	1042
TMC106H				  NUMBER    24BE	1044
TMC106L				  NUMBER    24BF	1045
TMC107H				  NUMBER    24C0	1047
TMC107L				  NUMBER    24C1	1048
TMC108H				  NUMBER    24C2	1050
TMC108L				  NUMBER    24C3	1051
TMC109H				  NUMBER    24C4	1053
TMC109L				  NUMBER    24C5	1054
TMC10H				  NUMBER    239C	 766
TMC10L				  NUMBER    239D	 767
TMC110H				  NUMBER    24C6	1056
TMC110L				  NUMBER    24C7	1057
TMC111H				  NUMBER    24C8	1059
TMC111L				  NUMBER    24C9	1060
TMC11H				  NUMBER    239E	 769
TMC11L				  NUMBER    239F	 770
TMC12H				  NUMBER    23A0	 772
TMC12L				  NUMBER    23A1	 773
TMC13H				  NUMBER    23A2	 775
TMC13L				  NUMBER    23A3	 776
TMC14H				  NUMBER    23A4	 778
TMC14L				  NUMBER    23A5	 779
TMC15H				  NUMBER    23A6	 781
TMC15L				  NUMBER    23A7	 782
TMC16H				  NUMBER    23A8	 784
TMC16L				  NUMBER    23A9	 785
TMC17H				  NUMBER    23AA	 787
TMC17L				  NUMBER    23AB	 788
TMC18H				  NUMBER    23AC	 790
TMC18L				  NUMBER    23AD	 791
TMC19H				  NUMBER    23AE	 793
TMC19L				  NUMBER    23AF	 794
TMC20H				  NUMBER    23B0	 796

ASEM-51 V1.3                                        Copyright (c) 2002 by W.W. Heinz                                        PAGE 189



SYMBOL				  TYPE     VALUE	LINE
------------------------------------------------------------
TMC20L				  NUMBER    23B1	 797
TMC21H				  NUMBER    23B2	 799
TMC21L				  NUMBER    23B3	 800
TMC22H				  NUMBER    23B4	 802
TMC22L				  NUMBER    23B5	 803
TMC23H				  NUMBER    23B6	 805
TMC23L				  NUMBER    23B7	 806
TMC24H				  NUMBER    23B8	 808
TMC24L				  NUMBER    23B9	 809
TMC25H				  NUMBER    23BA	 811
TMC25L				  NUMBER    23BB	 812
TMC26H				  NUMBER    23BC	 814
TMC26L				  NUMBER    23BD	 815
TMC27H				  NUMBER    23BE	 817
TMC27L				  NUMBER    23BF	 818
TMC28H				  NUMBER    24AC	1014
TMC28L				  NUMBER    24AD	1015
TMC29H				  NUMBER    24AE	1017
TMC29L				  NUMBER    24AF	1018
TMC30H				  NUMBER    24B0	1020
TMC30L				  NUMBER    24B1	1021
TMC31H				  NUMBER    24B2	1023
TMC31L				  NUMBER    24B3	1024
TMC32H				  NUMBER    24B4	1026
TMC32L				  NUMBER    24B5	1027
TMC40H				  NUMBER    23C2	 823
TMC40L				  NUMBER    23C3	 824
TMC41H				  NUMBER    23C4	 826
TMC41L				  NUMBER    23C5	 827
TMC42H				  NUMBER    23C6	 829
TMC42L				  NUMBER    23C7	 830
TMC43H				  NUMBER    23C8	 832
TMC43L				  NUMBER    23C9	 833
TMOD				  DATA	      89
TMR00_NOT_DONE			  CODE	    098D	3560
TMR01_NOT_DONE			  CODE	    09DB	3625
TMR02_NOT_DONE			  CODE	    0A28	3686
TMR03_NOT_DONE			  CODE	    0A75	3747
TMR04_NOT_DONE			  CODE	    0AC2	3809
TMR05_NOT_DONE			  CODE	    0B0F	3871
TMR06_NOT_DONE			  CODE	    0B5C	3933
TMR07_NOT_DONE			  CODE	    0BA9	3995
TMR08_11_ENABLE_DONE		  NUMBER    0024	 211
TMR08_NOT_DONE			  CODE	    0BF6	4058
TMR09_NOT_DONE			  CODE	    0C43	4121
TMR0_3_ENABLE_DONE		  NUMBER    0022	 158
TMR0_NOT_ENABLED		  CODE	    0995	3570
TMR100_NOT_DONE			  CODE	    0F65	4820
TMR100_NOT_ENABLED		  CODE	    0F6D	4830
TMR101_NOT_DONE			  CODE	    0FB2	4885
TMR101_NOT_ENABLED		  CODE	    0FBA	4895
TMR104_NOT_DONE			  CODE	    1003	4951
TMR104_NOT_ENABLED		  CODE	    1015	4968
TMR105_NOT_DONE			  CODE	    1063	5027
TMR105_NOT_ENABLED		  CODE	    1075	5044
TMR106_NOT_DONE			  CODE	    10C3	5102

ASEM-51 V1.3                                        Copyright (c) 2002 by W.W. Heinz                                        PAGE 190



SYMBOL				  TYPE     VALUE	LINE
------------------------------------------------------------
TMR106_NOT_ENABLED		  CODE	    10D5	5119
TMR107_NOT_DONE			  CODE	    1123	5177
TMR107_NOT_ENABLED		  CODE	    1135	5194
TMR108_NOT_DONE			  CODE	    1183	5251
TMR108_NOT_ENABLED		  CODE	    1195	5268
TMR109_NOT_DONE			  CODE	    11E3	5325
TMR109_NOT_ENABLED		  CODE	    11F5	5342
TMR10_NOT_DONE			  CODE	    0C90	4184
TMR10_NOT_ENABLED		  CODE	    0C98	4194
TMR110_NOT_DONE			  CODE	    1243	5399
TMR110_NOT_ENABLED		  CODE	    1255	5416
TMR111_NOT_DONE			  CODE	    12A3	5473
TMR111_NOT_ENABLED		  CODE	    12B5	5490
TMR11_NOT_DONE			  CODE	    0CDD	4246
TMR11_NOT_ENABLED		  CODE	    0CE5	4256
TMR12_15_ENABLE_DONE		  NUMBER    0025	 237
TMR12_NOT_DONE			  CODE	    0D2A	4308
TMR12_NOT_ENABLED		  CODE	    0D32	4318
TMR13_NOT_DONE			  CODE	    0D77	4372
TMR13_NOT_ENABLED		  CODE	    0D7F	4382
TMR14_NOT_DONE			  CODE	    0DC4	4434
TMR14_NOT_ENABLED		  CODE	    0DCC	4444
TMR15_NOT_DONE			  CODE	    0E11	4497
TMR15_NOT_ENABLED		  CODE	    0E19	4507
TMR16_19_ENABLE_DONE		  NUMBER    0026	 263
TMR16_NOT_DONE			  CODE	    0E39	4559
TMR16_NOT_ENABLED		  CODE	    0E39	4569
TMR17_NOT_DONE			  CODE	    0E7E	4622
TMR17_NOT_ENABLED		  CODE	    0E86	4632
TMR18_NOT_DONE			  CODE	    0ECB	4688
TMR18_NOT_ENABLED		  CODE	    0ED3	4698
TMR19_NOT_DONE			  CODE	    0F18	4757
TMR19_NOT_ENABLED		  CODE	    0F20	4767
TMR1_NOT_ENABLED		  CODE	    09E3	3635
TMR20_NOT_DONE			  CODE	    12FF	5552
TMR20_NOT_ENABLED		  CODE	    1318	5573
TMR21_NOT_DONE			  CODE	    1357	5617
TMR21_NOT_ENABLED		  CODE	    1370	5638
TMR22_NOT_DONE			  CODE	    13AF	5683
TMR22_NOT_ENABLED		  CODE	    13C8	5704
TMR23_NOT_DONE			  CODE	    1407	5749
TMR23_NOT_ENABLED		  CODE	    1420	5770
TMR24_NOT_DONE			  CODE	    145F	5814
TMR24_NOT_ENABLED		  CODE	    1478	5835
TMR25_NOT_DONE			  CODE	    14B7	5879
TMR25_NOT_ENABLED		  CODE	    14D0	5900
TMR26_NOT_DONE			  CODE	    150F	5944
TMR26_NOT_ENABLED		  CODE	    1528	5965
TMR27_NOT_DONE			  CODE	    1567	6009
TMR27_NOT_ENABLED		  CODE	    1580	6030
TMR28_NOT_DONE			  CODE	    15BF	6075
TMR28_NOT_ENABLED		  CODE	    15D8	6096
TMR29_NOT_DONE			  CODE	    1617	6140
TMR29_NOT_ENABLED		  CODE	    1630	6161
TMR2_NOT_ENABLED		  CODE	    0A30	3696
TMR30_NOT_DONE			  CODE	    166F	6205

ASEM-51 V1.3                                        Copyright (c) 2002 by W.W. Heinz                                        PAGE 191



SYMBOL				  TYPE     VALUE	LINE
------------------------------------------------------------
TMR30_NOT_ENABLED		  CODE	    1688	6226
TMR31_NOT_DONE			  CODE	    16C7	6270
TMR31_NOT_ENABLED		  CODE	    16E0	6291
TMR3_NOT_ENABLED		  CODE	    0A7D	3757
TMR40_NOT_DONE			  CODE	    171F	6339
TMR40_NOT_ENABLED		  CODE	    1738	6360
TMR41_NOT_DONE			  CODE	    1777	6406
TMR41_NOT_ENABLED		  CODE	    1790	6428
TMR42_NOT_DONE			  CODE	    17CF	6472
TMR42_NOT_ENABLED		  CODE	    17E8	6493
TMR43_NOT_DONE			  CODE	    1827	6536
TMR43_NOT_ENABLED		  CODE	    1840	6557
TMR4_7_ENABLE_DONE		  NUMBER    0023	 184
TMR4_NOT_ENABLED		  CODE	    0ACA	3819
TMR5_NOT_ENABLED		  CODE	    0B17	3881
TMR6_NOT_ENABLED		  CODE	    0B64	3943
TMR7_NOT_ENABLED		  CODE	    0BB1	4005
TMR8_NOT_ENABLED		  CODE	    0BFE	4068
TMR9_NOT_ENABLED		  CODE	    0C4B	4131
TMR_HANDLER			  CODE	    093E	3496
TMS00H				  NUMBER    1050	 555
TMS00L				  NUMBER    1051	 556
TMS01H				  NUMBER    1052	 558
TMS01L				  NUMBER    1053	 559
TMS02H				  NUMBER    1054	 561
TMS02L				  NUMBER    1055	 562
TMS03H				  NUMBER    1056	 564
TMS03L				  NUMBER    1057	 565
TMS04H				  NUMBER    1058	 567
TMS04L				  NUMBER    1059	 568
TMS05H				  NUMBER    105A	 570
TMS05L				  NUMBER    105B	 571
TMS06H				  NUMBER    105C	 573
TMS06L				  NUMBER    105D	 574
TMS07H				  NUMBER    105E	 576
TMS07L				  NUMBER    105F	 577
TMS08H				  NUMBER    1060	 579
TMS08L				  NUMBER    1061	 580
TMS09H				  NUMBER    1062	 582
TMS09L				  NUMBER    1063	 583
TMS100H				  NUMBER    1078	 615
TMS100L				  NUMBER    1079	 616
TMS101H				  NUMBER    118E	 720
TMS101L				  NUMBER    118F	 721
TMS102H				  NUMBER    107A	 618
TMS102L				  NUMBER    107B	 619
TMS103H				  NUMBER    107C	 621
TMS103L				  NUMBER    107D	 622
TMS104H				  NUMBER    107E	 624
TMS104L				  NUMBER    107F	 625
TMS105H				  NUMBER    1080	 627
TMS105L				  NUMBER    1081	 628
TMS106H				  NUMBER    1082	 630
TMS106L				  NUMBER    1083	 631
TMS107H				  NUMBER    1084	 633
TMS107L				  NUMBER    1085	 634

ASEM-51 V1.3                                        Copyright (c) 2002 by W.W. Heinz                                        PAGE 192



SYMBOL				  TYPE     VALUE	LINE
------------------------------------------------------------
TMS108H				  NUMBER    1086	 636
TMS108L				  NUMBER    1087	 637
TMS109H				  NUMBER    1088	 639
TMS109L				  NUMBER    1089	 640
TMS10H				  NUMBER    1064	 585
TMS10L				  NUMBER    1065	 586
TMS110H				  NUMBER    108A	 642
TMS110L				  NUMBER    108B	 643
TMS111H				  NUMBER    108C	 645
TMS111L				  NUMBER    108D	 646
TMS11H				  NUMBER    1066	 588
TMS11L				  NUMBER    1067	 589
TMS12H				  NUMBER    1068	 591
TMS12L				  NUMBER    1069	 592
TMS13H				  NUMBER    106A	 594
TMS13L				  NUMBER    106B	 595
TMS14H				  NUMBER    106C	 597
TMS14L				  NUMBER    106D	 598
TMS15H				  NUMBER    106E	 600
TMS15L				  NUMBER    106F	 601
TMS16H				  NUMBER    1070	 603
TMS16L				  NUMBER    1071	 604
TMS17H				  NUMBER    1072	 606
TMS17L				  NUMBER    1073	 607
TMS18H				  NUMBER    1074	 609
TMS18L				  NUMBER    1075	 610
TMS19H				  NUMBER    1076	 612
TMS19L				  NUMBER    1077	 613
TMS20H				  NUMBER    2480	 958
TMS20L				  NUMBER    2481	 959
TMS21H				  NUMBER    2482	 961
TMS21L				  NUMBER    2483	 962
TMS22H				  NUMBER    2484	 964
TMS22L				  NUMBER    2485	 965
TMS23H				  NUMBER    2486	 967
TMS23L				  NUMBER    2487	 968
TMS24H				  NUMBER    2488	 970
TMS24L				  NUMBER    2489	 971
TMS25H				  NUMBER    248A	 973
TMS25L				  NUMBER    248B	 974
TMS26H				  NUMBER    248C	 976
TMS26L				  NUMBER    248D	 977
TMS27H				  NUMBER    248E	 979
TMS27L				  NUMBER    248F	 980
TMS28H				  NUMBER    24A0	 995
TMS28L				  NUMBER    24A1	 996
TMS29H				  NUMBER    24A2	 998
TMS29L				  NUMBER    24A3	 999
TMS30H				  NUMBER    24A4	1001
TMS30L				  NUMBER    24A5	1002
TMS31H				  NUMBER    24A6	1004
TMS31L				  NUMBER    24A7	1005
TMS32H				  NUMBER    24A8	1007
TMS32L				  NUMBER    24A9	1008
TMS33H				  NUMBER    24AA	1010
TMS33L				  NUMBER    24AB	1011

ASEM-51 V1.3                                        Copyright (c) 2002 by W.W. Heinz                                        PAGE 193



SYMBOL				  TYPE     VALUE	LINE
------------------------------------------------------------
TMS40H				  NUMBER    2490	 982
TMS40L				  NUMBER    2491	 983
TMS41H				  NUMBER    2492	 985
TMS41L				  NUMBER    2493	 986
TMS42H				  NUMBER    2494	 988
TMS42L				  NUMBER    2495	 989
TMS43H				  NUMBER    2496	 991
TMS43L				  NUMBER    2497	 992
TR0				  BIT	      8C
TR1				  BIT	      8E
TRANS				  CODE	    0767	2984
TRANSMIT			  CODE	    0143	1696
TRANSMIT_DATA			  CODE	    0186	1764
TRANSMIT_DATA_START		  CODE	    06D0	2833
TRANSMIT_REPLY			  CODE	    0224	1882
TRANSMIT_REPLY_FN_CODE_10H	  CODE	    0698	2787
TRANSMIT_START_FN_CODE_01	  CODE	    0376	2154
TRANSMIT_START_FN_CODE_02	  CODE	    04C5	2427
TRANS_OVER			  NUMBER    0001	 139
TXD				  BIT	      B1
TX_BUF				  NUMBER    0500	 510
WDT_RST_BYPASS			  CODE	    00DD	1618
WDT_RST_NOT_ENAB		  CODE	    00A5	1555
WR				  BIT	      B6
ZERO_BIT_32			  CODE	    091A	3426
ZONE1_ACT_TEMP_H		  NUMBER    2442	 915
ZONE1_ACT_TEMP_L		  NUMBER    2443	 918
ZONE1_COUNTS_H			  NUMBER    2420	 861
ZONE1_COUNTS_L			  NUMBER    2421	 864
ZONE1_ERROR			  CODE	    2144	8557
ZONE1_LOW_LIMIT_ERR		  NUMBER    00E4	 852
ZONE1_SEL			  NUMBER    00E0	1219
ZONE1_SET_H			  NUMBER    1040	 530
ZONE1_SET_L			  NUMBER    1041	 531
ZONE2_ACT_TEMP_H		  NUMBER    2444	 921
ZONE2_ACT_TEMP_L		  NUMBER    2445	 924
ZONE2_COUNTS_H			  NUMBER    2422	 867
ZONE2_COUNTS_L			  NUMBER    2423	 870
ZONE2_ERROR			  CODE	    2159	8572
ZONE2_LOW_LIMIT_ERR		  NUMBER    00E5	 853
ZONE2_SEL			  NUMBER    00E1	1222
ZONE2_SET_H			  NUMBER    1042	 533
ZONE2_SET_L			  NUMBER    1043	 534
ZONE3_ACT_TEMP_H		  NUMBER    2446	 927
ZONE3_ACT_TEMP_L		  NUMBER    2447	 930
ZONE3_COUNTS_H			  NUMBER    2424	 873
ZONE3_COUNTS_L			  NUMBER    2425	 876
ZONE3_ERROR			  CODE	    216E	8586
ZONE3_LOW_LIMIT_ERR		  NUMBER    00E6	 854
ZONE3_SEL			  NUMBER    00E2	1225
ZONE3_SET_H			  NUMBER    1044	 536
ZONE3_SET_L			  NUMBER    1045	 537
ZONE4_ACT_TEMP_H		  NUMBER    2448	 933
ZONE4_ACT_TEMP_L		  NUMBER    2449	 936
ZONE4_COUNTS_H			  NUMBER    2426	 879
ZONE4_COUNTS_L			  NUMBER    2427	 882

ASEM-51 V1.3                                        Copyright (c) 2002 by W.W. Heinz                                        PAGE 194



SYMBOL				  TYPE     VALUE	LINE
------------------------------------------------------------
ZONE4_ERROR			  CODE	    2183	8600
ZONE4_LOW_LIMIT_ERR		  NUMBER    00E7	 855
ZONE4_SEL			  NUMBER    00E3	1228
ZONE4_SET_H			  NUMBER    1046	 539
ZONE4_SET_L			  NUMBER    1047	 540
ZONE5_ACT_TEMP_H		  NUMBER    244A	 939
ZONE5_ACT_TEMP_L		  NUMBER    244B	 942
ZONE5_COUNTS_H			  NUMBER    2428	 885
ZONE5_COUNTS_L			  NUMBER    2429	 888
ZONE5_ERROR			  CODE	    2198	8614
ZONE5_LOW_LIMIT_ERR		  NUMBER    00E0	 840
ZONE5_SEL			  NUMBER    00E4	1231
ZONE5_SET_H			  NUMBER    1048	 542
ZONE5_SET_L			  NUMBER    1049	 543
ZONE6_ACT_TEMP_H		  NUMBER    244C	 945
ZONE6_ACT_TEMP_L		  NUMBER    244D	 948
ZONE6_COUNTS_H			  NUMBER    242A	 891
ZONE6_COUNTS_L			  NUMBER    242B	 894
ZONE6_ERROR			  CODE	    21AD	8628
ZONE6_LOW_LIMIT_ERR		  NUMBER    00E1	 841
ZONE6_SEL			  NUMBER    00E5	1234
ZONE6_SET_H			  NUMBER    104A	 545
ZONE6_SET_L			  NUMBER    104B	 546
ZONE7_ACT_TEMP_H		  NUMBER    244E	 951
ZONE7_ACT_TEMP_L		  NUMBER    244F	 954
ZONE7_COUNTS_H			  NUMBER    242C	 897
ZONE7_COUNTS_L			  NUMBER    242D	 900
ZONE7_LOW_LIMIT_ERR		  NUMBER    00E2	 842
ZONE7_SEL			  NUMBER    00E6	1237
ZONE7_SET_H			  NUMBER    104C	 548
ZONE7_SET_L			  NUMBER    104D	 549
ZONE8_ACT_TEMP_H		  NUMBER    2440	 909
ZONE8_ACT_TEMP_L		  NUMBER    2441	 912
ZONE8_COUNTS_H			  NUMBER    242E	 903
ZONE8_COUNTS_L			  NUMBER    242F	 906
ZONE8_LOW_LIMIT_ERR		  NUMBER    00E3	 843
ZONE8_SEL			  NUMBER    00E7	1240
ZONE8_SET_H			  NUMBER    104E	 551
ZONE8_SET_L			  NUMBER    104F	 552
ZONE_DISPLAY			  CODE	    1C49	7452
