
ASEM-51 V1.3                                         Copyright (c) 2002 by W.W. Heinz                                         PAGE 1





       MCS-51 Family Macro Assembler   A S E M - 5 1   V 1.3
       =====================================================



	Source File:	temp\BLOW_280815.asm
	Object File:	temp\BLOW_280815.hex
	List File:	temp\BLOW_280815.lst



 Line  I  Addr  Code            Source

    1:				; 1ST ZONE TEMP CONTROLLING AS PER NEW PROGRAM
    2:				;NAMED VERSION AS 200.2
    3:				;LAST EDITED ON 23/4/2015
    4:				;ADDED PROGRAM FOR BLOWER & BLOW PIN HYDRAULIC / PNEUMATIC M/C
    5:				;-----------------------------------------------------
    6:				;BLOW PIN DOWN TIMER ADD
    7:				;BLOW PIN HYDRAULIC
    8:				;LAST EDITED ON 28/4/2014
    9:				;ADDRESS OF 8 ZONE THERMOCOUPLE TO BE CHANGED & TESTED
   10:				;PROGRAM CHANGED SO THAT ON EMERGENCY PRESSED IT DOES NOT GO INTO MANUAL MODE
   11:				;ALSO THE M/C STARTS FROM WHERE IT HAD BEEN STOPPED
   12:				;--------------------------------------------------------
   13:				;LAST EDITED ON 10/6/2013
   14:				;PROGRAM ADDED FOR 6 ZONE TEMPERATURE
   15:				;PROGRAM ADDED FOR SEALING O/P & TIMERS
   16:				;PROGRAM ADDED FOR TEMP ZONE SEL
   17:				;TIMER OF MOULD CLOSE TIME TO BE ADDED IS PENDING
   18:				;---------------------------------------------------------
   19:				;LAST EDITED ON 3/2/2013
   20:				;TESTED 4 ZONE TEMP CONTROLLER ,LOW LIMIT,EXTRUDER O/P
   21:				;PENDING PRODUCTION,ERRORS,RECEIPE
   22:				;---------------------------------------------------------
   23:				;PROGRAM TESTED FOR SUPREME SEQUENCE COMPLETE MODBUS ASCII
   24:				;ALSO TESTED I/P BITS, FLAG BITS (READ) & O/PS.WITH MODBUS PROTOCOL
   25:				;LAST EDITED ON 13/12/12
   26:				;-----------------------------------------------------------
   27:				;PROGRAM TESTED WITH TOUCH SCREEN,LED DISPLAY
   28:				;LED DISPLAY WAS TESTED WITHOUT KEY & TIMER LED & ALSO WITHOUT RUNNING SCREEN
   29:				;LAST EDITED ON 5/12/12
   30:				;------------------------------------------------------------
   31:				;LAST EDITED ON 14/11/2012
   32:				;BATTERY BACKUP & NON BATTERY BACKUP BITS & MEM. LOCNS WERE DEFINED
   33:				;---------------------------------------------------------------
   34:				;LAST EDITED ON 28/10/2012
   35:				;TESTED PROGRAM FOR FN CODE 10H (MULTIPLE DATA REGISTER PRESET)
   36:				;----------------------------------------------------
   37:				;LAST EDITED ON 27/10/2012
   38:				;TESTED PROGRAM FOR FN CODE 10H IN DEBUG MODE
   39:				;-----------------------------------------------------
   40:				;LAST EDITED ON 3/9/2012
   41:				;PROGRAM NOT TESTED FOR FN CODE 0F & 10H REST ALL FN CODE PROGRAM TESTED
   42:				;---------------------------------------------------
   43:				;EDITED LAST ON 3/7/12

ASEM-51 V1.3                                         Copyright (c) 2002 by W.W. Heinz                                         PAGE 2



 Line  I  Addr  Code            Source

   44:				;RX_BUF WAS CHANGED TO 0400H OF EXTERNAL RAM LOCATION
   45:				;PROGRAM WAS TESTED FOR BIT ON/OFF & DATA REG READ / WRITE
   46:				;TESTED SUPREME SEQ. WITH SINGLE & DOUBLE CUT WITH MODBUS ASCII
   47:				;AT A TIME THE FN CODE 01 WILL BE ABLE TO READ ONLY 16 BITS MAX WITH THIS PROGRAM
   48:				;EDITED LAST ON 12/12/12
   49:				;----------------------------------------------------
   50:				;EDITED LAST ON 29/6/2012
   51:				;TESTED PROGRAM FOR TIMER HANDLER & ALSO LADDER
   52:				;PUSH OF ACC & PUSH PSW WAS NOT USED IN SERIAL INTERRUPT ROUTINE WHICH WAS GIVING PROBLEM
   53:				;----------------------------------------------------
   54:				;EDITED LAST ON 28/6/12
   55:				;PROGRAM TESTED FOR TRANSMIT,RECEIVE & ALSO MADE PROVISION FOR LADDER
   56:				;---------------------------------------------------
   57:				;EDITED ON 26/6/2012
   58:				;TESTED PROGRAM FOR BIT READING WITH CORRECT ADDRESS
   59:				;TESTED PROGRAM FOR BIT FORCING
   60:				;-----------------------------------------------------
   61:				;EDITED LAST ON 25/6/12
   62:				;CHECKED PROGRAM FOR REGISTER READING TX BUF SET TO EXTERNAL RAM
   63:				;CHECKED PROGRAM FOR PRESET DATA REG(FUNCTION CODE 6)
   64:				;------------------------------------------------------
   65:				;EDITED LAST ON 24/6/12
   66:				;PROGRAMMED WAS CHECKED FOR 3 REG READING AT A TIME  WITH DATA FROM EXTERNAL RAM LOCN 1000H ONWARDS
   67:				;------------------------------------------------------
   68:				;EDITED LAST ON 21/6/12
   69:				;THE COMMUNICATION WITH HMI WAS TESTED SUCCESSFULLY
   70:				;ULTRA MODBUS PROTOCOL WAS USED
   71:				;NO OF BYTES IS EQUAL TO NO OF REGISTERS TO READ X 2
   72:				;IF THE MASTER HAS REQUESTED FOR 1 DATA REG THEN IN
   73:				;REPLY THE SLAVE HAS TO PUT NO OF BYTES =2
   74:				;TIMER 1 IS USED AS BAUD RATE GENERATOR
   75:				;TESTED PROGRAM FOR COMMUNICATION
   76:				;----------------------------------------------------
   77:				;FN CODE 01  IS READ COIL STATUS                 :DONE
   78:				;FN CODE 02  IS READ INPUT STATUS
   79:				;FN CODE 03  IS READ HOLDING REGISTERS           :DONE
   80:				;FN CODE 04  IS READ INPUT REGISTERS
   81:				;FN CODE 05  IS READ SINGLE COIL                 :DONE
   82:				;FN CODE 06  IS PRESET SINGLE REGISTERS          :DONE
   83:				;FN CODE 15(0FH) IS FORCE MULTIPLE COILS         :DONE
   84:				;FN CODE 16(10H) IS FORCE MULTIPLE REGISTERS
   85:
   86:
   87:				;P1.0 IS HEATER ZONE 6
   88:				;P1.1 IS SEALING O/P
   89:
   90:
   91:				;------------------------------------------------------
   92:		N      0018	TEMP_CAL_FACTOR_HI   EQU  024
   93:		N      00A0	TEMP_CAL_FACTOR_LO   EQU  0A0H
   94:				;-------------------------------------------------------
   95:
   96:
   97:
   98:
   99:

ASEM-51 V1.3                                         Copyright (c) 2002 by W.W. Heinz                                         PAGE 3



 Line  I  Addr  Code            Source

  100:
  101:				;---------------------------------------------------------
  102:				;DEFINE I/O ADDRESS
  103:				;----------------------------------------------------------
  104:		N      E800	OUTPUT_ADDRESS    EQU    0E800H               ;0F000H
  105:		N      F800	INPUT_ADDRESS     EQU    0F800H                     ;0F000H
  106:
  107:		N      F818	TEMP_IP_12_L      EQU    0F818H                         ;0F018H
  108:		N      F819	TEMP_IP_12_H      EQU    0F819H                        ;0F019H
  109:
  110:
  111:
  112:
  113:
  114:
  115:				;----------------------------------------------------
  116:				;define bit variables here...
  117:				;----------------------------------------------------
  118:				;----------------------------------------------------
  119:				;INTERNAL RAM LOCATIONS
  120:				;----------------------------------------------------
  121:
  122:		N      0008	BYTE_CNT		      EQU	08H
  123:		N      0009	TEMP			      EQU	09H
  124:		N      000A	TIMECT            EQU   0AH
  125:		N      000B	bit_cnt		      EQU	0BH
  126:		N      000C	lrc_code      		EQU	0CH
  127:		N      000D	lrc_hi			   EQU	0DH
  128:		N      000E	lrc_lo			   EQU	0EH
  129:		N      000F	count_1s		      EQU	0FH
  130:		N      0010	TEMP1             EQU   10H        ;MSB
  131:		N      0011	TEMP2             EQU   11H        ;LSB                       ;40H                 ;25H
  132:		N      001A	RSLT_0            EQU   1AH
  133:		N      001B	RSLT_1            EQU   1BH        ;40H
  134:		N      001C	SECOND_CLK        EQU   1CH
  135:		N      001D	PREV_RECEIPE      EQU   1DH
  136:		N      001E	PREV_DCINP0       EQU   1EH
  137:		N      001F	PREV_DCINP1       EQU   1FH
  138:
  139:
  140:
  141:		N      0020	GENERAL_PURPOSE_BITS_1    EQU   20H
  142:
  143:		N      0000	RCVE_OVER                 EQU	  00H
  144:		N      0001	TRANS_OVER                EQU	  01H
  145:		N      0002	BIT_READ_MORE_THAN_8      EQU	  02H
  146:		N      0003	TEN_MSEC_BIT              EQU   03H
  147:		N      0004	FIRST_BYTE                EQU	  04H
  148:		N      0005	LAST_BYTE                 EQU	  05H

  149:		N      0006	DELAY_OVER                EQU   06H
  150:		N      0007	B_FIRST_CYCLE             EQU   07H
  151:				;----------------------------------------------------
  152:		N      0021	GENERAL_PURPOSE_BITS_2    EQU   21H
  153:
  154:		N      0008	HUND_MSEC_BIT             EQU   08H

ASEM-51 V1.3                                         Copyright (c) 2002 by W.W. Heinz                                         PAGE 4



 Line  I  Addr  Code            Source

  155:		N      0009	GENERAL_BIT_1             EQU   09H
  156:		N      000A	GENERAL_BIT_2             EQU   0AH
  157:		N      000B	GENERAL_BIT_3             EQU   0BH
  158:		N      000C	GENERAL_BIT_4             EQU   0CH
  159:		N      000D	GENERAL_BIT_5             EQU   0DH
  160:		N      000E	GENERAL_BIT_6             EQU   0EH
  161:		N      000F	GENERAL_BIT_7             EQU   0FH
  162:				;----------------------------------------------------
  163:		N      0022	TMR0_3_ENABLE_DONE        EQU    22H                 ;22H
  164:
  165:		N      0010	MOULD_IN_TM00E            EQU    10H    ;MOULD IN TIME
  166:		N      0010	TM00E                     EQU    10H
  167:
  168:		N      0011	MOULD_IN_TM00D            EQU    11H
  169:		N      0011	TM00D                     EQU    11H
  170:
  171:		N      0012	MOULD_CLOSE_DLY_TM01E     EQU    12H    ;MOULD CLOSE DELAY
  172:		N      0012	TM01E                     EQU    12H
  173:
  174:		N      0013	MOULD_CLOSE_DLY_TM01D     EQU    13H
  175:		N      0013	TM01D                     EQU    13H
  176:
  177:		N      0014	CUTTER_DLY_TM02E          EQU    14H
  178:		N      0014	TM02E                     EQU    14H    ;CUTTER DELAY
  179:
  180:		N      0015	CUTTER_DLY_TM02D          EQU    15H
  181:		N      0015	TM02D                     EQU    15H
  182:
  183:		N      0016	CUTTER_ON_TM03E           EQU    16H
  184:		N      0016	TM03E                     EQU    16H    ;CUTTER ON TIME
  185:
  186:		N      0017	CUTTER_ON_TM03D           EQU    17H
  187:		N      0017	TM03D                     EQU    17H
  188:				;-----------------------------------------------------
  189:		N      0023	TMR4_7_ENABLE_DONE        EQU    23H
  190:
  191:		N      0018	BLOW_PIN_DN_DLY_TM04E     EQU    18H
  192:		N      0018	TM04E                     EQU    18H     ;BLOW PIN DN DELAY
  193:
  194:		N      0019	BLOW_PIN_DN_DLY_TM04D     EQU    19H
  195:		N      0019	TM04D                     EQU    19H
  196:
  197:		N      001A	PREBLOW_TM05E             EQU    1AH
  198:		N      001A	TM05E                     EQU    1AH     ;PRE BLOW TIME
  199:
  200:		N      001B	PREBLOW_TM05D             EQU    1BH
  201:		N      001B	TM05D                     EQU    1BH
  202:
  203:		N      001C	BLOW_DELAY_TM06E          EQU    1CH
  204:		N      001C	TM06E                     EQU    1CH     ;BLOW DELAY TIME
  205:
  206:		N      001D	BLOW_DELAY_TM06D          EQU    1DH
  207:		N      001D	TM06D                     EQU    1DH
  208:
  209:		N      001E	BLOWING_TM07E             EQU    1EH
  210:		N      001E	TM07E                     EQU    1EH      ;BLOWING TIME

ASEM-51 V1.3                                         Copyright (c) 2002 by W.W. Heinz                                         PAGE 5



 Line  I  Addr  Code            Source

  211:
  212:		N      001F	BLOWING_TM07D             EQU    1FH
  213:		N      001F	TM07D                     EQU    1FH
  214:
  215:				;-----------------------------------------------------
  216:		N      0024	TMR08_11_ENABLE_DONE      EQU    24H
  217:
  218:		N      0020	EXHAUST_TM08E             EQU    20H
  219:		N      0020	TM08E                     EQU    20H      ;EXHAUST TIME
  220:
  221:		N      0021	EXHAUST_TM08D             EQU    21H
  222:		N      0021	TM08D                     EQU    21H
  223:
  224:		N      0022	MOULDIN_SLOW_TM09E        EQU    22H
  225:		N      0022	TM09E                     EQU    22H      ;MOULD IN SLOW TIME
  226:
  227:		N      0023	MOULDIN_SLOW_TM09D        EQU    23H
  228:		N      0023	TM09D                     EQU    23H
  229:
  230:		N      0024	MOULDCLOSE_SLOW_TM10E     EQU    24H
  231:		N      0024	TM10E                     EQU    24H      ;MOULD CLOSE SLOW
  232:
  233:		N      0025	MOULDCLOSE_SLOW_TM10D     EQU    25H
  234:		N      0025	TM10D                     EQU    25H
  235:
  236:		N      0026	MOULDOUT_SLOW_TM11E       EQU    26H
  237:		N      0026	TM11E                     EQU    26H      ;MOULD OUT SLOW
  238:
  239:		N      0027	MOULDOUT_SLOW_TM11D       EQU    27H
  240:		N      0027	TM11D                     EQU    27H
  241:				;----------------------------------------------------
  242:		N      0025	TMR12_15_ENABLE_DONE      EQU    25H
  243:
  244:		N      0028	PARISON_DLY_TM12E         EQU    28H
  245:		N      0028	TM12E                     EQU    28H       ;PARISON DELAY
  246:
  247:		N      0029	PARISON_DLY_TM12D         EQU    29H
  248:		N      0029	TM12D                     EQU    29H
  249:
  250:		N      002A	PARISON_ON_TIME_TM13E     EQU    2AH
  251:		N      002A	TM13E                     EQU    2AH       ;PARISON ON TIME
  252:
  253:		N      002B	PARISON_ON_TIME_TM13D     EQU    2BH
  254:		N      002B	TM13D                     EQU    2BH
  255:
  256:		N      002C	MOULDIN_DLY_TM14E         EQU    2CH
  257:		N      002C	TM14E                     EQU    2CH       ;MOULD IN DELAY
  258:
  259:		N      002D	MOULDIN_DLY_TM14D         EQU    2DH
  260:		N      002D	TM14D                     EQU    2DH
  261:
  262:		N      002E	CUTTERON_TIME2_TM15E      EQU    2EH
  263:		N      002E	TM15E                     EQU    2EH       ;2ND TIMER FOR CUTTER ITS VALUE IS EQUAL TO TMS03
  264:
  265:		N      002F	CUTTERON_TIME2_TM15D      EQU    2FH
  266:		N      002F	TM15D                     EQU    2FH

ASEM-51 V1.3                                         Copyright (c) 2002 by W.W. Heinz                                         PAGE 6



 Line  I  Addr  Code            Source

  267:				;----------------------------------------------------
  268:		N      0026	TMR16_19_ENABLE_DONE      EQU    26H
  269:
  270:		N      0030	TM16E                     EQU    30H      ;CYCLE TIME
  271:		N      0031	TM16D                     EQU    31H
  272:
  273:		N      0032	SEALING_DELAY_TM17E       EQU    32H      ;SEALING DELAY
  274:		N      0032	TM17E                     EQU    32H
  275:
  276:		N      0033	SEALING_DELAY_TM17D       EQU    33H
  277:		N      0033	TM17D                     EQU    33H
  278:
  279:		N      0034	SEALING_TIME_TM18E        EQU    34H       ;SEALING TIME
  280:		N      0034	TM18E                     EQU    34H
  281:
  282:		N      0035	SEALING_TIME_TM18D        EQU    35H
  283:		N      0035	TM18D                     EQU    35H
  284:
  285:		N      0036	MOULDOUT_DLY_TM19E        EQU    36H
  286:		N      0036	TM19E                     EQU    36H
  287:
  288:		N      0037	MOULDOUT_DLY_TM19D        EQU    37H
  289:		N      0037	TM19D                     EQU    37H
  290:
  291:
  292:				;----------------------------------------------------
  293:		N      0027	OUT0_7                    EQU    27H
  294:
  295:		N      0038	MOULD_CLOSE_OP            EQU    38H   ;MOULD OPEN  OUT0
  296:		N      0039	MOULD_OPEN_OP             EQU    39H   ;MOULD CLOSE OUT1
  297:		N      003A	BLOW_PINDN_OP             EQU    3AH   ;MOULD IN
  298:		N      003B	MOULD_IN_OP               EQU    3BH   ;MOULD OUT
  299:		N      003C	MOULD_OUT_OP              EQU    3CH   ;BLOW PIN DOWN
  300:		N      003D	BLOW_PINUP_OP             EQU    3DH   ;BLOWING
  301:		N      003E	CUTTER2_OP                EQU    3EH   ;CUTTER 1
  302:		N      003F	BLOWING_OP                EQU    3FH   ;CUTTER 2
  303:				;-----------------------------------------------------
  304:		N      0028	TM100_TM103               EQU    28H
  305:
  306:
  307:		N      0040	TM100E                    EQU    40H              ;ALL ERROR DEBOUNCING TIMERS
  308:		N      0040	MLD_CLS_TM_E              EQU    40H
  309:
  310:		N      0041	TM100D                    EQU    41H
  311:		N      0041	MLD_CLS_TM_D              EQU    41H
  312:
  313:		N      0042	TM101E                    EQU    42H
  314:		N      0042	PINDN_TM101E              EQU    42H
  315:
  316:		N      0043	TM101D                    EQU    43H
  317:		N      0043	PINDN_TM101D              EQU    43H
  318:
  319:		N      0044	TM102E                    EQU    44H
  320:		N      0044	PINDN_SLOW_TM102E         EQU    44H
  321:
  322:		N      0045	TM102D                    EQU    45H

ASEM-51 V1.3                                         Copyright (c) 2002 by W.W. Heinz                                         PAGE 7



 Line  I  Addr  Code            Source

  323:		N      0045	PINDN_SLOW_TM102D         EQU    45H
  324:
  325:		N      0046	TM103E                    EQU    46H
  326:		N      0046	PINUP_SLOW_TM103E         EQU    46H
  327:
  328:		N      0047	TM103D                    EQU    47H
  329:		N      0047	PINUP_SLOW_TM103D         EQU    47H
  330:
  331:				;-----------------------------------------------------
  332:		N      0029	DC_INPUT0                 EQU    29H
  333:
  334:		N      0048	MOULD_OPEN_IP             EQU    48H    ;INP0
  335:		N      0049	BLOW_PINUP_IP             EQU    49H    ;INP1
  336:		N      004A	EMERGENCY_IP              EQU    4AH    ;INP2
  337:		N      004B	EXTRUDER_MTR              EQU    4BH    ;INP3
  338:		N      004C	MOULD_IN_IP               EQU    4CH    ;INP4
  339:		N      004D	MOULD_OUT_IP              EQU    4DH    ;INP5
  340:		N      004E	MOULD_IN_SLOW_IP          EQU    4EH    ;INP6
  341:		N      004F	MOULD_OUT_SLOW_IP         EQU    4FH    ;INP7
  342:				;-------------------------------------------------------
  343:		N      002A	DC_INPUT1                 EQU    2AH
  344:
  345:		N      0050	MOULD_CLOSE_PB_IP         EQU    50H     ;INP8
  346:		N      0051	MOULD_OPEN_PB_IP          EQU    51H     ;INP9
  347:		N      0052	MOULD_IN_PB_IP            EQU    52H     ;INP10
  348:		N      0053	MOULD_OUT_PB_IP           EQU    53H     ;INP11
  349:		N      0054	BLOW_PINUP_PB_IP          EQU    54H     ;INP12
  350:		N      0055	BLOW_PINDN_PB_IP          EQU    55H
  351:		N      0056	CLS_SLWDN_IP              EQU    56H
  352:		N      0057	MOULD_CLOSE_IP            EQU    57H
  353:
  354:				;-------------------------------------------------------
  355:		N      002B	RLY01_08                  EQU    2BH
  356:
  357:		N      0058	RLY01                     EQU    58H
  358:		N      0058	LOCKING_SEL               EQU    58H                                     ;LOCKING SEL
  359:				;-----------------------------------
  360:		N      0059	RLY02                     EQU    59H
  361:		N      0059	HEATER_ON_OFF             EQU    59H      ;RLY02 IS HEATER ON OFF
  362:				;-----------------------------------
  363:		N      005A	RLY03                     EQU    5AH
  364:		N      005A	AUTO_MAN_SEL              EQU    5AH
  365:				;-----------------------------------
  366:		N      005B	RLY04                     EQU    5BH
  367:				;-----------------------------------
  368:		N      005C	RLY05                     EQU    5CH      ;HOME POSN REACHED
  369:		N      005C	B_HOME_POSN               EQU    5CH
  370:				;-----------------------------------
  371:		N      005D	RLY06                     EQU    5DH      ;DOUBLE CUT SEL
  372:		N      005D	DOUBLE_CUT_SEL            EQU    5DH
  373:				;-----------------------------------
  374:		N      005E	RLY07                     EQU    5EH      ;USED INSTEAD OF RLY14
  375:		N      005F	RLY08                     EQU    5FH      ;USED INSTEAD OF RLY15
  376:
  377:				;-----------------------------------------------------
  378:		N      002C	OUT8_15                   EQU    2CH

ASEM-51 V1.3                                         Copyright (c) 2002 by W.W. Heinz                                         PAGE 8



 Line  I  Addr  Code            Source

  379:
  380:		N      0060	SMALLPUMP_OP              EQU    60H
  381:		N      0061	BIGPUMP_OP                EQU    61H
  382:		N      0062	HEATER1                   EQU    62H
  383:		N      0063	HEATER2                   EQU    63H   ;HEATER 1
  384:		N      0064	HEATER3                   EQU    64H   ;HEATER 2
  385:		N      0065	HEATER4                   EQU    65H   ;HEATER 3
  386:		N      0066	HEATER5                   EQU    66H   ;HEATER 4
  387:		N      0067	EXTRUDER_OP               EQU    67H   ;HEATER 5
  388:
  389:				;-----------------------------------------------------
  390:		N      002D	RLY17_24                  EQU    2DH
  391:				;-----------------------------------
  392:		N      0068	MOULD_IN_OVER              EQU    68H
  393:		N      0069	MOULD_CLOSE_OVER           EQU    69H
  394:		N      006A	MOULD_OUT_OVER             EQU    6AH
  395:		N      006B	BLOW_PIN_DN_OVER           EQU    6BH
  396:		N      006C	PARISON_START              EQU    6CH
  397:		N      006D	PARISON_SEL                EQU    6DH
  398:				;RLY21                     EQU    6CH
  399:				;RLY22                     EQU    6DH
  400:				;RLY23                     EQU    6EH
  401:				;RLY24                     EQU    6FH
  402:
  403:				;----------------------------------------------------
  404:		N      002E	RLY25_32                  EQU    2EH
  405:
  406:		N      0070	LOW_LIM_Z1                EQU    70H
  407:		N      0070	RLY25                     EQU    70H  ;USED IN PROGRAM OF LOW LIMIT ZONE1
  408:
  409:		N      0071	LOW_LIM_Z2                EQU    71H
  410:		N      0071	RLY26                     EQU    71H  ;USED IN PROGRAM OF LOW LIMIT ZONE2
  411:
  412:		N      0072	LOW_LIM_Z3                EQU    72H
  413:		N      0072	RLY27                     EQU    72H  ;USED IN PROGRAM OF LOW LIMIT ZONE3
  414:
  415:		N      0073	LOW_LIM_Z4                EQU    73H
  416:		N      0073	RLY28                     EQU    73H  ;USED IN PROGRAM OF LOW LIMIT ZONE4
  417:
  418:		N      0074	LOW_LIM_Z5                EQU    74H
  419:		N      0074	RLY29                     EQU    74H  ;USED IN PROGRAM OF LOW LIMIT ZONE5
  420:
  421:		N      0075	LOW_LIM_Z6                EQU    75H
  422:		N      0075	RLY30                     EQU    75H  ;USED IN PROGRAM OF LOW LIMIT ZONE6
  423:
  424:		N      0076	LOW_LIM_Z7                EQU    76H
  425:		N      0076	RLY31                     EQU    76H  ;USED IN PROGRAM OF LOW LIMIT ZONE7
  426:
  427:		N      0077	LOW_LIM_Z8                EQU    77H
  428:		N      0077	RLY32                     EQU    77H  ;USED IN PROGRAM OF LOW LIMIT ZONE8
  429:				;---------------------------------------------------
  430:		N      002F	RLY33_40                  EQU    2FH
  431:
  432:		N      0078	RLY33                     EQU    78H
  433:		N      0079	RLY34                     EQU    79H
  434:		N      007A	RLY35                     EQU    7AH

ASEM-51 V1.3                                         Copyright (c) 2002 by W.W. Heinz                                         PAGE 9



 Line  I  Addr  Code            Source

  435:		N      007B	RLY36                     EQU    7BH
  436:		N      007C	RLY37                     EQU    7CH
  437:		N      007D	RLY38                     EQU    7DH
  438:		N      007E	RLY39                     EQU    7EH
  439:		N      007F	RLY40                     EQU    7FH
  440:				;----------------------------------------------------
  441:				;DIRECT ADDRESSING BITS ENDS HERE
  442:				;-----------------------------------------------------
  443:		N      0030	RLY09_16                  EQU    30H
  444:		N      0030	OUT16_23                  EQU    30H
  445:
  446:
  447:		N      00E0	BLOWER1_OP                EQU    0E0H
  448:		N      00E1	BLOWER2_OP                EQU    0E1H
  449:		N      00E2	BLOWER3_OP                EQU    0E2H
  450:		N      00E3	BLOWER4_OP                EQU    0E3H
  451:		N      00E4	HEATER6                   EQU    0E4H
  452:		N      00E5	HEATER7_OP                EQU    0E5H
  453:		N      00E6	THIN_OP                   EQU    0E6H
  454:		N      00E7	THICK_OP                  EQU    0E7H
  455:
  456:				;-------------------------------------------------------
  457:		N      0031	A2D_CHANNEL               EQU    31H
  458:		N      0032	CTR_PREV_CLK              EQU    32H
  459:				;CTR_CLK                   EQU    33H
  460:		N      0080	SCRATCHPAD_0              EQU    80H
  461:		N      0081	SCRATCHPAD_1              EQU    81H
  462:		N      0082	SCRATCHPAD_2              EQU    82H
  463:		N      0083	SCRATCHPAD_3              EQU    83H
  464:
  465:		N      0033	COUNTER_BITS              EQU   33H
  466:
  467:		N      0033	CTR_CLK                   EQU   33H
  468:
  469:		N      00E0	CT00C             EQU   0E0H
  470:		N      00E1	CT01C             EQU   0E1H
  471:		N      00E2	CT02C             EQU   0E2H
  472:		N      00E3	CT03C             EQU   0E3H
  473:		N      00E4	CT04C             EQU   0E4H
  474:		N      00E5	CT05C             EQU   0E5H
  475:		N      00E6	CT06C             EQU   0E6H
  476:		N      00E7	CT07C             EQU   0E7H
  477:
  478:		N      0034	CTR_RESET         EQU   34H
  479:
  480:		N      00E0	CT00R             EQU   0E0H
  481:		N      00E1	CT01R             EQU   0E1H
  482:		N      00E2	CT02R             EQU   0E2H
  483:		N      00E3	CT03R             EQU   0E3H
  484:		N      00E4	CT04R             EQU   0E4H
  485:		N      00E5	CT05R             EQU   0E5H
  486:		N      00E6	CT06R             EQU   0E6H
  487:		N      00E7	CT07R             EQU   0E7H
  488:
  489:
  490:		N      0035	CTR_DONE          EQU   35H

ASEM-51 V1.3                                        Copyright (c) 2002 by W.W. Heinz                                         PAGE 10



 Line  I  Addr  Code            Source

  491:
  492:		N      00E0	CT00D             EQU   0E0H
  493:		N      00E1	CT01D             EQU   0E1H
  494:		N      00E2	CT02D             EQU   0E2H
  495:		N      00E3	CT03D             EQU   0E3H
  496:		N      00E4	CT04D             EQU   0E4H
  497:		N      00E5	CT05D             EQU   0E5H
  498:		N      00E6	CT06D             EQU   0E6H
  499:		N      00E7	CT07D             EQU   0E7H
  500:
  501:
  502:		N      0036	POWER_ON_STATE    EQU   36H
  503:		N      0037	IP_DEBOUNCE       EQU   37H
  504:		N      0038	TC_DEBOUNCE       EQU   38H
  505:		N      0039	REMAINDER         EQU   39H
  506:
  507:		N      003B	BAND              EQU   3BH
  508:
  509:				;------------------------------------------------------------------------------------------
  510:				;EXTERNAL RAM LOCATIONS
  511:				;------------------------------------------------------------------------------------------
  512:		N      0400	RX_BUF                      EQU   0400H
  513:		N      0500	TX_BUF                      EQU   0500H
  514:		N      1000	START_ADDRESS_DATA_REG      EQU   1000H
  515:
  516:				;STARTING ADDRESS OF RAM IS 1000H WHICH STANDS FOR DATA REG 1 HMI
  517:				;LAST ADDRESS OF RAM IS 5E1E WHICH STANDS FOR DATA REG 10000 OF HMI
  518:
  519:
  520:
  521:		N      0F00	BIT_START_ADDRESS_INPUT     EQU   0F00H
  522:
  523:		N      1000	START_CURRENT_LOCNS         EQU   1000H
  524:				;----------------------------------------------------------
  525:		N      101E	TMS120H                     EQU   101EH     ;16
  526:		N      101F	TMS120L                     EQU   101FH
  527:
  528:		N      1020	TMS121H                     EQU   1020H     ;17
  529:		N      1021	TMS121L                     EQU   1021H
  530:
  531:		N      1022	TMS122H                     EQU   1022H     ;18
  532:		N      1023	TMS122L                     EQU   1023H
  533:
  534:		N      1024	TMS123H                     EQU   1024H     ;19
  535:		N      1025	TMS123L                     EQU   1025H
  536:
  537:		N      1026	TMS124H                     EQU   1026H     ;20
  538:		N      1027	TMS124L                     EQU   1027H
  539:
  540:		N      1028	TMS125H                     EQU   1028H     ;21
  541:		N      1029	TMS125L                     EQU   1029H
  542:
  543:		N      102A	TMS126H                     EQU   102AH     ;22
  544:		N      102B	TMS126L                     EQU   102BH
  545:
  546:		N      102C	TMS127H                     EQU   102CH     ;23

ASEM-51 V1.3                                        Copyright (c) 2002 by W.W. Heinz                                         PAGE 11



 Line  I  Addr  Code            Source

  547:		N      102D	TMS127L                     EQU   102DH
  548:
  549:
  550:
  551:
  552:
  553:				;---------------------------------------------------------
  554:
  555:		N      103C	BAND_H                      EQU   103CH    ;31
  556:		N      103D	BAND_L                      EQU   103DH
  557:
  558:		N      103E	LOW_LIMIT_H                 EQU   103EH   ;32
  559:		N      103F	LOW_LIMIT_L                 EQU   103FH
  560:
  561:		N      1040	ZONE1_SET_H                 EQU   1040H   ;33
  562:		N      1041	ZONE1_SET_L                 EQU   1041H
  563:
  564:		N      1042	ZONE2_SET_H                 EQU   1042H   ;34
  565:		N      1043	ZONE2_SET_L                 EQU   1043H
  566:
  567:		N      1044	ZONE3_SET_H                 EQU   1044H    ;35
  568:		N      1045	ZONE3_SET_L                 EQU   1045H
  569:
  570:		N      1046	ZONE4_SET_H                 EQU   1046H    ;36
  571:		N      1047	ZONE4_SET_L                 EQU   1047H
  572:
  573:		N      1048	ZONE5_SET_H                 EQU   1048H    ;37
  574:		N      1049	ZONE5_SET_L                 EQU   1049H
  575:
  576:		N      104A	ZONE6_SET_H                 EQU   104AH    ;38
  577:		N      104B	ZONE6_SET_L                 EQU   104BH
  578:
  579:		N      104C	ZONE7_SET_H                 EQU   104CH    ;39
  580:		N      104D	ZONE7_SET_L                 EQU   104DH
  581:
  582:		N      104E	ZONE8_SET_H                 EQU   104EH    ;40
  583:		N      104F	ZONE8_SET_L                 EQU   104FH
  584:
  585:				;------------------------------------------------------
  586:		N      1050	TMS00H                      EQU   1050H  ;41
  587:		N      1051	TMS00L                      EQU   1051H
  588:
  589:		N      1052	TMS01H                      EQU   1052H  ;42
  590:		N      1053	TMS01L                      EQU   1053H
  591:
  592:		N      1054	TMS02H                      EQU   1054H   ;43
  593:		N      1055	TMS02L                      EQU   1055H
  594:
  595:		N      1056	TMS03H                      EQU   1056H   ;44
  596:		N      1057	TMS03L                      EQU   1057H
  597:
  598:		N      1058	TMS04H                      EQU   1058H   ;45
  599:		N      1059	TMS04L                      EQU   1059H
  600:
  601:		N      105A	TMS05H                      EQU   105AH   ;46
  602:		N      105B	TMS05L                      EQU   105BH

ASEM-51 V1.3                                        Copyright (c) 2002 by W.W. Heinz                                         PAGE 12



 Line  I  Addr  Code            Source

  603:
  604:		N      105C	TMS06H                      EQU   105CH   ;47
  605:		N      105D	TMS06L                      EQU   105DH
  606:
  607:		N      105E	TMS07H                      EQU   105EH   ;48
  608:		N      105F	TMS07L                      EQU   105FH
  609:
  610:		N      1060	TMS08H                      EQU   1060H   ;49
  611:		N      1061	TMS08L                      EQU   1061H
  612:
  613:		N      1062	TMS09H                      EQU   1062H   ;50
  614:		N      1063	TMS09L                      EQU   1063H
  615:
  616:		N      1064	TMS10H                      EQU   1064H   ;51
  617:		N      1065	TMS10L                      EQU   1065H
  618:
  619:		N      1066	TMS11H                      EQU   1066H   ;52
  620:		N      1067	TMS11L                      EQU   1067H
  621:
  622:		N      1068	TMS12H                      EQU   1068H   ;53
  623:		N      1069	TMS12L                      EQU   1069H
  624:
  625:		N      106A	TMS13H                      EQU   106AH   ;54
  626:		N      106B	TMS13L                      EQU   106BH
  627:
  628:		N      106C	TMS14H                      EQU   106CH   ;55
  629:		N      106D	TMS14L                      EQU   106DH
  630:
  631:		N      106E	TMS15H                      EQU   106EH   ;56
  632:		N      106F	TMS15L                      EQU   106FH
  633:
  634:		N      1070	TMS16H                      EQU   1070H   ;57
  635:		N      1071	TMS16L                      EQU   1071H
  636:
  637:		N      1072	TMS17H                      EQU   1072H   ;58
  638:		N      1073	TMS17L                      EQU   1073H
  639:
  640:		N      1074	TMS18H                      EQU   1074H   ;59  NOT USED
  641:		N      1075	TMS18L                      EQU   1075H
  642:
  643:		N      1076	TMS19H                      EQU   1076H   ;60
  644:		N      1077	TMS19L                      EQU   1077H
  645:
  646:		N      1078	TMS100H                     EQU   1078H   ;61
  647:		N      1079	TMS100L                     EQU   1079H
  648:
  649:		N      107A	TMS101H                     EQU   107AH   ;62  BLOW PIN DOWN TIME
  650:		N      107B	TMS101L                     EQU   107BH
  651:
  652:		N      107C	TMS102H                     EQU   107CH   ;63  PIN DN SLOW
  653:		N      107D	TMS102L                     EQU   107DH
  654:
  655:		N      107E	TMS103H                     EQU   107EH   ;64  PIN DN SLOW
  656:		N      107F	TMS103L                     EQU   107FH
  657:
  658:

ASEM-51 V1.3                                        Copyright (c) 2002 by W.W. Heinz                                         PAGE 13



 Line  I  Addr  Code            Source

  659:		N      1080	TMS104H                     EQU   1080H   ;65
  660:		N      1081	TMS104L                     EQU   1081H
  661:
  662:		N      1082	TMS105H                     EQU   1082H   ;66
  663:		N      1083	TMS105L                     EQU   1083H
  664:
  665:		N      1084	TMS106H                     EQU   1084H   ;67
  666:		N      1085	TMS106L                     EQU   1085H
  667:
  668:		N      1086	TMS107H                     EQU   1086H   ;68
  669:		N      1087	TMS107L                     EQU   1087H
  670:
  671:				;--------------------------------------------------------------------
  672:		N      1090	CTS00H                      EQU   1090H
  673:		N      1091	CTS00L                      EQU   1091H
  674:
  675:		N      1092	CTS01H                      EQU   1092H
  676:		N      1093	CTS01L                      EQU   1093H
  677:
  678:		N      1094	CTS02H                      EQU   1094H
  679:		N      1095	CTS02L                      EQU   1095H
  680:
  681:		N      1096	CTS03H                      EQU   1096H
  682:		N      1097	CTS03L                      EQU   1097H
  683:
  684:		N      1098	CTS04H                      EQU   1098H
  685:		N      1099	CTS04L                      EQU   1099H
  686:
  687:		N      109A	CTS05H                      EQU   109AH
  688:		N      109B	CTS05L                      EQU   109BH
  689:
  690:		N      109C	CTS06H                      EQU   109CH
  691:		N      109D	CTS06L                      EQU   109DH
  692:
  693:		N      109E	CTS07H                      EQU   109EH
  694:		N      109F	CTS07L                      EQU   109FH
  695:				;-----------------------------------------------------------------
  696:
  697:				;CTC00H                      EQU   10B0H   ;88
  698:				;CTC00L                      EQU   10B1H
  699:
  700:				;CTC01H                      EQU   10B2H   ;89
  701:				;CTC01L                      EQU   10B3H
  702:
  703:				;CTC02H                      EQU   10B4H   ;90
  704:				;CTC02L                      EQU   10B5H
  705:
  706:				;CTC03H                      EQU   10B6H   ;91
  707:				;CTC03L                      EQU   10B7H
  708:
  709:				;CTC04H                      EQU   10B8H    ;92
  710:				;CTC04L                      EQU   10B9H
  711:
  712:				;CTC05H                      EQU   10BAH    ;93
  713:				;CTC05L                      EQU   10BBH
  714:

ASEM-51 V1.3                                        Copyright (c) 2002 by W.W. Heinz                                         PAGE 14



 Line  I  Addr  Code            Source

  715:				;CTC06H                      EQU   10BCH     ;94
  716:				;CTC06L                      EQU   10BDH
  717:
  718:				;CTC07H                      EQU   10BEH     ;95
  719:				;CTC07L                      EQU   10BFH
  720:				;-----------------------------------------------------------------------------
  721:
  722:		N      2000	BLOWER1_H                   EQU   2000H   ;2049
  723:		N      2001	BLOWER1_L                   EQU   2001H
  724:
  725:		N      2002	BLOWER2_H                   EQU   2002H
  726:		N      2003	BLOWER2_L                   EQU   2003H
  727:
  728:		N      2004	BLOWER3_H                   EQU   2004H
  729:		N      2005	BLOWER3_L                   EQU   2005H
  730:
  731:		N      2006	BLOWER4_H                   EQU   2006H   ;2052
  732:		N      2007	BLOWER4_L                   EQU   2007H
  733:
  734:		N      2300	CTC00H                      EQU   2300H   ;2433   MAIN PROD_VINAYAK PROD RESET LINK
  735:		N      2301	CTC00L                      EQU   2301H
  736:
  737:		N      2302	CTC01H                      EQU   2302H   ;2434   MAIN PROD
  738:		N      2303	CTC01L                      EQU   2303H
  739:
  740:		N      2304	CTC02H                      EQU   2304H   ;2435  HOURLY PROD COUNT
  741:		N      2305	CTC02L                      EQU   2305H
  742:
  743:		N      2306	CTC03H                      EQU   2306H   ;2436
  744:		N      2307	CTC03L                      EQU   2307H
  745:
  746:		N      2308	CTC04H                      EQU   2308H    ;2437
  747:		N      2309	CTC04L                      EQU   2309H
  748:
  749:		N      230A	CTC05H                      EQU   230AH    ;2438
  750:		N      230B	CTC05L                      EQU   230BH
  751:
  752:		N      230C	CTC06H                      EQU   230CH     ;2439
  753:		N      230D	CTC06L                      EQU   230DH
  754:
  755:		N      230E	CTC07H                      EQU   230EH     ;2440
  756:		N      230F	CTC07L                      EQU   230FH
  757:
  758:
  759:				;-----------------------------------------------------------------------------
  760:				;2388H(5000) ONWARDS LOCN ARE WITHOUT BATTERY BACKUP WORDS
  761:				;-----------------------------------------------------------------------------
  762:		N      2388	NON_BATBACKUP_WORDS         EQU   2388H
  763:
  764:
  765:		N      2388	TMC00H                      EQU   2388H    ; 2501
  766:		N      2389	TMC00L                      EQU   2389H
  767:
  768:		N      238A	TMC01H                      EQU   238AH    ;2502
  769:		N      238B	TMC01L                      EQU   238BH
  770:

ASEM-51 V1.3                                        Copyright (c) 2002 by W.W. Heinz                                         PAGE 15



 Line  I  Addr  Code            Source

  771:		N      238C	TMC02H                      EQU   238CH    ;2503
  772:		N      238D	TMC02L                      EQU   238DH
  773:
  774:		N      238E	TMC03H                      EQU   238EH    ;2504
  775:		N      238F	TMC03L                      EQU   238FH
  776:
  777:		N      2390	TMC04H                      EQU   2390H    ; 2505
  778:		N      2391	TMC04L                      EQU   2391H
  779:
  780:		N      2392	TMC05H                      EQU   2392H     ;2506
  781:		N      2393	TMC05L                      EQU   2393H
  782:
  783:		N      2394	TMC06H                      EQU   2394H     ;2507
  784:		N      2395	TMC06L                      EQU   2395H
  785:
  786:		N      2396	TMC07H                      EQU   2396H     ;2508
  787:		N      2397	TMC07L                      EQU   2397H
  788:
  789:		N      2398	TMC08H                      EQU   2398H     ;2509
  790:		N      2399	TMC08L                      EQU   2399H
  791:
  792:		N      239A	TMC09H                      EQU   239AH     ;2510
  793:		N      239B	TMC09L                      EQU   239BH
  794:
  795:		N      239C	TMC10H                      EQU   239CH     ;2511
  796:		N      239D	TMC10L                      EQU   239DH
  797:
  798:		N      239E	TMC11H                      EQU   239EH    ; 2512
  799:		N      239F	TMC11L                      EQU   239FH
  800:
  801:		N      23A0	TMC12H                      EQU   23A0H    ; 2513
  802:		N      23A1	TMC12L                      EQU   23A1H
  803:
  804:		N      23A2	TMC13H                      EQU   23A2H    ; 2514
  805:		N      23A3	TMC13L                      EQU   23A3H
  806:
  807:		N      23A4	TMC14H                      EQU   23A4H    ; 2515
  808:		N      23A5	TMC14L                      EQU   23A5H
  809:
  810:		N      23A6	TMC15H                      EQU   23A6H    ; 2516
  811:		N      23A7	TMC15L                      EQU   23A7H
  812:
  813:		N      23A8	TMC16H                      EQU   23A8H    ;2517
  814:		N      23A9	TMC16L                      EQU   23A9H
  815:
  816:		N      23AA	TMC17H                      EQU   23AAH    ; 2518
  817:		N      23AB	TMC17L                      EQU   23ABH
  818:
  819:		N      23AC	TMC18H                      EQU   23ACH    ; 2519
  820:		N      23AD	TMC18L                      EQU   23ADH
  821:
  822:		N      23AE	TMC19H                      EQU   23AEH    ; 2520
  823:		N      23AF	TMC19L                      EQU   23AFH
  824:
  825:		N      23B0	TMC20H                      EQU   23B0H    ; 2521
  826:		N      23B1	TMC20L                      EQU   23B1H

ASEM-51 V1.3                                        Copyright (c) 2002 by W.W. Heinz                                         PAGE 16



 Line  I  Addr  Code            Source

  827:
  828:		N      23B2	TMC21H                      EQU   23B2H
  829:		N      23B3	TMC21L                      EQU   23B3H
  830:
  831:		N      23B4	TMC22H                      EQU   23B4H
  832:		N      23B5	TMC22L                      EQU   23B5H
  833:
  834:		N      23B6	TMC23H                      EQU   23B6H
  835:		N      23B7	TMC23L                      EQU   23B7H
  836:
  837:		N      23B8	TMC24H                      EQU   23B8H
  838:		N      23B9	TMC24L                      EQU   23B9H
  839:
  840:		N      23BA	TMC25H                      EQU   23BAH
  841:		N      23BB	TMC25L                      EQU   23BBH
  842:
  843:		N      23BC	TMC26H                      EQU   23BCH
  844:		N      23BD	TMC26L                      EQU   23BDH
  845:
  846:		N      23BE	TMC27H                      EQU   23BEH
  847:		N      23BF	TMC27L                      EQU   23BFH
  848:
  849:		N      23C0	CYCLE_TIME_H                EQU   23C0H    ;2529
  850:		N      23C1	CYCLE_TIME_L                EQU   23C1H
  851:
  852:		N      23C2	TMC40H                      EQU   23C2H
  853:		N      23C3	TMC40L                      EQU   23C3H
  854:
  855:		N      23C4	TMC41H                      EQU   23C4H
  856:		N      23C5	TMC41L                      EQU   23C5H
  857:
  858:		N      23C6	TMC42H                      EQU   23C6H
  859:		N      23C7	TMC42L                      EQU   23C7H
  860:
  861:		N      23C8	TMC43H                      EQU   23C8H   ;
  862:		N      23C9	TMC43L                      EQU   23C9H
  863:
  864:
  865:
  866:				;----------------------------------------------------
  867:		N      23CA	ALARM_1_H                   EQU   23CAH
  868:
  869:		N      00E0	ZONE5_LOW_LIMIT_ERR         EQU   0E0H
  870:		N      00E1	ZONE6_LOW_LIMIT_ERR         EQU   0E1H
  871:		N      00E2	ZONE7_LOW_LIMIT_ERR         EQU   0E2H
  872:		N      00E3	ZONE8_LOW_LIMIT_ERR         EQU   0E3H
  873:		N      00E4	MOULD_IN_ERR                EQU   0E4H
  874:
  875:
  876:
  877:				;----------------------------------------------------
  878:		N      23CB	ALARM_1_L                   EQU   23CBH
  879:
  880:		N      00E0	EMERGENCY_PRESSED           EQU   0E0H
  881:		N      00E1	MOULD_OUT_ERR               EQU   0E1H
  882:		N      00E2	MOULD_OPEN_ERR              EQU   0E2H

ASEM-51 V1.3                                        Copyright (c) 2002 by W.W. Heinz                                         PAGE 17



 Line  I  Addr  Code            Source

  883:		N      00E3	BLOW_PIN_DN_ERR             EQU   0E3H
  884:		N      00E4	ZONE1_LOW_LIMIT_ERR         EQU   0E4H
  885:		N      00E5	ZONE2_LOW_LIMIT_ERR         EQU   0E5H
  886:		N      00E6	ZONE3_LOW_LIMIT_ERR         EQU   0E6H
  887:		N      00E7	ZONE4_LOW_LIMIT_ERR         EQU   0E7H
  888:				;------------------------------------------------------
  889:
  890:
  891:		N      2420	TEMP_CUR_VALUES             EQU   2420H
  892:
  893:		N      2420	ZONE1_COUNTS_H              EQU   2420H
  894:		N      2420	CH00H                       EQU   2420H
  895:
  896:		N      2421	ZONE1_COUNTS_L              EQU   2421H
  897:		N      2421	CH00L                       EQU   2421H
  898:
  899:		N      2422	ZONE2_COUNTS_H              EQU   2422H
  900:		N      2422	CH01H                       EQU   2422H
  901:
  902:		N      2423	ZONE2_COUNTS_L              EQU   2423H
  903:		N      2423	CH01L                       EQU   2423H
  904:
  905:		N      2424	ZONE3_COUNTS_H              EQU   2424H
  906:		N      2424	CH02H                       EQU   2424H
  907:
  908:		N      2425	ZONE3_COUNTS_L              EQU   2425H
  909:		N      2425	CH02L                       EQU   2425H
  910:
  911:		N      2426	ZONE4_COUNTS_H              EQU   2426H
  912:		N      2426	CH03H                       EQU   2426H
  913:
  914:		N      2427	ZONE4_COUNTS_L              EQU   2427H
  915:		N      2427	CH03L                       EQU   2427H
  916:
  917:		N      2428	ZONE5_COUNTS_H              EQU   2428H
  918:		N      2428	CH04H                       EQU   2428H
  919:
  920:		N      2429	ZONE5_COUNTS_L              EQU   2429H
  921:		N      2429	CH04L                       EQU   2429H
  922:
  923:		N      242A	ZONE6_COUNTS_H              EQU   242AH
  924:		N      242A	CH05H                       EQU   242AH
  925:
  926:		N      242B	ZONE6_COUNTS_L              EQU   242BH
  927:		N      242B	CH05L                       EQU   242BH
  928:
  929:		N      242C	ZONE7_COUNTS_H              EQU   242CH
  930:		N      242C	CH06H                       EQU   242CH
  931:
  932:		N      242D	ZONE7_COUNTS_L              EQU   242DH
  933:		N      242D	CH06L                       EQU   242DH
  934:
  935:		N      242E	ZONE8_COUNTS_H              EQU   242EH
  936:		N      242E	CH07H                       EQU   242EH
  937:
  938:		N      242F	ZONE8_COUNTS_L              EQU   242FH

ASEM-51 V1.3                                        Copyright (c) 2002 by W.W. Heinz                                         PAGE 18



 Line  I  Addr  Code            Source

  939:		N      242F	CH07L                       EQU   242FH
  940:				;-------------------------------------------------------------
  941:		N      2440	ZONE8_ACT_TEMP_H            EQU   2440H    ;2593
  942:		N      2440	CH19H                       EQU   2440H
  943:
  944:		N      2441	ZONE8_ACT_TEMP_L            EQU   2441H    ;259
  945:		N      2441	CH19L                       EQU   2441H
  946:
  947:		N      2442	ZONE1_ACT_TEMP_H            EQU   2442H     ; 0+ & 0-  ON THERMOCOUPLE CARD
  948:		N      2442	CH20H                       EQU   2442H
  949:
  950:		N      2443	ZONE1_ACT_TEMP_L            EQU   2443H
  951:		N      2443	CH20L                       EQU   2443H
  952:
  953:		N      2444	ZONE2_ACT_TEMP_H            EQU   2444H      ;1+ & 1-  ON THERMOCOUPLE CARD
  954:		N      2444	CH21H                       EQU   2444H
  955:
  956:		N      2445	ZONE2_ACT_TEMP_L            EQU   2445H
  957:		N      2445	CH21L                       EQU   2445H
  958:
  959:		N      2446	ZONE3_ACT_TEMP_H            EQU   2446H
  960:		N      2446	CH22H                       EQU   2446H
  961:
  962:		N      2447	ZONE3_ACT_TEMP_L            EQU   2447H
  963:		N      2447	CH22L                       EQU   2447H
  964:
  965:		N      2448	ZONE4_ACT_TEMP_H            EQU   2448H
  966:		N      2448	CH23H                       EQU   2448H
  967:
  968:		N      2449	ZONE4_ACT_TEMP_L            EQU   2449H
  969:		N      2449	CH23L                       EQU   2449H
  970:
  971:		N      244A	ZONE5_ACT_TEMP_H            EQU   244AH
  972:		N      244A	CH24H                       EQU   244AH
  973:
  974:		N      244B	ZONE5_ACT_TEMP_L            EQU   244BH
  975:		N      244B	CH24L                       EQU   244BH
  976:
  977:		N      244C	ZONE6_ACT_TEMP_H            EQU   244CH
  978:		N      244C	CH25H                       EQU   244CH
  979:
  980:		N      244D	ZONE6_ACT_TEMP_L            EQU   244DH
  981:		N      244D	CH25L                       EQU   244DH
  982:
  983:		N      244E	ZONE7_ACT_TEMP_H            EQU   244EH
  984:		N      244E	CH26H                       EQU   244EH
  985:
  986:		N      244F	ZONE7_ACT_TEMP_L            EQU   244FH
  987:		N      244F	CH26L                       EQU   244FH
  988:
  989:
  990:		N      2480	TMS20H                      EQU   2480H
  991:		N      2481	TMS20L                      EQU   2481H
  992:
  993:		N      2482	TMS21H                      EQU   2482H
  994:		N      2483	TMS21L                      EQU   2483H

ASEM-51 V1.3                                        Copyright (c) 2002 by W.W. Heinz                                         PAGE 19



 Line  I  Addr  Code            Source

  995:
  996:		N      2484	TMS22H                      EQU   2484H
  997:		N      2485	TMS22L                      EQU   2485H
  998:
  999:		N      2486	TMS23H                      EQU   2486H
 1000:		N      2487	TMS23L                      EQU   2487H
 1001:
 1002:		N      2488	TMS24H                      EQU   2488H
 1003:		N      2489	TMS24L                      EQU   2489H
 1004:
 1005:		N      248A	TMS25H                      EQU   248AH
 1006:		N      248B	TMS25L                      EQU   248BH
 1007:
 1008:		N      248C	TMS26H                      EQU   248CH
 1009:		N      248D	TMS26L                      EQU   248DH
 1010:
 1011:		N      248E	TMS27H                      EQU   248EH
 1012:		N      248F	TMS27L                      EQU   248FH
 1013:
 1014:		N      2490	TMS40H                      EQU   2490H         ;ERROR TIMER STARTS FROM TM40
 1015:		N      2491	TMS40L                      EQU   2491H
 1016:
 1017:		N      2492	TMS41H                      EQU   2492H
 1018:		N      2493	TMS41L                      EQU   2493H
 1019:
 1020:		N      2494	TMS42H                      EQU   2494H
 1021:		N      2495	TMS42L                      EQU   2495H
 1022:
 1023:		N      2496	TMS43H                      EQU   2496H
 1024:		N      2497	TMS43L                      EQU   2497H
 1025:				;--------------------------------------------------------------------
 1026:		N      24A0	TMS28H                      EQU   24A0H
 1027:		N      24A1	TMS28L                      EQU   24A1H
 1028:
 1029:		N      24A2	TMS29H                      EQU   24A2H
 1030:		N      24A3	TMS29L                      EQU   24A3H
 1031:
 1032:		N      24A4	TMS30H                      EQU   24A4H
 1033:		N      24A5	TMS30L                      EQU   24A5H
 1034:
 1035:		N      24A6	TMS31H                      EQU   24A6H
 1036:		N      24A7	TMS31L                      EQU   24A7H
 1037:
 1038:		N      24A8	TMS32H                      EQU   24A8H
 1039:		N      24A9	TMS32L                      EQU   24A9H
 1040:
 1041:		N      24AA	TMS33H                      EQU   24AAH
 1042:		N      24AB	TMS33L                      EQU   24ABH
 1043:				;-----------------------------------------------------------------------
 1044:
 1045:		N      24AC	TMC28H                      EQU   24ACH
 1046:		N      24AD	TMC28L                      EQU   24ADH
 1047:
 1048:		N      24AE	TMC29H                      EQU   24AEH
 1049:		N      24AF	TMC29L                      EQU   24AFH
 1050:

ASEM-51 V1.3                                        Copyright (c) 2002 by W.W. Heinz                                         PAGE 20



 Line  I  Addr  Code            Source

 1051:		N      24B0	TMC30H                      EQU   24B0H         ;ERROR TIMER STARTS FROM TM40
 1052:		N      24B1	TMC30L                      EQU   24B1H
 1053:
 1054:		N      24B2	TMC31H                      EQU   24B2H
 1055:		N      24B3	TMC31L                      EQU   24B3H
 1056:
 1057:		N      24B4	TMC32H                      EQU   24B4H
 1058:		N      24B5	TMC32L                      EQU   24B5H
 1059:
 1060:		N      24B6	TMC100H                     EQU   24B6H  ;2652
 1061:		N      24B7	TMC100L                     EQU   24B7H
 1062:
 1063:		N      24B8	TMC101H                     EQU   24B8H   ;2653
 1064:		N      24B9	TMC101L                     EQU   24B9H
 1065:
 1066:		N      24BA	TMC102H                     EQU   24BAH   ;2654
 1067:		N      24BB	TMC102L                     EQU   24BBH
 1068:
 1069:		N      24BC	TMC103H                     EQU   24BCH   ;2655
 1070:		N      24BD	TMC103L                     EQU   24BDH
 1071:
 1072:		N      24BE	TMC104H                     EQU   24BEH   ;2656
 1073:		N      24BF	TMC104L                     EQU   24BFH
 1074:
 1075:		N      24C0	TMC105H                     EQU   24C0H     ;2657
 1076:		N      24C1	TMC105L                     EQU   24C1H
 1077:
 1078:		N      24C2	TMC106H                     EQU   24C2H     ;2658
 1079:		N      24C3	TMC106L                     EQU   24C3H
 1080:
 1081:		N      24C4	TMC107H                     EQU   24C4H    ;2659
 1082:		N      24C5	TMC107L                     EQU   24C5H
 1083:
 1084:				;-----------------------------------------------------------
 1085:		N      24C6	TMC33H                      EQU   24C6H
 1086:		N      24C7	TMC33L                      EQU   24C7H
 1087:
 1088:		N      24C8	TMC34H                      EQU   24C8H
 1089:		N      24C9	TMC34L                      EQU   24C9H
 1090:
 1091:		N      24CA	ZONE1_PREV_H                EQU   24CAH    ;2678
 1092:		N      24CB	ZONE1_PREV_L                EQU   24CBH
 1093:
 1094:
 1095:				;----------------------------------------------------------
 1096:		N      24E8	TMC120H                     EQU   24E8H   ;2677
 1097:		N      24E9	TMC120L                     EQU   24E9H
 1098:
 1099:		N      24EA	TMC121H                     EQU   24EAH   ;2678
 1100:		N      24EB	TMC121L                     EQU   24EBH
 1101:
 1102:		N      24EC	TMC122H                     EQU   24ECH   ;2679
 1103:		N      24ED	TMC122L                     EQU   24EDH
 1104:
 1105:		N      24EE	TMC123H                     EQU   24EEH   ;2680
 1106:		N      24EF	TMC123L                     EQU   24EFH

ASEM-51 V1.3                                        Copyright (c) 2002 by W.W. Heinz                                         PAGE 21



 Line  I  Addr  Code            Source

 1107:
 1108:		N      24F0	TMC124H                     EQU   24F0H   ;2681
 1109:		N      24F1	TMC124L                     EQU   24F1H
 1110:
 1111:		N      24F2	TMC125H                     EQU   24F2H   ;2682
 1112:		N      24F3	TMC125L                     EQU   24F3H
 1113:
 1114:		N      24F4	TMC126H                     EQU   24F4H   ;2683
 1115:		N      24F5	TMC126L                     EQU   24F5H
 1116:
 1117:		N      24F6	TMC127H                     EQU   24F6H   ;2684
 1118:		N      24F7	TMC127L                     EQU   24F7H
 1119:				;------------------------------------------
 1120:				;TMC120H                     EQU   24CAH
 1121:				;TMC120L                     EQU   24CBH
 1122:
 1123:				;TMC121H                     EQU   24CEH
 1124:				;TMC121L                     EQU   24CFH
 1125:
 1126:				;TMC120H                     EQU   24CAH
 1127:				;TMC120L                     EQU   24CBH
 1128:
 1129:				;TMC121H                     EQU   24CEH
 1130:				;TMC121L                     EQU   24CFH
 1131:
 1132:
 1133:
 1134:
 1135:
 1136:				;--------------------------------------------------------------
 1137:				;DATA REG END ADDRESS IS 5E1E. START ADDRESS OF BIT IS 05F00H
 1138:				;--------------------------------------------------------------
 1139:		N      5F00	BIT_START_ADDRESS           EQU    05F00H
 1140:
 1141:
 1142:		N      5F00	OUTPUT00_07                 EQU    05F00H
 1143:		N      00E0	OUT00                       EQU    0E0H
 1144:		N      00E1	OUT01                       EQU    0E1H
 1145:		N      00E2	OUT02                       EQU    0E2H
 1146:		N      00E3	OUT03                       EQU    0E3H
 1147:		N      00E4	OUT04                       EQU    0E4H
 1148:		N      00E5	OUT05                       EQU    0E5H
 1149:		N      00E6	OUT06                       EQU    0E6H
 1150:		N      00E7	OUT07                       EQU    0E7H
 1151:
 1152:
 1153:		N      5F01	OUTPUT08_15                 EQU    05F01H
 1154:		N      00E0	OUT08                       EQU    0E0H
 1155:		N      00E1	OUT09                       EQU    0E1H
 1156:		N      00E2	OUT10                       EQU    0E2H
 1157:		N      00E3	OUT11                       EQU    0E3H
 1158:		N      00E4	OUT12                       EQU    0E4H
 1159:		N      00E5	OUT13                       EQU    0E5H
 1160:		N      00E6	OUT14                       EQU    0E6H
 1161:		N      00E7	OUT15                       EQU    0E7H
 1162:				;---------------------------------------------

ASEM-51 V1.3                                        Copyright (c) 2002 by W.W. Heinz                                         PAGE 22



 Line  I  Addr  Code            Source

 1163:		N      5F02	OUTPUT16_23                 EQU    05F02H
 1164:		N      00E0	OUT16                       EQU    0E0H
 1165:		N      00E1	OUT17                       EQU    0E1H
 1166:		N      00E2	OUT18                       EQU    0E2H
 1167:		N      00E3	OUT19                       EQU    0E3H
 1168:		N      00E4	OUT20                       EQU    0E4H
 1169:		N      00E5	OUT21                       EQU    0E5H
 1170:		N      00E6	OUT22                       EQU    0E6H
 1171:		N      00E7	OUT23                       EQU    0E7H
 1172:
 1173:				;---------------------------------------------------------------------------
 1174:				;BATTERY BACKUP BITS ARE FROM 513 TO 1537 (1024 BITS ARE BATTERY BACKUP
 1175:				;---------------------------------------------------------------------------
 1176:		N      5F40	FLAG_ADDRESS_RLY512          EQU    05F40H                       ;05F00H
 1177:				;---------------------------------------------------------------------------
 1178:		N      5F40	RLY512_519                   EQU    05F40H
 1179:
 1180:		N      00E0	RLY512                       EQU    0E0H
 1181:		N      00E0	BLOW_PIN_HYDRA               EQU    0E0H
 1182:
 1183:		N      00E1	RLY513                       EQU    0E1H
 1184:		N      00E2	RLY514                       EQU    0E2H
 1185:		N      00E3	RLY515                       EQU    0E3H
 1186:		N      00E4	RLY516                       EQU    0E4H
 1187:		N      00E5	RLY517                       EQU    0E5H
 1188:		N      00E6	RLY518                       EQU    0E6H
 1189:		N      00E7	RLY519                       EQU    0E7H
 1190:				;----------------------------------------------------------------------------
 1191:		N      5F41	RLY520_527                   EQU    05F41H
 1192:
 1193:		N      00E0	RLY520                       EQU    0E0H
 1194:		N      00E1	RLY521                       EQU    0E1H
 1195:		N      00E2	RLY522                       EQU    0E2H
 1196:		N      00E3	RLY523                       EQU    0E3H
 1197:		N      00E4	RLY524                       EQU    0E4H
 1198:		N      00E5	RLY525                       EQU    0E5H
 1199:		N      00E6	RLY526                       EQU    0E6H
 1200:		N      00E6	PROD_CNT_RST                 EQU    0E6H
 1201:
 1202:		N      00E7	RLY527                       EQU    0E7H
 1203:				;----------------------------------------------------------------------------
 1204:				;DISPLAY PUSH BUTTONS FOR MANUAL OPERATION
 1205:				;----------------------------------------------------------------------------
 1206:		N      5F42	RLY528_535                   EQU    05F42H
 1207:
 1208:		N      00E0	RLY528                       EQU    0E0H
 1209:		N      00E0	MOULD_CLOSE_PB               EQU    0E0H
 1210:				;---------------------------------------
 1211:		N      00E1	RLY529                       EQU    0E1H
 1212:		N      00E1	MOULD_OPEN_PB                EQU    0E1H
 1213:				;---------------------------------------
 1214:		N      00E2	RLY530                       EQU    0E2H
 1215:		N      00E2	BLOW_PIN_DN_PB               EQU    0E2H
 1216:				;---------------------------------------
 1217:		N      00E3	RLY531                       EQU    0E3H
 1218:		N      00E3	MOULD_IN_PB                  EQU    0E3H

ASEM-51 V1.3                                        Copyright (c) 2002 by W.W. Heinz                                         PAGE 23



 Line  I  Addr  Code            Source

 1219:				;---------------------------------------
 1220:		N      00E4	RLY532                       EQU    0E4H
 1221:		N      00E4	MOULD_OUT_PB                 EQU    0E4H
 1222:				;---------------------------------------
 1223:		N      00E5	RLY533                       EQU    0E5H
 1224:		N      00E5	CUTTER1_PB                   EQU    0E5H
 1225:				;---------------------------------------
 1226:		N      00E6	RLY534                       EQU    0E6H
 1227:		N      00E6	BLOWING_PB                   EQU    0E6H
 1228:				;---------------------------------------
 1229:		N      00E7	RLY535                       EQU    0E7H
 1230:		N      00E7	CUTTER2_PB                   EQU    0E7H
 1231:				;----------------------------------------------------------------------------
 1232:
 1233:		N      5F43	RLY536_543                   EQU    05F43H
 1234:
 1235:		N      00E0	RLY536                       EQU    0E0H
 1236:		N      00E0	AUTO_MAN_SEL_BIT             EQU    0E0H
 1237:				;---------------------------------------
 1238:		N      00E1	RLY537                       EQU    0E1H
 1239:		N      00E1	HEATER_ON_OFF_BIT            EQU    0E1H
 1240:				;---------------------------------------
 1241:		N      00E2	RLY538                       EQU    0E2H
 1242:		N      00E2	DOUBLE_CUT_SEL_BIT           EQU    0E2H
 1243:				;---------------------------------------
 1244:		N      00E3	RLY539                       EQU    0E3H
 1245:		N      00E3	LOCKING_SEL_BIT              EQU    0E3H
 1246:				;---------------------------------------
 1247:		N      00E4	RLY540                       EQU    0E4H
 1248:		N      00E4	EXTRUDER_ON                  EQU    0E4H
 1249:				;---------------------------------------
 1250:		N      00E5	RLY541                       EQU    0E5H
 1251:		N      00E5	SEALING_SEL                  EQU    0E5H
 1252:				;---------------------------------------
 1253:		N      00E6	RLY542                       EQU    0E6H
 1254:		N      00E6	EXTRUDER_OFF                 EQU    0E6H
 1255:				;---------------------------------------
 1256:		N      00E7	RLY543                       EQU    0E7H
 1257:
 1258:				;----------------------------------------------------------------------------
 1259:
 1260:		N      5F44	RLY544_551                   EQU    05F44H
 1261:
 1262:		N      00E0	RLY544                       EQU    0E0H
 1263:		N      00E0	SEALING_PB                   EQU    0E0H
 1264:				;---------------------------------------
 1265:
 1266:		N      00E1	RLY545                       EQU    0E1H
 1267:		N      00E1	BLOW_PINUP_PB                EQU    0E1H
 1268:
 1269:		N      00E2	RLY546                       EQU    0E2H
 1270:		N      00E2	SMALL_PUMP_PB                EQU    0E2H
 1271:
 1272:		N      00E3	RLY547                       EQU    0E3H
 1273:		N      00E3	BIG_PUMP_PB                  EQU    0E3H
 1274:

ASEM-51 V1.3                                        Copyright (c) 2002 by W.W. Heinz                                         PAGE 24



 Line  I  Addr  Code            Source

 1275:		N      00E4	RLY548                       EQU    0E4H
 1276:		N      00E4	PARISON_THIN_PB              EQU    0E4H
 1277:
 1278:
 1279:		N      00E5	RLY549                       EQU    0E5H
 1280:		N      00E5	PARISON_THICK_PB             EQU    0E5H
 1281:
 1282:
 1283:		N      00E6	RLY550                       EQU    0E6H
 1284:		N      00E6	PARISON_SEL_BIT              EQU    0E6H
 1285:
 1286:
 1287:		N      00E7	RLY551                       EQU    0E7H
 1288:
 1289:
 1290:				;-----------------------------------------------------------------------------
 1291:		N      5F45	RLY552_559                   EQU    05F45H
 1292:
 1293:		N      00E0	RLY552                       EQU    0E0H
 1294:		N      00E0	ZONE1_SEL                    EQU    0E0H
 1295:				;---------------------------------------
 1296:		N      00E1	RLY553                       EQU    0E1H
 1297:		N      00E1	ZONE2_SEL                    EQU    0E1H
 1298:				;---------------------------------------
 1299:		N      00E2	RLY554                       EQU    0E2H
 1300:		N      00E2	ZONE3_SEL                    EQU    0E2H
 1301:				;---------------------------------------
 1302:		N      00E3	RLY555                       EQU    0E3H
 1303:		N      00E3	ZONE4_SEL                    EQU    0E3H
 1304:				;---------------------------------------
 1305:		N      00E4	RLY556                       EQU    0E4H
 1306:		N      00E4	ZONE5_SEL                    EQU    0E4H
 1307:				;---------------------------------------
 1308:		N      00E5	RLY557                       EQU    0E5H
 1309:		N      00E5	ZONE6_SEL                    EQU    0E5H
 1310:				;---------------------------------------
 1311:		N      00E6	RLY558                       EQU    0E6H
 1312:		N      00E6	ZONE7_SEL                    EQU    0E6H
 1313:				;---------------------------------------
 1314:		N      00E7	RLY559                       EQU    0E7H
 1315:		N      00E7	ZONE8_SEL                    EQU    0E7H
 1316:				;-----------------------------------------------------------------------------
 1317:
 1318:		N      5F46	RLY560_567                   EQU    05F46H
 1319:
 1320:
 1321:
 1322:
 1323:		N      5F4A	RLY592_599                   EQU    05F4AH
 1324:
 1325:
 1326:
 1327:
 1328:				;--------------------------------------------------------------------------
 1329:				;NON BATTERY BACK UP BITS STARTS FROM 1538 TO 2562
 1330:				;--------------------------------------------------------------------------

ASEM-51 V1.3                                        Copyright (c) 2002 by W.W. Heinz                                         PAGE 25



 Line  I  Addr  Code            Source

 1331:		N      5FC0	NON_BAT_BACKUP_BITS          EQU    05FC0H
 1332:
 1333:
 1334:		N      5FC0	RLY1536_1543                 EQU    05FC0H
 1335:		N      5FC0	TM20_ENABLE_1                EQU    05FC0H
 1336:
 1337:		N      00E0	TM20E                        EQU    0E0H
 1338:		N      00E0	RLY1537                      EQU    0E0H
 1339:				;---------------------------------------
 1340:		N      00E1	TM20D                        EQU    0E1H
 1341:		N      00E1	RLY1538                      EQU    0E1H
 1342:				;---------------------------------------
 1343:		N      00E2	TM21E                        EQU    0E2H
 1344:		N      00E2	RLY1539                      EQU    0E2H
 1345:				;---------------------------------------
 1346:		N      00E3	TM21D                        EQU    0E3H
 1347:		N      00E3	RLY1540                      EQU    0E3H
 1348:				;---------------------------------------
 1349:		N      00E4	TM22E                        EQU    0E4H
 1350:		N      00E4	RLY1541                      EQU    0E4H
 1351:				;---------------------------------------
 1352:		N      00E5	TM22D                        EQU    0E5H
 1353:		N      00E5	RLY1542                      EQU    0E5H
 1354:				;---------------------------------------
 1355:		N      00E6	TM23E                        EQU    0E6H
 1356:		N      00E6	RLY1543                      EQU    0E6H
 1357:				;---------------------------------------
 1358:		N      00E7	TM23D                        EQU    0E7H
 1359:		N      00E7	RLY1544                      EQU    0E7H
 1360:
 1361:
 1362:				;---------------------------------------------------------------------------
 1363:		N      5FC1	RLY1544_1551                 EQU    05FC1H
 1364:		N      5FC1	TM24_ENABLE_1                EQU    05FC1H
 1365:
 1366:		N      00E0	TM24E                        EQU    0E0H
 1367:		N      00E0	RLY1545                      EQU    0E0H
 1368:				;---------------------------------------
 1369:		N      00E1	TM24D                        EQU    0E1H
 1370:		N      00E1	RLY1546                      EQU    0E1H
 1371:				;---------------------------------------
 1372:		N      00E2	TM25E                        EQU    0E2H
 1373:		N      00E2	RLY1547                      EQU    0E2H
 1374:				;---------------------------------------
 1375:		N      00E3	TM25D                        EQU    0E3H
 1376:		N      00E3	RLY1548                      EQU    0E3H
 1377:				;---------------------------------------
 1378:		N      00E4	TM26E                        EQU    0E4H
 1379:		N      00E4	RLY1549                      EQU    0E4H
 1380:				;---------------------------------------
 1381:		N      00E5	TM26D                        EQU    0E5H
 1382:		N      00E5	RLY1550                      EQU    0E5H
 1383:				;---------------------------------------
 1384:		N      00E6	TM27E                        EQU    0E6H
 1385:		N      00E6	RLY1551                      EQU    0E6H
 1386:				;---------------------------------------

ASEM-51 V1.3                                        Copyright (c) 2002 by W.W. Heinz                                         PAGE 26



 Line  I  Addr  Code            Source

 1387:		N      00E7	TM27D                        EQU    0E7H
 1388:		N      00E7	RLY1552                      EQU    0E7H
 1389:				;----------------------------------------------------------------------------
 1390:
 1391:
 1392:
 1393:
 1394:		N      5FC2	RLY1552_1559                 EQU    05FC2H
 1395:		N      5FC2	TM28_ENABLE_1                EQU    05FC2H
 1396:
 1397:
 1398:		N      00E0	TM28E                        EQU    0E0H
 1399:		N      00E0	RLY1553                      EQU    0E0H
 1400:				;---------------------------------------
 1401:		N      00E1	TM28D                        EQU    0E1H
 1402:		N      00E1	RLY1554                      EQU    0E1H
 1403:				;---------------------------------------
 1404:		N      00E2	TM29E                        EQU    0E2H
 1405:		N      00E2	RLY1555                      EQU    0E2H
 1406:				;---------------------------------------
 1407:		N      00E3	TM29D                        EQU    0E3H
 1408:		N      00E3	RLY1556                      EQU    0E3H
 1409:				;---------------------------------------
 1410:		N      00E4	TM30E                        EQU    0E4H
 1411:		N      00E4	RLY1557                      EQU    0E4H
 1412:				;---------------------------------------
 1413:		N      00E5	TM30D                        EQU    0E5H
 1414:		N      00E5	RLY1558                      EQU    0E5H
 1415:				;---------------------------------------
 1416:		N      00E6	TM31E                        EQU    0E6H
 1417:		N      00E6	RLY1559                      EQU    0E6H
 1418:				;---------------------------------------
 1419:		N      00E7	TM31D                        EQU    0E7H
 1420:		N      00E7	RLY1560                      EQU    0E7H
 1421:				;---------------------------------------------------------------------------
 1422:
 1423:
 1424:		N      5FC3	RLY1560_1567                 EQU    05FC3H
 1425:		N      5FC3	TM40_ENABLE_1                EQU    05FC3H
 1426:
 1427:		N      00E0	TM40E                        EQU    0E0H
 1428:		N      00E1	TM40D                        EQU    0E1H
 1429:		N      00E2	TM41E                        EQU    0E2H
 1430:		N      00E3	TM41D                        EQU    0E3H
 1431:		N      00E4	TM42E                        EQU    0E4H
 1432:		N      00E5	TM42D                        EQU    0E5H
 1433:		N      00E6	TM43E                        EQU    0E6H
 1434:		N      00E7	TM43D                        EQU    0E7H
 1435:
 1436:
 1437:		N      5FC4	ALARM_BIT_1_H                EQU    05FC4H
 1438:		N      5FC4	RLY1568_1575                 EQU    05FC4H
 1439:
 1440:		N      5FC5	ALARM_BIT_1_L                EQU    05FC5H
 1441:		N      5FC5	RLY1576_1583                 EQU    05FC5H
 1442:

ASEM-51 V1.3                                        Copyright (c) 2002 by W.W. Heinz                                         PAGE 27



 Line  I  Addr  Code            Source

 1443:
 1444:		N      5FC6	TM104_ENABLE           EQU   05FC6H
 1445:		N      5FC6	RLY1584_1591           EQU   05FC6H
 1446:
 1447:		N      00E0	TM104E                  EQU   0E0H
 1448:		N      00E0	BLOWPINUP_DELAY_TM104E  EQU   0E0H
 1449:
 1450:		N      00E1	TM104D                  EQU   0E1H
 1451:		N      00E1	BLOWPINUP_DELAY_TM104D  EQU   0E1H
 1452:
 1453:		N      00E2	TM105E                  EQU   0E2H
 1454:		N      00E2	MOULD_OPEN_SLOW_TM105E  EQU   0E2H
 1455:
 1456:		N      00E3	TM105D                  EQU   0E3H
 1457:		N      00E3	MOULD_OPEN_SLOW_TM105D  EQU   0E3H
 1458:
 1459:
 1460:		N      00E4	TM106E                 EQU   0E4H
 1461:		N      00E5	TM106D                 EQU   0E5H
 1462:		N      00E6	TM107E                 EQU   0E6H
 1463:		N      00E7	TM107D                 EQU   0E7H
 1464:				;------------------------------------------
 1465:		N      5FC7	TM32_ENABLE_1                EQU   05FC7H
 1466:
 1467:
 1468:		N      00E0	TM32E                        EQU    0E0H
 1469:		N      00E1	TM32D                        EQU    0E1H
 1470:		N      00E2	TM33E                        EQU    0E2H
 1471:		N      00E3	TM33D                        EQU    0E3H
 1472:
 1473:				;--------------------------------------------
 1474:		N      5FCA	TM120_ENABLE_1         EQU   05FCAH
 1475:
 1476:		N      00E0	TM120E                 EQU   0E0H
 1477:		N      00E0	PARISON1_DLY_E         EQU   0E0H
 1478:
 1479:		N      00E1	TM120D                 EQU   0E1H
 1480:		N      00E1	PARISON1_DLY_D         EQU   0E1H
 1481:
 1482:		N      00E2	TM121E                 EQU   0E2H
 1483:		N      00E2	PARISON1_TIM_E         EQU   0E2H
 1484:
 1485:		N      00E3	TM121D                 EQU   0E3H
 1486:		N      00E3	PARISON1_TIM_D         EQU   0E3H
 1487:
 1488:		N      00E4	TM122E                 EQU   0E4H
 1489:		N      00E4	PARISON2_DLY_E         EQU   0E4H
 1490:
 1491:		N      00E5	TM122D                 EQU   0E5H
 1492:		N      00E5	PARISON2_DLY_D         EQU   0E5H
 1493:
 1494:		N      00E6	TM123E                 EQU   0E6H
 1495:		N      00E6	PARISON2_TIM_E         EQU   0E6H
 1496:
 1497:		N      00E7	TM123D                 EQU   0E7H
 1498:		N      00E7	PARISON2_TIM_D         EQU   0E7H

ASEM-51 V1.3                                        Copyright (c) 2002 by W.W. Heinz                                         PAGE 28



 Line  I  Addr  Code            Source

 1499:
 1500:				;----------------------------------------------------
 1501:		N      5FCB	TM124_ENABLE_1         EQU   05FCBH
 1502:
 1503:		N      00E0	TM124E                 EQU   0E0H
 1504:		N      00E0	PARISON3_DLY_E         EQU   0E0H
 1505:
 1506:		N      00E1	TM124D                 EQU   0E1H
 1507:		N      00E1	PARISON3_DLY_D         EQU   0E1H
 1508:
 1509:		N      00E2	TM125E                 EQU   0E2H
 1510:		N      00E2	PARISON3_TIM_E         EQU   0E2H
 1511:
 1512:		N      00E3	TM125D                 EQU   0E3H
 1513:		N      00E3	PARISON3_TIM_D         EQU   0E3H
 1514:
 1515:		N      00E4	TM126E                 EQU   0E4H
 1516:		N      00E4	PARISON4_DLY_E         EQU   0E4H
 1517:
 1518:		N      00E5	TM126D                 EQU   0E5H
 1519:		N      00E5	PARISON4_DLY_D         EQU   0E5H
 1520:
 1521:		N      00E6	TM127E                 EQU   0E6H
 1522:		N      00E6	PARISON4_TIM_E         EQU   0E6H
 1523:
 1524:		N      00E7	TM127D                 EQU   0E7H
 1525:		N      00E7	PARISON4_TIM_D         EQU   0E7H
 1526:
 1527:
 1528:
 1529:				;-----------------------------------------------------------------------------------------------
 1530:				;FIXED CHARACTER DEFINITION
 1531:				;-------------------------------------------------------------------------------------------------
 1532:
 1533:		N      000D	END_CHARACTER_1     EQU   0DH                            ;5AH
 1534:		N      000A	END_CHARACTER_2     EQU   0AH
 1535:		N      003A	HEADER              EQU   3AH
 1536:				;-----------------------------------------------------------------------------------------------
 1537:
 1538:		N      0000		org	0000h
 1539:	  0000	02 00 92		LJMP  MAIN                     ;	main
 1540:
 1541:
 1542:		N      000B		ORG     000BH
 1543:	  000B	02 00 61		LJMP    ISR_T0          ;	isr_t0		;timer0 interrupt
 1544:
 1545:		N      0023		ORG	0023H
 1546:	  0023	02 07 30		LJMP	SERIAL		;serial interrupt
 1547:
 1548:				;-----------------------------------------------------------------------------------------------
 1549:				;initialises stack pointer,bits & bytes variables
 1550:				;-----------------------------------------------------------------------------------------------
 1551:
 1552:	  0026			   init:
 1553:
 1554:	  0026	75 A8 00		mov	ie,#00h				;interrupt enable reg.=00h

ASEM-51 V1.3                                        Copyright (c) 2002 by W.W. Heinz                                         PAGE 29



 Line  I  Addr  Code            Source

 1555:	  0029	75 89 00		mov	tmod,#00h			;timer mode control reg.=00h
 1556:	  002C	75 88 00		mov	tcon,#00h			;timer control=00h
 1557:	  002F	75 98 00		mov	scon,#00h			;serial port control reg.=00h
 1558:	  0032	75 8A 00		mov	tl0,#00h			;timer0=00h
 1559:	  0035	75 8C 00		mov	th0,#00h
 1560:	  0038	75 8B 00		mov	tl1,#00h			;timer1=00h
 1561:	  003B	75 8D 00		mov	th1,#00h
 1562:	  003E	75 08 00		mov	byte_cnt,#00h
 1563:	  0041	75 0F FF		mov	count_1s,#0ffh			;3.64*255*03=2784ms
 1564:	  0044	75 B8 10		mov	ip,#10h
 1565:	  0047	22		   RET
 1566:				;---------------------------------------------------
 1567:	  0048				INIT_1:
 1568:
 1569:	  0048	C2 00			clr	rcve_over
 1570:	  004A	C2 01			clr	trans_over
 1571:	  004C	C2 05			clr	last_byte
 1572:	  004E	C2 06			clr	delay_over
 1573:	  0050	22		   RET
 1574:				;-----------------------------------------------------------------------------------------------
 1575:				;initialises timer0 for time interval of 3.5 char
 1576:				;-----------------------------------------------------------------------------------------------
 1577:				;--------------------------------------------------------------------
 1578:				;(89h)
 1579:				;TMOD-->GATE, C/T, M1,	M0, GATE, C/T, M1, M0, T/C (timer1,timer0)
 1580:				;init timer 0  for 3.5 char time
 1581:	  0051			   init_timer0:
 1582:
 1583:	  0051	43 89 01		ORL	TMOD,#01H		;t0 in 16 bit timer mode.
 1584:	  0054	75 8A DF		MOV	TL0,#0DFH		;Init timer0 with count for 3.64 msec
 1585:	  0057	75 8C F9		MOV	TH0,#0F9H		;count=0f2dfh for 3.64msec.
 1586:	  005A	D2 8C			SETB	TR0			   ;start timer 0.
 1587:	  005C	D2 A9		   SETB	ET0			   ;enable timer 0 Interrupt.
 1588:	  005E	D2 AF			SETB	EA
 1589:	  0060	22			RET
 1590:
 1591:				;--------------------------------------------------------------------
 1592:				;isr for timer0 interrupt
 1593:				;--------------------------------------------------------------------
 1594:
 1595:	  0061			   isr_t0:
 1596:
 1597:
 1598:
 1599:	  0061	75 8A DF	   MOV   TL0,#0DFH
 1600:	  0064	75 8C F9	   MOV   TH0,#0F9H   ;FC FOR 11.0592 MHZ CRYSTAL & F9 FOR 22 MHZ CRYSTAL
 1601:	  0067	05 0A			INC   TIMECT
 1602:	  0069	05 1C			INC   SECOND_CLK
 1603:	  006B	05 37			INC   IP_DEBOUNCE
 1604:	  006D	05 38		   INC   TC_DEBOUNCE
 1605:	  006F	D5 0F 02		DJNZ	COUNT_1S,OUT_ISRT0		;3.64*255
 1606:	  0072	D2 06			SETB	DELAY_OVER			;3sec delay is over

 1607:
 1608:
 1609:	  0074			   OUT_ISRT0:

ASEM-51 V1.3                                        Copyright (c) 2002 by W.W. Heinz                                         PAGE 30



 Line  I  Addr  Code            Source

 1610:
 1611:
 1612:
 1613:	  0074	32			RETI
 1614:
 1615:				;--------------------------------------------------------------------
 1616:	  0075			   INIT_TIMER1:
 1617:
 1618:	  0075	43 89 20		ORL	  TMOD,#20H  		;t1 in 8 bit auto reload mode.
 1619:	  0078	75 8D FD		MOV     TH1,#0FDH               ;init. TH1 with count for
 1620:									;9600 baud (11.059MHz)
 1621:	  007B	D2 8E			SETB    TR1                     ;Start timer 1 (baud rate)
 1622:	  007D	22			RET
 1623:
 1624:				;-----------------------------------------------------------------------------------------------
 1625:				;initialises to receive data on serial port
 1626:				;-----------------------------------------------------------------------------------------------
 1627:
 1628:	  007E			   init_rcve:
 1629:
 1630:	  007E	75 98 50	   MOV	SCON,#50H       			;mode-1,8-bit,ren enabled
 1631:	  0081	43 A8 90		ORL	IE,#10010000B			;enable serial interrupt
 1632:
 1633:	  0084	12 00 75		LCALL	INIT_TIMER1
 1634:	  0087	22		   RET
 1635:
 1636:				;-----------------------------------------------------------------------------------------------
 1637:				;initialises to xmit data on serial port
 1638:				;-----------------------------------------------------------------------------------------------
 1639:
 1640:	  0088			   INIT_XMIT:
 1641:
 1642:	  0088	75 98 40		MOV	SCON,#40H			;mode1,8-bit,ren disabled
 1643:	  008B	43 A8 90		ORL	IE,#10010000B			;enable serial interrupt
 1644:	  008E	12 00 75	   LCALL	INIT_TIMER1
 1645:	  0091	22			RET
 1646:
 1647:				;-----------------------------------------------------------------------------------------------
 1648:				;POWER ON INITALISATION
 1649:				;-----------------------------------------------------------------------------------------------
 1650:	  0092			   MAIN:
 1651:
 1652:	  0092	75 81 E0		MOV	 SP,#0E0H
 1653:	  0095	75 8E 03	   MOV    8EH,#03
 1654:
 1655:	  0098	74 00		   MOV    A,#0
 1656:	  009A	90 23 05	   MOV    DPTR,#CTC02L
 1657:	  009D	F0			MOVX   @DPTR,A
 1658:
 1659:
 1660:	  009E	E5 36		   MOV    A,POWER_ON_STATE
 1661:	  00A0	B4 55 02	   CJNE   A,#55H,WDT_RST_NOT_ENAB
 1662:	  00A3	80 38		   SJMP   WDT_RST_BYPASS
 1663:
 1664:	  00A5			   WDT_RST_NOT_ENAB:
 1665:

ASEM-51 V1.3                                        Copyright (c) 2002 by W.W. Heinz                                         PAGE 31



 Line  I  Addr  Code            Source

 1666:	  00A5	90 5F 00	   MOV    DPTR,#OUTPUT00_07
 1667:	  00A8	74 00		   MOV    A,#0
 1668:	  00AA	F0		   MOVX   @DPTR,A
 1669:	  00AB	90 E8 00	   MOV    DPTR,#OUTPUT_ADDRESS
 1670:	  00AE	F0		   MOVX   @DPTR,A
 1671:
 1672:	  00AF	78 00		   MOV    R0,#0
 1673:	  00B1	7F FF		   MOV    R7,#255
 1674:	  00B3	74 00		   MOV    A,#0
 1675:
 1676:	  00B5			   CLEAR_NXT_INT_RAM:
 1677:
 1678:	  00B5	F6		   MOV    @R0,A
 1679:	  00B6	08		   INC    R0
 1680:	  00B7	DF FC		   DJNZ   R7,CLEAR_NXT_INT_RAM
 1681:
 1682:
 1683:
 1684:				;----------------------------------------------------------------------------------------------
 1685:				;RESET ALL NON BATTERY BACKUP BITS
 1686:				;128 BYTES CORRESPOND TO 1024 BITS 128X8
 1687:				;----------------------------------------------------------------------------------------------
 1688:	  00B9	7D 80		   MOV    R5,#128
 1689:	  00BB	90 5F C0	   MOV    DPTR,#RLY1536_1543   ;NON BATTERY BACKUP FLAG ADDRESS STARTS HERE
 1690:
 1691:	  00BE			   NON_BATT_BITS:
 1692:
 1693:	  00BE	F0		   MOVX   @DPTR,A
 1694:	  00BF	A3		   INC    DPTR
 1695:	  00C0	DD FC		   DJNZ   R5,NON_BATT_BITS
 1696:				;-----------------------------------------------------------
 1697:				;NON BATTERY BACK UP WORDS ARE SET TO 0 ON POWER ON
 1698:				;-----------------------------------------------------------
 1699:	  00C2	90 23 88	   MOV    DPTR,#NON_BATBACKUP_WORDS
 1700:	  00C5	74 00		   MOV    A,#0H
 1701:
 1702:	  00C7	7E 04		   MOV    R6,#4
 1703:
 1704:	  00C9			   NEXT_LOCN1:
 1705:
 1706:	  00C9	7D FA		   MOV    R5,#250
 1707:
 1708:	  00CB			   NEXT_LOCN:
 1709:
 1710:	  00CB	F0		   MOVX   @DPTR,A
 1711:	  00CC	A3		   INC    DPTR
 1712:	  00CD	DD FC		   DJNZ   R5,NEXT_LOCN
 1713:	  00CF	DE F8		   DJNZ   R6,NEXT_LOCN1
 1714:				;-------------------------------------------
 1715:				;POWER ON RESET OF CERTAIN BITS
 1716:				;-------------------------------------------
 1717:
 1718:
 1719:	  00D1	90 5F 43	  	 MOV   DPTR,#RLY536_543
 1720:	  00D4	E0		    MOVX  A,@DPTR
 1721:	  00D5	C3		    CLR   C

ASEM-51 V1.3                                        Copyright (c) 2002 by W.W. Heinz                                         PAGE 32



 Line  I  Addr  Code            Source

 1722:	  00D6	92 E0		    MOV   AUTO_MAN_SEL_BIT,C
 1723:	  00D8	92 E1		    MOV   HEATER_ON_OFF_BIT,C
 1724:	  00DA	92 E4		    MOV   EXTRUDER_ON,C
 1725:	  00DC	F0		    MOVX  @DPTR,A
 1726:
 1727:	  00DD			    WDT_RST_BYPASS:
 1728:				;-----------------------------------------------------------------
 1729:	  00DD	12 00 26	   LCALL  INIT
 1730:	  00E0	12 00 51	   LCALL	 INIT_TIMER0
 1731:				;----------------------------------------------------------------------------------------------
 1732:				;SERIAL INITALISATION
 1733:				;----------------------------------------------------------------------------------------------
 1734:	  00E3			   MAIN_LOOP:
 1735:
 1736:	  00E3	12 06 F5	   LCALL  INITALISE_RECEIVE
 1737:				;------------------------------------------------------------------
 1738:				;START OF MAIN PROGRAM
 1739:				;-----------------------------------------------------------------
 1740:
 1741:	  00E6			   MAIN_ROUTINE:
 1742:
 1743:	  00E6	75 36 55	   MOV    POWER_ON_STATE,#55H
 1744:
 1745:	  00E9	12 06 E3	   LCALL  CHECK_SERIAL_COMMUNICATION
 1746:	  00EC	12 1B 25	   LCALL  LADDER_INIT_2
 1747:	  00EF	12 09 3A	   LCALL  RESET_WATCHDOG
 1748:	  00F2	12 08 A6	   LCALL  READ_INPUTS
 1749:	  00F5	12 09 41	   LCALL  TMR_HANDLER
 1750:	  00F8	12 09 3A	   LCALL  RESET_WATCHDOG
 1751:	  00FB	12 25 D7	   LCALL  CTR_HANDLER
 1752:	  00FE	12 1B 6D	   LCALL  LADDER
 1753:	  0101	12 06 E3		LCALL  CHECK_SERIAL_COMMUNICATION
 1754:	  0104	12 09 3A		LCALL  RESET_WATCHDOG
 1755:	  0107	12 08 7B		LCALL  LOAD_OUTPUT
 1756:	  010A	12 27 05	   LCALL  PROD_COUNTER
 1757:				;----------------------------
 1758:	  010D	E5 38		   MOV    A,TC_DEBOUNCE
 1759:	  010F	C3		  	CLR    C
 1760:	  0110	94 60		  	SUBB   A,#96
 1761:	  0112	50 0F		  	JNC    NOT_MY_SCAN_TC
 1762:	  0114	75 38 00	  	MOV    TC_DEBOUNCE,#0
 1763:	  0117	12 08 D3	   LCALL  READ_ADC
 1764:	  011A	12 1F B9	   LCALL  ZONE_DISPLAY
 1765:	  011D	12 20 C0	   LCALL  CONTROL_TEMP
 1766:	  0120	12 24 0E	   LCALL  BLOWER_OP
 1767:				;-----------------------------
 1768:	  0123			   NOT_MY_SCAN_TC:
 1769:
 1770:	  0123	12 09 3A		LCALL  RESET_WATCHDOG
 1771:	  0126	12 23 05		LCALL  LOW_LIMIT_CHK
 1772:	  0129	12 24 99		LCALL  CHECK_ALARAM
 1773:				;------------------------------------
 1774:	  012C	90 23 CA	   MOV    DPTR,#ALARM_1_H
 1775:	  012F	E0		   MOVX   A,@DPTR
 1776:	  0130	90 5F C4	   MOV    DPTR,#ALARM_BIT_1_H
 1777:	  0133	F0		   MOVX   @DPTR,A

ASEM-51 V1.3                                        Copyright (c) 2002 by W.W. Heinz                                         PAGE 33



 Line  I  Addr  Code            Source

 1778:
 1779:	  0134	90 23 CB	   MOV    DPTR,#ALARM_1_L
 1780:	  0137	E0		   MOVX   A,@DPTR
 1781:	  0138	90 5F C5	   MOV    DPTR,#ALARM_BIT_1_L
 1782:	  013B	F0		   MOVX   @DPTR,A
 1783:				;-------------------------------------
 1784:
 1785:	  013C	D2 07			SETB   B_FIRST_CYCLE
 1786:	  013E	20 06 A2		JB	    DELAY_OVER,MAIN_LOOP
 1787:	  0141	D2 07		   SETB   B_FIRST_CYCLE
 1788:				;------------------------------------------
 1789:				;WATCHDOG TEST PROGRAM
 1790:				;-----------------------------------------
 1791:				;	MOV    DPTR,#CTC02L
 1792:				;	MOVX   A,@DPTR
 1793:				;	CJNE   A,#05,DO_NOT_HANG_UP
 1794:
 1795:				;	HANG_UP:
 1796:
 1797:				;	SJMP   HANG_UP
 1798:
 1799:
 1800:				;	DO_NOT_HANG_UP:
 1801:				;-------------------------------------------
 1802:	  0143	02 00 E6		LJMP   MAIN_ROUTINE

 1803:
 1804:	  0146				DOWN:
 1805:
 1806:	  0146				TRANSMIT:
 1807:
 1808:	  0146	C2 AC			CLR    IE.4
 1809:	  0148	C2 00			CLR	 RCVE_OVER
 1810:
 1811:				  ; TRANSMIT:
 1812:
 1813:	  014A	90 04 00	   MOV    DPTR,#RX_BUF
 1814:	  014D	A3		   INC    DPTR
 1815:	  014E	A3		   INC    DPTR
 1816:	  014F	A3		   INC    DPTR
 1817:	  0150	E0		   MOVX   A,@DPTR
 1818:	  0151	B4 31 02	   CJNE   A,#31H,CHECK_QUERY_LESS_THAN_10H
 1819:	  0154	80 26		   SJMP   CHECK_FN_CODE_10_QUERY
 1820:
 1821:	  0156			   CHECK_QUERY_LESS_THAN_10H:
 1822:
 1823:	  0156	A3		   INC    DPTR
 1824:	  0157	E0		   MOVX   A,@DPTR
 1825:	  0158	B4 33 03	   CJNE   A,#33H,CHECK_FN_CODE_06_QUERY
 1826:	  015B	02 01 86	   LJMP   FN_CODE_03_REPLY
 1827:
 1828:	  015E			   CHECK_FN_CODE_06_QUERY:
 1829:
 1830:	  015E	B4 36 03	   CJNE   A,#36H,CHECK_FN_01_QUERY
 1831:	  0161	02 01 EC	   LJMP   FN_CODE_06_QUERY
 1832:

ASEM-51 V1.3                                        Copyright (c) 2002 by W.W. Heinz                                         PAGE 34



 Line  I  Addr  Code            Source

 1833:	  0164			   CHECK_FN_01_QUERY:
 1834:
 1835:	  0164	B4 31 03	   CJNE   A,#31H,CHECK_FN_CODE_02_QUERY
 1836:	  0167	02 02 4C	   LJMP   FN_CODE_01_QUERY
 1837:
 1838:	  016A			   CHECK_FN_CODE_02_QUERY:
 1839:
 1840:	  016A	B4 32 03	   CJNE   A,#32H,CHECK_FN_CODE_05_QUERY
 1841:	  016D	02 03 9B	   LJMP   FN_CODE_02_QUERY
 1842:
 1843:
 1844:	  0170			   CHECK_FN_CODE_05_QUERY:
 1845:
 1846:	  0170	B4 35 03	   CJNE   A,#35H,CHECK_FN_CODE_0F_QUERY
 1847:	  0173	02 04 EA	   LJMP   FN_CODE_05_QUERY
 1848:
 1849:	  0176			   CHECK_FN_CODE_0F_QUERY:
 1850:
 1851:	  0176	B4 46 0B	   CJNE   A,#46H,JUMP_BACK                      ;MAIN_LOOP                          ;
 1852:	  0179	02 05 B6	   LJMP   FN_CODE_0F_QUERY
 1853:
 1854:
 1855:	  017C			   CHECK_FN_CODE_10_QUERY:
 1856:
 1857:	  017C	A3		   INC    DPTR
 1858:	  017D	E0		   MOVX   A,@DPTR
 1859:	  017E	B4 30 03	   CJNE   A,#30H,JUMP_BACK                          ;MAIN_LOOP
 1860:	  0181	02 06 34	   LJMP   FN_CODE_10_QUERY
 1861:
 1862:
 1863:	  0184			   JUMP_BACK:
 1864:
 1865:	  0184	01 E3		   AJMP   MAIN_LOOP
 1866:
 1867:				;************************************************************************
 1868:				;
 1869:
 1870:	  0186			   FN_CODE_03_REPLY:
 1871:
 1872:	  0186	12 07 0B	   LCALL  CAL_START_ADDRESS
 1873:
 1874:	  0189			   TRANSMIT_DATA:
 1875:
 1876:	  0189	12 07 EE	   LCALL  ASCII_TO_HEX    ;NO OF REGISTERS TO READ WILL NOT EXCEED 16 HENCE THESE LOCN ARE DISCARDED
 1877:	  018C	12 07 EE	   LCALL  ASCII_TO_HEX
 1878:	  018F	F5 08		   MOV    BYTE_CNT,A    ;BYTE_COUNT
 1879:				;----------------------------------------------
 1880:	  0191	12 07 21	  	LCALL HEADER_SLAVE_ID
 1881:				;------------------------------------------------
 1882:	  0194	A3		   INC   DPTR
 1883:	  0195	74 30			MOV   A,#30H    ;FUNCTION CODE
 1884:	  0197	F0		   MOVX  @DPTR,A
 1885:	  0198	A3		   INC   DPTR
 1886:	  0199	74 33		   MOV   A,#33H
 1887:	  019B	F0		   MOVX  @DPTR,A
 1888:	  019C	A3		   INC   DPTR

ASEM-51 V1.3                                        Copyright (c) 2002 by W.W. Heinz                                         PAGE 35



 Line  I  Addr  Code            Source

 1889:				;------------------------------------------------
 1890:				;BYTE COUNT
 1891:				;------------------------------------------------
 1892:	  019D	E5 08		   MOV   A,BYTE_CNT
 1893:	  019F	C3		   CLR   C
 1894:	  01A0	33		   RLC   A
 1895:	  01A1	F0		   MOVX  @DPTR,A
 1896:	  01A2	12 08 0A	   LCALL HEX_TO_ASCII
 1897:
 1898:				;------------------------------------------------------
 1899:
 1900:	  01A5	E5 08		   MOV   A,BYTE_CNT
 1901:	  01A7	C3		   CLR   C
 1902:	  01A8	33		   RLC   A
 1903:	  01A9	FF		   MOV   R7,A
 1904:
 1905:	  01AA			   CAL_DPTR:
 1906:
 1907:	  01AA	C0 83		   PUSH  DPH
 1908:	  01AC	C0 82		   PUSH  DPL
 1909:	  01AE	90 10 00	   MOV   DPTR,#START_ADDRESS_DATA_REG          ;-2               ;-2
 1910:	  01B1	E5 82		   MOV   A,DPL
 1911:	  01B3	25 11		   ADD   A,TEMP2
 1912:	  01B5	F5 82		   MOV   DPL,A
 1913:	  01B7	E5 83		   MOV   A,DPH
 1914:	  01B9	35 10		   ADDC  A,TEMP1
 1915:	  01BB	F5 83		   MOV   DPH,A
 1916:
 1917:	  01BD			   GET_NEXT_DATA:
 1918:
 1919:	  01BD	E0		   MOVX  A,@DPTR                                     ;LCALL GET_RAM_DATA
 1920:	  01BE	D0 82		   POP   DPL
 1921:	  01C0	D0 83		   POP   DPH
 1922:	  01C2	05 11		   INC   TEMP2
 1923:	  01C4	50 02		   JNC   NO_DPTR_INCREASE
 1924:	  01C6	05 10		   INC   TEMP1
 1925:
 1926:	  01C8			   NO_DPTR_INCREASE:
 1927:
 1928:	  01C8	12 08 0A	   LCALL HEX_TO_ASCII   ; 1 BYTE DONE
 1929:	  01CB	DF DD		   DJNZ  R7,CAL_DPTR                          ; GET_NEXT_DATA
 1930:
 1931:				;--------------------------------------------------------------------
 1932:	  01CD	E5 08			MOV   A,BYTE_CNT
 1933:	  01CF	75 F0 04		MOV   B,#4
 1934:	  01D2	A4		   MUL   AB
 1935:	  01D3	24 06		   ADD   A,#6
 1936:	  01D5	FF			MOV	R7,A             ;BYTE COUNT WHOSE LRC IS TO BE CALCULATED
 1937:	  01D6	90 05 00		MOV	DPTR,#TX_BUF                              ;R0,#TX_BUF
 1938:	  01D9	A3			INC   DPTR
 1939:				;----------------------------------------------------
 1940:	  01DA	12 07 C4		LCALL	CAL_LRC		;MODBUS ASCII CHECK IT SHOULD BE DIVIDE BY 2
 1941:				;---------------------------------------------------
 1942:	  01DD	E5 08			MOV   A,BYTE_CNT
 1943:	  01DF	75 F0 04		MOV   B,#4
 1944:	  01E2	A4			MUL   AB

ASEM-51 V1.3                                        Copyright (c) 2002 by W.W. Heinz                                         PAGE 36



 Line  I  Addr  Code            Source

 1945:	  01E3	24 07			ADD   A,#7
 1946:	  01E5	FF			MOV   R7,A
 1947:	  01E6	12 07 91		LCALL ADD_LRC_ASC
 1948:	  01E9	02 06 D3		LJMP  TRANSMIT_DATA_START
 1949:				;--------------------------------------------------------
 1950:				;FN CODE 03 READ DAT REGS ENDS HERE
 1951:				;--------------------------------------------------------
 1952:				;*********************************************************************************************
 1953:				;-----------------------------------------
 1954:				;MOVES THE DATA INTO THE PRESET REGISTER
 1955:				;-----------------------------------------
 1956:
 1957:
 1958:
 1959:	  01EC			   FN_CODE_06_QUERY:
 1960:
 1961:	  01EC	12 07 0B	   LCALL  CAL_START_ADDRESS
 1962:	  01EF	12 07 EE	   LCALL  ASCII_TO_HEX
 1963:	  01F2	F5 F0		   MOV    B,A
 1964:	  01F4	C0 83		   PUSH   DPH
 1965:	  01F6	C0 82		   PUSH   DPL
 1966:	  01F8	90 10 00	   MOV    DPTR,#START_ADDRESS_DATA_REG
 1967:	  01FB	E5 82		   MOV    A,DPL
 1968:	  01FD	C3		   CLR    C
 1969:	  01FE	25 11		   ADD    A,TEMP2
 1970:	  0200	F5 82		   MOV    DPL,A
 1971:	  0202	E5 83		   MOV    A,DPH
 1972:	  0204	35 10		   ADDC   A,TEMP1
 1973:	  0206	F5 83		   MOV    DPH,A
 1974:	  0208	E5 F0		   MOV    A,B
 1975:	  020A	F0		   MOVX   @DPTR,A
 1976:	  020B	D0 82		   POP    DPL
 1977:	  020D	D0 83		   POP    DPH
 1978:	  020F	12 07 EE	   LCALL  ASCII_TO_HEX
 1979:	  0212	F5 F0		   MOV    B,A
 1980:	  0214	90 10 01	   MOV   DPTR,#START_ADDRESS_DATA_REG+1
 1981:	  0217	E5 82		   MOV   A,DPL
 1982:	  0219	C3		   CLR   C
 1983:	  021A	25 11		   ADD   A,TEMP2
 1984:	  021C	F5 82		   MOV   DPL,A
 1985:	  021E	E5 83		   MOV   A,DPH
 1986:	  0220	35 10		   ADDC  A,TEMP1
 1987:	  0222	F5 83		   MOV   DPH,A
 1988:	  0224	E5 F0		   MOV   A,B
 1989:	  0226	F0		   MOVX  @DPTR,A
 1990:
 1991:				;-----------------------------------------------
 1992:	  0227			   TRANSMIT_REPLY:
 1993:
 1994:				 ; 	LCALL HEADER_SLAVE_ID
 1995:				;------------------------------------------------
 1996:				 ;  INC   DPTR
 1997:	  0227	75 08 00	   MOV   BYTE_CNT,#0
 1998:
 1999:	  022A			   REPEAT_TRANSFER_FROM_RX_TX:
 2000:

ASEM-51 V1.3                                        Copyright (c) 2002 by W.W. Heinz                                         PAGE 37



 Line  I  Addr  Code            Source

 2001:	  022A	90 04 00	   MOV   DPTR,#RX_BUF
 2002:	  022D	E5 08		   MOV   A,BYTE_CNT
 2003:	  022F	C3		   CLR   C
 2004:	  0230	25 82		   ADD   A,DPL
 2005:	  0232	F5 82		   MOV   DPL,A
 2006:	  0234	E0		   MOVX  A,@DPTR
 2007:	  0235	F5 F0		   MOV   B,A
 2008:	  0237	90 05 00	   MOV   DPTR,#TX_BUF
 2009:	  023A	E5 08		   MOV   A,BYTE_CNT
 2010:	  023C	C3		   CLR   C
 2011:	  023D	25 82		   ADD   A,DPL
 2012:	  023F	F5 82		   MOV   DPL,A
 2013:	  0241	E5 F0		   MOV   A,B
 2014:	  0243	F0		   MOVX  @DPTR,A
 2015:	  0244	05 08		   INC   BYTE_CNT
 2016:	  0246	B4 0A E1	   CJNE  A,#END_CHARACTER_2,REPEAT_TRANSFER_FROM_RX_TX
 2017:
 2018:
 2019:	  0249	02 06 D3	   LJMP  TRANSMIT_DATA_START
 2020:				;----------------------------------------------------
 2021:				;START OF FN 01 QUERY
 2022:				;----------------------------------------------------
 2023:				;START OF QUERY FOR DELTA KINCO REPLACEMENT
 2024:				;----------------------------------------------------
 2025:	  024C			   FN_CODE_01_QUERY:
 2026:
 2027:	  024C	75 1A 00	   MOV    RSLT_0,#0
 2028:	  024F	A3		   INC    DPTR
 2029:	  0250	12 07 EE	   LCALL  ASCII_TO_HEX
 2030:	  0253	75 F0 20	   MOV    B,#32
 2031:	  0256	A4		   MUL    AB
 2032:	  0257	F5 10		   MOV    TEMP1,A
 2033:				;-----------------------------------------
 2034:	  0259	12 07 EE	   LCALL  ASCII_TO_HEX
 2035:	  025C	75 F0 08	   MOV    B,#8
 2036:	  025F	84		   DIV    AB
 2037:	  0260	C3		   CLR    C
 2038:	  0261	25 10		   ADD    A,TEMP1
 2039:	  0263	F5 11		   MOV    TEMP2,A
 2040:	  0265	E5 F0		   MOV    A,B       ;RETREIVE REMAINDER
 2041:	  0267	C3		   CLR    C
 2042:	  0268	FD		   MOV    R5,A
 2043:	  0269	12 07 EE	   LCALL  ASCII_TO_HEX    ;NO OF BITS TO READ WILL NOT EXCEED 256 HENCE THESE LOCN ARE DISCARDED
 2044:	  026C	12 07 EE	   LCALL  ASCII_TO_HEX
 2045:	  026F	F5 08		   MOV    BYTE_CNT,A    ;BYTE_COUNT
 2046:
 2047:
 2048:	  0271			   LOAD_TRANSMIT_BUFFER_FN_CODE_01:
 2049:
 2050:	  0271	12 07 21	   LCALL  HEADER_SLAVE_ID
 2051:				;--------------------------------------
 2052:	  0274	A3		   INC   DPTR
 2053:	  0275	74 30			MOV   A,#30H    ;FUNCTION CODE
 2054:	  0277	F0		   MOVX  @DPTR,A
 2055:	  0278	A3		   INC   DPTR
 2056:	  0279	74 31		   MOV   A,#31H

ASEM-51 V1.3                                        Copyright (c) 2002 by W.W. Heinz                                         PAGE 38



 Line  I  Addr  Code            Source

 2057:	  027B	F0		   MOVX  @DPTR,A
 2058:	  027C	A3		   INC   DPTR
 2059:				;---------------------------------------
 2060:
 2061:
 2062:	  027D	C2 02		   CLR   BIT_READ_MORE_THAN_8
 2063:
 2064:	  027F	E5 08		   MOV   A,BYTE_CNT
 2065:	  0281	C3		   CLR   C
 2066:	  0282	94 09		   SUBB  A,#09
 2067:	  0284	50 09		   JNC   DOWN_FN_01
 2068:	  0286	74 01		   MOV   A,#01
 2069:	  0288	F5 1A		   MOV   RSLT_0,A
 2070:	  028A	12 08 0A	   LCALL HEX_TO_ASCII
 2071:	  028D	80 1E		   SJMP  BYTE_CNT_LOADED_FN_CODE_01
 2072:				;--------------------------------------------------------------------------------
 2073:				;BELOW ROUTINE WILL LOAD 01 IF BIT TO READ IS LESS THAN 8 OR ELSE IT WILL LOAD 02
 2074:				;--------------------------------------------------------------------------------
 2075:	  028F			   DOWN_FN_01:
 2076:
 2077:	  028F	D2 02		   SETB  BIT_READ_MORE_THAN_8
 2078:	  0291	E5 08		   MOV   A,BYTE_CNT
 2079:	  0293	75 F0 08	   MOV   B,#08
 2080:	  0296	84		   DIV   AB
 2081:	  0297	F5 08		   MOV   BYTE_CNT,A
 2082:	  0299	E5 F0		   MOV   A,B
 2083:	  029B	B4 00 04	   CJNE  A,#0,INCREMENT_BYTE_CNT
 2084:	  029E	E5 08		   MOV   A,BYTE_CNT
 2085:	  02A0	80 03		   SJMP  NO_INCREMENT_BYTE_CNT
 2086:
 2087:	  02A2			   INCREMENT_BYTE_CNT:
 2088:
 2089:	  02A2	E5 08		   MOV   A,BYTE_CNT
 2090:	  02A4	04		   INC   A
 2091:
 2092:	  02A5			   NO_INCREMENT_BYTE_CNT:
 2093:
 2094:	  02A5	F5 1A		   MOV   RSLT_0,A
 2095:	  02A7	12 08 0A	   LCALL HEX_TO_ASCII   ;BYTE_CNT LOADED IN TRANSMIT BUFFER
 2096:	  02AA	E5 F0		   MOV   A,B
 2097:	  02AC	FF		   MOV   R7,A
 2098:				;------------------------------------------------------------------
 2099:
 2100:	  02AD			   BYTE_CNT_LOADED_FN_CODE_01:
 2101:
 2102:
 2103:
 2104:	  02AD	E5 08		   MOV   A,BYTE_CNT
 2105:	  02AF	B4 01 00	   CJNE  A,#01,CHECK_FOR_MORE_THAN_1_BIT
 2106:
 2107:	  02B2			   CHECK_FOR_MORE_THAN_1_BIT:
 2108:
 2109:	  02B2	50 31		   JNC   READ_MORE_THAN_1_BIT
 2110:
 2111:	  02B4	74 30		   MOV   A,#30H
 2112:	  02B6	F0		   MOVX  @DPTR,A

ASEM-51 V1.3                                        Copyright (c) 2002 by W.W. Heinz                                         PAGE 39



 Line  I  Addr  Code            Source

 2113:	  02B7	A3		   INC   DPTR
 2114:
 2115:				;---------------------------
 2116:	  02B8	C0 83		   PUSH   DPH
 2117:	  02BA	C0 82		   PUSH   DPL
 2118:	  02BC	90 5F 00	   MOV    DPTR,#BIT_START_ADDRESS
 2119:	  02BF	E5 82		   MOV    A,DPL
 2120:	  02C1	25 11		   ADD    A,TEMP2
 2121:	  02C3	F5 82		   MOV    DPL,A
 2122:	  02C5	E5 83		   MOV    A,DPH
 2123:	  02C7	34 00		   ADDC   A,#0
 2124:	  02C9	F5 83		   MOV    DPH,A
 2125:	  02CB	E0		   MOVX   A,@DPTR
 2126:	  02CC	C3		   CLR    C
 2127:
 2128:	  02CD			   CHECK_NEXT_BIT:
 2129:
 2130:	  02CD	BD 00 03	   CJNE  R5,#00H,REPEAT
 2131:	  02D0	13		   RRC   A
 2132:	  02D1	80 04		   SJMP  LOCATE_BIT
 2133:
 2134:
 2135:	  02D3			   REPEAT:
 2136:
 2137:	  02D3	1D		   DEC   R5
 2138:	  02D4	13		   RRC   A
 2139:	  02D5	80 F6		   SJMP  CHECK_NEXT_BIT
 2140:
 2141:	  02D7			   LOCATE_BIT:
 2142:
 2143:				  ; RRC   A
 2144:	  02D7	50 06		   JNC   BIT_NOT_ON
 2145:	  02D9	74 31		   MOV   A,#31H
 2146:	  02DB	F0		   MOVX  @DPTR,A
 2147:	  02DC	02 03 7C	   LJMP  REPLY_BIT_LOADED                    ;TRANSMIT_START_FN_CODE_05
 2148:
 2149:	  02DF			   BIT_NOT_ON:
 2150:
 2151:	  02DF	74 30		   MOV   A,#30H
 2152:	  02E1	F0		   MOVX  @DPTR,A
 2153:	  02E2	02 03 7C	   LJMP  REPLY_BIT_LOADED
 2154:				;--------------------------------------------
 2155:	  02E5			   READ_MORE_THAN_1_BIT:
 2156:
 2157:	  02E5	20 02 1E	   JB    BIT_READ_MORE_THAN_8,MORE_THAN_EIGHT_TO_READ
 2158:	  02E8	C0 83		   PUSH   DPH
 2159:	  02EA	C0 82		   PUSH   DPL
 2160:	  02EC	90 5F 00	   MOV    DPTR,#BIT_START_ADDRESS
 2161:	  02EF	E5 82		   MOV    A,DPL
 2162:	  02F1	25 11		   ADD    A,TEMP2
 2163:	  02F3	F5 82		   MOV    DPL,A
 2164:	  02F5	E5 83		   MOV    A,DPH
 2165:	  02F7	34 00		   ADDC   A,#0
 2166:	  02F9	F5 83		   MOV    DPH,A
 2167:	  02FB	E0		   MOVX   A,@DPTR
 2168:	  02FC	F5 10		   MOV    TEMP1,A

ASEM-51 V1.3                                        Copyright (c) 2002 by W.W. Heinz                                         PAGE 40



 Line  I  Addr  Code            Source

 2169:	  02FE	E5 08		   MOV    A,BYTE_CNT
 2170:	  0300	D0 82		   POP    DPL
 2171:	  0302	D0 83		   POP    DPH
 2172:	  0304	80 39		   SJMP  READ_LESS_THAN_EIGHT
 2173:
 2174:
 2175:	  0306			   MORE_THAN_EIGHT_TO_READ:
 2176:				;---------------------------------------------
 2177:	  0306	C0 83		   PUSH   DPH
 2178:	  0308	C0 82		   PUSH   DPL
 2179:	  030A	90 5F 00	   MOV    DPTR,#BIT_START_ADDRESS
 2180:	  030D	E5 82		   MOV    A,DPL
 2181:	  030F	25 11		   ADD    A,TEMP2
 2182:	  0311	F5 82		   MOV    DPL,A
 2183:	  0313	E5 83		   MOV    A,DPH
 2184:	  0315	34 00		   ADDC   A,#0
 2185:	  0317	F5 83		   MOV    DPH,A
 2186:	  0319	E0		   MOVX   A,@DPTR
 2187:	  031A	FD		   MOV    R5,A
 2188:	  031B	A3		   INC    DPTR
 2189:	  031C	E0		   MOVX   A,@DPTR
 2190:	  031D	FE		   MOV    R6,A
 2191:	  031E	E5 11		   MOV    A,TEMP2
 2192:	  0320	C3		   CLR    C
 2193:	  0321	24 01		   ADD    A,#01
 2194:	  0323	F5 11		   MOV    TEMP2,A
 2195:	  0325	E5 10		   MOV    A,TEMP1
 2196:	  0327	34 00		   ADDC   A,#0
 2197:	  0329	F5 10		   MOV    TEMP1,A
 2198:	  032B	ED		   MOV    A,R5         ;RETREIVE DATA
 2199:	  032C	D0 82		   POP    DPL
 2200:	  032E	D0 83		   POP    DPH
 2201:	  0330	12 08 0A	   LCALL  HEX_TO_ASCII
 2202:	  0333	E5 08		   MOV    A,BYTE_CNT       ;RETREIVE BYTE COUNT
 2203:	  0335	14		   DEC    A
 2204:	  0336	F5 08		   MOV    BYTE_CNT,A
 2205:	  0338	B4 01 CB	   CJNE   A,#01,MORE_THAN_EIGHT_TO_READ
 2206:				;---------------------------------------
 2207:
 2208:	  033B	EE		   MOV   A,R6
 2209:	  033C	F5 10		   MOV   TEMP1,A
 2210:
 2211:
 2212:	  033E	EF		   MOV   A,R7      ;RETREIVE THE REMAINDER OF NO. OF BITS BY 8
 2213:
 2214:	  033F			   READ_LESS_THAN_EIGHT:
 2215:
 2216:
 2217:	  033F	B4 02 06	   CJNE   A,#02,CHECK_2
 2218:	  0342	E5 10		   MOV    A,TEMP1
 2219:	  0344	54 03		   ANL    A,#00000011B
 2220:	  0346	61 79		   AJMP   TRANSMIT_START_FN_CODE_01
 2221:
 2222:	  0348			   CHECK_2:
 2223:
 2224:	  0348	B4 03 06	   CJNE   A,#03,CHECK_3

ASEM-51 V1.3                                        Copyright (c) 2002 by W.W. Heinz                                         PAGE 41



 Line  I  Addr  Code            Source

 2225:	  034B	E5 10		   MOV    A,TEMP1
 2226:	  034D	54 07		   ANL    A,#00000111B
 2227:	  034F	61 79		   AJMP   TRANSMIT_START_FN_CODE_01
 2228:
 2229:	  0351			   CHECK_3:
 2230:
 2231:	  0351	B4 04 06	   CJNE   A,#04,CHECK_4
 2232:	  0354	E5 10		   MOV    A,TEMP1
 2233:	  0356	54 0F		   ANL    A,#00001111B
 2234:	  0358	61 79		   AJMP   TRANSMIT_START_FN_CODE_01
 2235:
 2236:	  035A			   CHECK_4:
 2237:
 2238:	  035A	B4 05 06	   CJNE   A,#05,CHECK_5
 2239:	  035D	E5 10		   MOV    A,TEMP1
 2240:	  035F	54 1F		   ANL    A,#00011111B
 2241:	  0361	61 79		   AJMP   TRANSMIT_START_FN_CODE_01
 2242:
 2243:	  0363			   CHECK_5:
 2244:
 2245:	  0363	B4 06 06	   CJNE   A,#06,CHECK_6
 2246:	  0366	E5 10		   MOV    A,TEMP1
 2247:	  0368	54 3F		   ANL    A,#00111111B
 2248:	  036A	61 79		   AJMP   TRANSMIT_START_FN_CODE_01
 2249:
 2250:	  036C			   CHECK_6:
 2251:
 2252:	  036C	B4 07 06	   CJNE   A,#07,CHECK_7
 2253:	  036F	E5 10		   MOV    A,TEMP1
 2254:	  0371	54 7F		   ANL    A,#01111111B
 2255:	  0373	61 79		   AJMP   TRANSMIT_START_FN_CODE_01
 2256:
 2257:	  0375			   CHECK_7:
 2258:
 2259:	  0375	E5 10		   MOV    A,TEMP1
 2260:	  0377	54 FF		   ANL    A,#11111111B
 2261:
 2262:
 2263:
 2264:	  0379			   TRANSMIT_START_FN_CODE_01:
 2265:
 2266:	  0379	12 08 0A	   LCALL  HEX_TO_ASCII
 2267:
 2268:
 2269:
 2270:	  037C			   REPLY_BIT_LOADED:
 2271:
 2272:
 2273:
 2274:
 2275:	  037C	90 05 00	   MOV	DPTR,#TX_BUF                              ;R0,#TX_BUF
 2276:	  037F	A3			INC   DPTR
 2277:	  0380	E5 1A		   MOV   A,RSLT_0
 2278:	  0382	75 F0 02	   MOV   B,#02
 2279:	  0385	A4		   MUL   AB
 2280:	  0386	24 06			ADD   A,#06

ASEM-51 V1.3                                        Copyright (c) 2002 by W.W. Heinz                                         PAGE 42



 Line  I  Addr  Code            Source

 2281:	  0388	FF		   MOV   R7,A
 2282:
 2283:	  0389			   DO_NOT_INC_BYTE_COUNTER_1:
 2284:
 2285:				;----------------------------------------------------
 2286:	  0389	12 07 C4	   LCALL	CAL_LRC		;MODBUS ASCII CHECK IT SHOULD BE 5
 2287:				;----------------------------------------------------
 2288:	  038C	E5 1A		   MOV   A,RSLT_0
 2289:	  038E	75 F0 02	   MOV   B,#02
 2290:	  0391	A4		   MUL   AB
 2291:	  0392	24 07			ADD   A,#07
 2292:	  0394	FF		   MOV   R7,A
 2293:
 2294:	  0395	12 07 91	   LCALL ADD_LRC_ASC
 2295:	  0398	02 06 D3	   LJMP  TRANSMIT_DATA_START
 2296:				;*******************************************************************************
 2297:	  039B			   FN_CODE_02_QUERY:
 2298:
 2299:
 2300:	  039B	75 1A 00	   MOV    RSLT_0,#0
 2301:	  039E	A3		   INC    DPTR
 2302:	  039F	12 07 EE	   LCALL  ASCII_TO_HEX
 2303:	  03A2	75 F0 20	   MOV    B,#32
 2304:	  03A5	A4		   MUL    AB
 2305:	  03A6	F5 10		   MOV    TEMP1,A
 2306:				;-----------------------------------------
 2307:	  03A8	12 07 EE	   LCALL  ASCII_TO_HEX
 2308:	  03AB	75 F0 08	   MOV    B,#8
 2309:	  03AE	84		   DIV    AB
 2310:	  03AF	C3		   CLR    C
 2311:	  03B0	25 10		   ADD    A,TEMP1
 2312:	  03B2	F5 11		   MOV    TEMP2,A
 2313:	  03B4	E5 F0		   MOV    A,B       ;RETREIVE REMAINDER
 2314:	  03B6	C3		   CLR    C
 2315:	  03B7	FD		   MOV    R5,A
 2316:	  03B8	12 07 EE	   LCALL  ASCII_TO_HEX    ;NO OF BITS TO READ WILL NOT EXCEED 256 HENCE THESE LOCN ARE DISCARDED
 2317:	  03BB	12 07 EE	   LCALL  ASCII_TO_HEX
 2318:	  03BE	F5 08		   MOV    BYTE_CNT,A    ;BYTE_COUNT
 2319:
 2320:
 2321:	  03C0			   LOAD_TRANSMIT_BUFFER_FN_CODE_02:
 2322:
 2323:	  03C0	12 07 21	   LCALL  HEADER_SLAVE_ID
 2324:				;--------------------------------------
 2325:	  03C3	A3		   INC   DPTR
 2326:	  03C4	74 30			MOV   A,#30H    ;FUNCTION CODE
 2327:	  03C6	F0		   MOVX  @DPTR,A
 2328:	  03C7	A3		   INC   DPTR
 2329:	  03C8	74 32		   MOV   A,#32H
 2330:	  03CA	F0		   MOVX  @DPTR,A
 2331:	  03CB	A3		   INC   DPTR
 2332:				;---------------------------------------
 2333:
 2334:
 2335:	  03CC	C2 02		   CLR   BIT_READ_MORE_THAN_8
 2336:

ASEM-51 V1.3                                        Copyright (c) 2002 by W.W. Heinz                                         PAGE 43



 Line  I  Addr  Code            Source

 2337:	  03CE	E5 08		   MOV   A,BYTE_CNT
 2338:	  03D0	C3		   CLR   C
 2339:	  03D1	94 09		   SUBB  A,#09
 2340:	  03D3	50 09		   JNC   DOWN_FN_02
 2341:	  03D5	74 01		   MOV   A,#01
 2342:	  03D7	F5 1A		   MOV   RSLT_0,A
 2343:	  03D9	12 08 0A	   LCALL HEX_TO_ASCII
 2344:	  03DC	80 1E		   SJMP  BYTE_CNT_LOADED_FN_CODE_02
 2345:				;--------------------------------------------------------------------------------
 2346:				;BELOW ROUTINE WILL LOAD 01 IF BIT TO READ IS LESS THAN 8 OR ELSE IT WILL LOAD 02
 2347:				;--------------------------------------------------------------------------------
 2348:	  03DE			   DOWN_FN_02:
 2349:
 2350:	  03DE	D2 02		   SETB  BIT_READ_MORE_THAN_8
 2351:	  03E0	E5 08		   MOV   A,BYTE_CNT
 2352:	  03E2	75 F0 08	   MOV   B,#08
 2353:	  03E5	84		   DIV   AB
 2354:	  03E6	F5 08		   MOV   BYTE_CNT,A
 2355:	  03E8	E5 F0		   MOV   A,B
 2356:	  03EA	B4 00 04	   CJNE  A,#0,INCREMENT_BYTE_CNT_FN_CODE_02
 2357:	  03ED	E5 08		   MOV   A,BYTE_CNT
 2358:	  03EF	80 03		   SJMP  NO_INCREMENT_BYTE_CNT_FN_CODE_02
 2359:
 2360:	  03F1			   INCREMENT_BYTE_CNT_FN_CODE_02:
 2361:
 2362:	  03F1	E5 08		   MOV   A,BYTE_CNT
 2363:	  03F3	04		   INC   A
 2364:
 2365:	  03F4			   NO_INCREMENT_BYTE_CNT_FN_CODE_02:
 2366:
 2367:	  03F4	F5 1A		   MOV   RSLT_0,A
 2368:	  03F6	12 08 0A	   LCALL HEX_TO_ASCII   ;BYTE_CNT LOADED IN TRANSMIT BUFFER
 2369:	  03F9	E5 F0		   MOV   A,B
 2370:	  03FB	FF		   MOV   R7,A
 2371:				;------------------------------------------------------------------
 2372:
 2373:	  03FC			   BYTE_CNT_LOADED_FN_CODE_02:
 2374:
 2375:
 2376:
 2377:	  03FC	E5 08		   MOV   A,BYTE_CNT
 2378:	  03FE	B4 01 00	   CJNE  A,#01,CHECK_FOR_MORE_THAN_1_BIT_FN_CODE_02
 2379:
 2380:	  0401			   CHECK_FOR_MORE_THAN_1_BIT_FN_CODE_02:
 2381:
 2382:	  0401	50 31		   JNC   READ_MORE_THAN_1_BIT_FN_CODE_02
 2383:
 2384:	  0403	74 30		   MOV   A,#30H
 2385:	  0405	F0		   MOVX  @DPTR,A
 2386:	  0406	A3		   INC   DPTR
 2387:
 2388:				;---------------------------
 2389:	  0407	C0 83		   PUSH   DPH
 2390:	  0409	C0 82		   PUSH   DPL
 2391:	  040B	90 0F 00	   MOV    DPTR,#BIT_START_ADDRESS_INPUT
 2392:	  040E	E5 82		   MOV    A,DPL

ASEM-51 V1.3                                        Copyright (c) 2002 by W.W. Heinz                                         PAGE 44



 Line  I  Addr  Code            Source

 2393:	  0410	25 11		   ADD    A,TEMP2
 2394:	  0412	F5 82		   MOV    DPL,A
 2395:	  0414	E5 83		   MOV    A,DPH
 2396:	  0416	34 00		   ADDC   A,#0
 2397:	  0418	F5 83		   MOV    DPH,A
 2398:	  041A	E0		   MOVX   A,@DPTR
 2399:	  041B	C3		   CLR    C
 2400:
 2401:	  041C			   CHECK_NEXT_BIT_FN_CODE_02:
 2402:
 2403:	  041C	BD 00 03	   CJNE  R5,#00H,REPEAT_FN_CODE_02
 2404:	  041F	13		   RRC   A
 2405:	  0420	80 04		   SJMP  LOCATE_BIT_FN_CODE_02
 2406:
 2407:
 2408:	  0422			   REPEAT_FN_CODE_02:
 2409:
 2410:	  0422	1D		   DEC   R5
 2411:	  0423	13		   RRC   A
 2412:	  0424	80 F6		   SJMP  CHECK_NEXT_BIT_FN_CODE_02
 2413:
 2414:	  0426			   LOCATE_BIT_FN_CODE_02:
 2415:
 2416:				  ; RRC   A
 2417:	  0426	50 06		   JNC   BIT_NOT_ON_FN_CODE_02
 2418:	  0428	74 31		   MOV   A,#31H
 2419:	  042A	F0		   MOVX  @DPTR,A
 2420:	  042B	02 04 CB	   LJMP  REPLY_BIT_LOADED_FN_CODE_02                    ;TRANSMIT_START_FN_CODE_05
 2421:
 2422:	  042E			   BIT_NOT_ON_FN_CODE_02:
 2423:
 2424:	  042E	74 30		   MOV   A,#30H
 2425:	  0430	F0		   MOVX  @DPTR,A
 2426:	  0431	02 04 CB	   LJMP  REPLY_BIT_LOADED_FN_CODE_02
 2427:				;--------------------------------------------
 2428:	  0434			   READ_MORE_THAN_1_BIT_FN_CODE_02:
 2429:
 2430:	  0434	20 02 1E	   JB     BIT_READ_MORE_THAN_8,MORE_THAN_EIGHT_TO_READ_FN_CODE_02
 2431:	  0437	C0 83		   PUSH   DPH
 2432:	  0439	C0 82		   PUSH   DPL
 2433:	  043B	90 0F 00	   MOV    DPTR,#BIT_START_ADDRESS_INPUT
 2434:	  043E	E5 82		   MOV    A,DPL
 2435:	  0440	25 11		   ADD    A,TEMP2
 2436:	  0442	F5 82		   MOV    DPL,A
 2437:	  0444	E5 83		   MOV    A,DPH
 2438:	  0446	34 00		   ADDC   A,#0
 2439:	  0448	F5 83		   MOV    DPH,A
 2440:	  044A	E0		   MOVX   A,@DPTR
 2441:	  044B	F5 10		   MOV    TEMP1,A
 2442:	  044D	E5 08		   MOV    A,BYTE_CNT
 2443:	  044F	D0 82		   POP    DPL
 2444:	  0451	D0 83		   POP    DPH
 2445:	  0453	80 39		   SJMP   READ_LESS_THAN_EIGHT_FN_CODE_02
 2446:
 2447:
 2448:	  0455			   MORE_THAN_EIGHT_TO_READ_FN_CODE_02:

ASEM-51 V1.3                                        Copyright (c) 2002 by W.W. Heinz                                         PAGE 45



 Line  I  Addr  Code            Source

 2449:				;---------------------------------------------
 2450:	  0455	C0 83		   PUSH   DPH
 2451:	  0457	C0 82		   PUSH   DPL
 2452:	  0459	90 0F 00	   MOV    DPTR,#BIT_START_ADDRESS_INPUT
 2453:	  045C	E5 82		   MOV    A,DPL
 2454:	  045E	25 11		   ADD    A,TEMP2
 2455:	  0460	F5 82		   MOV    DPL,A
 2456:	  0462	E5 83		   MOV    A,DPH
 2457:	  0464	34 00		   ADDC   A,#0
 2458:	  0466	F5 83		   MOV    DPH,A
 2459:	  0468	E0		   MOVX   A,@DPTR
 2460:	  0469	FD		   MOV    R5,A
 2461:	  046A	A3		   INC    DPTR
 2462:	  046B	E0		   MOVX   A,@DPTR
 2463:	  046C	FE		   MOV    R6,A
 2464:	  046D	E5 11		   MOV    A,TEMP2
 2465:	  046F	C3		   CLR    C
 2466:	  0470	24 01		   ADD    A,#01
 2467:	  0472	F5 11		   MOV    TEMP2,A
 2468:	  0474	E5 10		   MOV    A,TEMP1
 2469:	  0476	34 00		   ADDC   A,#0
 2470:	  0478	F5 10		   MOV    TEMP1,A
 2471:	  047A	ED		   MOV    A,R5         ;RETREIVE DATA
 2472:	  047B	D0 82		   POP    DPL
 2473:	  047D	D0 83		   POP    DPH
 2474:	  047F	12 08 0A	   LCALL  HEX_TO_ASCII
 2475:	  0482	E5 08		   MOV    A,BYTE_CNT       ;RETREIVE BYTE COUNT
 2476:	  0484	14		   DEC    A
 2477:	  0485	F5 08		   MOV    BYTE_CNT,A
 2478:	  0487	B4 01 CB	   CJNE   A,#01,MORE_THAN_EIGHT_TO_READ_FN_CODE_02
 2479:				;---------------------------------------
 2480:
 2481:	  048A	EE		   MOV   A,R6
 2482:	  048B	F5 10		   MOV   TEMP1,A
 2483:
 2484:
 2485:	  048D	EF		   MOV   A,R7      ;RETREIVE THE REMAINDER OF NO. OF BITS BY 8
 2486:
 2487:	  048E			   READ_LESS_THAN_EIGHT_FN_CODE_02:
 2488:
 2489:
 2490:	  048E	B4 02 06	   CJNE   A,#02,CHECK_2_FN_CODE_02
 2491:	  0491	E5 10		   MOV    A,TEMP1
 2492:	  0493	54 03		   ANL    A,#00000011B
 2493:	  0495	81 C8		   AJMP   TRANSMIT_START_FN_CODE_02
 2494:
 2495:	  0497			   CHECK_2_FN_CODE_02:
 2496:
 2497:	  0497	B4 03 06	   CJNE   A,#03,CHECK_3_FN_CODE_02
 2498:	  049A	E5 10		   MOV    A,TEMP1
 2499:	  049C	54 07		   ANL    A,#00000111B
 2500:	  049E	81 C8		   AJMP   TRANSMIT_START_FN_CODE_02
 2501:
 2502:	  04A0			   CHECK_3_FN_CODE_02:
 2503:
 2504:	  04A0	B4 04 06	   CJNE   A,#04,CHECK_4_FN_CODE_02

ASEM-51 V1.3                                        Copyright (c) 2002 by W.W. Heinz                                         PAGE 46



 Line  I  Addr  Code            Source

 2505:	  04A3	E5 10		   MOV    A,TEMP1
 2506:	  04A5	54 0F		   ANL    A,#00001111B
 2507:	  04A7	81 C8		   AJMP   TRANSMIT_START_FN_CODE_02
 2508:
 2509:	  04A9			   CHECK_4_FN_CODE_02:
 2510:
 2511:	  04A9	B4 05 06	   CJNE   A,#05,CHECK_5_FN_CODE_02
 2512:	  04AC	E5 10		   MOV    A,TEMP1
 2513:	  04AE	54 1F		   ANL    A,#00011111B
 2514:	  04B0	81 C8		   AJMP   TRANSMIT_START_FN_CODE_02
 2515:
 2516:	  04B2			   CHECK_5_FN_CODE_02:
 2517:
 2518:	  04B2	B4 06 06	   CJNE   A,#06,CHECK_6_FN_CODE_02
 2519:	  04B5	E5 10		   MOV    A,TEMP1
 2520:	  04B7	54 3F		   ANL    A,#00111111B
 2521:	  04B9	81 C8		   AJMP   TRANSMIT_START_FN_CODE_02
 2522:
 2523:	  04BB			   CHECK_6_FN_CODE_02:
 2524:
 2525:	  04BB	B4 07 06	   CJNE   A,#07,CHECK_7_FN_CODE_02
 2526:	  04BE	E5 10		   MOV    A,TEMP1
 2527:	  04C0	54 7F		   ANL    A,#01111111B
 2528:	  04C2	81 C8		   AJMP   TRANSMIT_START_FN_CODE_02
 2529:
 2530:	  04C4			   CHECK_7_FN_CODE_02:
 2531:
 2532:	  04C4	E5 10		   MOV    A,TEMP1
 2533:	  04C6	54 FF		   ANL    A,#11111111B
 2534:
 2535:
 2536:
 2537:	  04C8			   TRANSMIT_START_FN_CODE_02:
 2538:
 2539:	  04C8	12 08 0A	   LCALL  HEX_TO_ASCII
 2540:
 2541:
 2542:
 2543:	  04CB			   REPLY_BIT_LOADED_FN_CODE_02:
 2544:
 2545:
 2546:
 2547:
 2548:	  04CB	90 05 00	   MOV	DPTR,#TX_BUF                              ;R0,#TX_BUF
 2549:	  04CE	A3			INC   DPTR
 2550:	  04CF	E5 1A		   MOV   A,RSLT_0
 2551:	  04D1	75 F0 02	   MOV   B,#02
 2552:	  04D4	A4		   MUL   AB
 2553:	  04D5	24 06			ADD   A,#06
 2554:	  04D7	FF		   MOV   R7,A
 2555:
 2556:				  ; DO_NOT_INC_BYTE_COUNTER_1:
 2557:
 2558:				;----------------------------------------------------
 2559:	  04D8	12 07 C4	   LCALL	CAL_LRC		;MODBUS ASCII CHECK IT SHOULD BE 5
 2560:				;----------------------------------------------------

ASEM-51 V1.3                                        Copyright (c) 2002 by W.W. Heinz                                         PAGE 47



 Line  I  Addr  Code            Source

 2561:	  04DB	E5 1A		   MOV   A,RSLT_0
 2562:	  04DD	75 F0 02	   MOV   B,#02
 2563:	  04E0	A4		   MUL   AB
 2564:	  04E1	24 07			ADD   A,#07
 2565:	  04E3	FF		   MOV   R7,A
 2566:
 2567:	  04E4	12 07 91	   LCALL ADD_LRC_ASC
 2568:	  04E7	02 06 D3	   LJMP  TRANSMIT_DATA_START
 2569:
 2570:
 2571:
 2572:
 2573:
 2574:				;********************************************************************************
 2575:	  04EA			   FN_CODE_05_QUERY:
 2576:
 2577:	  04EA	A3		   INC    DPTR
 2578:	  04EB	12 07 EE	   LCALL  ASCII_TO_HEX
 2579:				  ; CLR    C
 2580:				  ; SUBB   A,#0           ;2
 2581:	  04EE	F5 10		   MOV    TEMP1,A
 2582:	  04F0	75 F0 20	   MOV    B,#32
 2583:	  04F3	A4		   MUL    AB
 2584:	  04F4	F5 10		   MOV    TEMP1,A
 2585:	  04F6	12 07 EE	   LCALL  ASCII_TO_HEX
 2586:				  ; CLR    C
 2587:				  ; SUBB   A,#00          ;    A
 2588:				  ; MOV    B,A
 2589:				   ;MOV    A,TEMP1
 2590:				   ;SUBB   A,#0
 2591:				   ;MOV    TEMP1,A
 2592:				  ; MOV    A,B
 2593:	  04F9	75 F0 08	   MOV    B,#8
 2594:	  04FC	84		   DIV    AB
 2595:	  04FD	C3		   CLR    C
 2596:	  04FE	25 10		   ADD    A,TEMP1
 2597:	  0500	F5 11		   MOV    TEMP2,A
 2598:	  0502	E5 F0		   MOV    A,B       ;RETREIVE REMAINDER
 2599:	  0504	C3		   CLR    C
 2600:	  0505	FD		   MOV    R5,A
 2601:	  0506	12 07 EE	   LCALL  ASCII_TO_HEX
 2602:	  0509	F5 F0		   MOV    B,A               ;LOAD DATA 00 OR FFH IF THE COIL IS ON IT IS FF ELSE IT IS 00.
 2603:	  050B	90 5F 00	   MOV    DPTR,#BIT_START_ADDRESS
 2604:	  050E	E5 82		   MOV    A,DPL
 2605:	  0510	25 11		   ADD    A,TEMP2
 2606:	  0512	F5 82		   MOV    DPL,A
 2607:	  0514	E5 83		   MOV    A,DPH
 2608:	  0516	34 00		   ADDC   A,#0
 2609:	  0518	F5 83		   MOV    DPH,A
 2610:	  051A	E0		   MOVX   A,@DPTR
 2611:	  051B	F5 10		   MOV    TEMP1,A
 2612:	  051D	E5 F0		   MOV    A,B
 2613:
 2614:	  051F	B4 FF 37	   CJNE   A,#0FFH,COIL_NOT_SET
 2615:
 2616:

ASEM-51 V1.3                                        Copyright (c) 2002 by W.W. Heinz                                         PAGE 48



 Line  I  Addr  Code            Source

 2617:	  0522	E5 10		   MOV    A,TEMP1
 2618:	  0524	BD 00 04	   CJNE   R5,#00,SET_BIT_01
 2619:	  0527	D2 E0		   SETB   ACC.0
 2620:	  0529	80 63		   SJMP   RELOAD_BACK_DATA
 2621:
 2622:	  052B			   SET_BIT_01:
 2623:
 2624:	  052B	BD 01 04	   CJNE   R5,#01,SET_BIT_02
 2625:	  052E	D2 E1		   SETB   ACC.1
 2626:	  0530	80 5C		   SJMP   RELOAD_BACK_DATA
 2627:
 2628:	  0532			   SET_BIT_02:
 2629:
 2630:	  0532	BD 02 04	   CJNE   R5,#02,SET_BIT_03
 2631:	  0535	D2 E2		   SETB   ACC.2
 2632:	  0537	80 55		   SJMP   RELOAD_BACK_DATA
 2633:
 2634:	  0539			   SET_BIT_03:
 2635:
 2636:	  0539	BD 03 04	   CJNE   R5,#03,SET_BIT_04
 2637:	  053C	D2 E3		   SETB   ACC.3
 2638:	  053E	80 4E		   SJMP   RELOAD_BACK_DATA
 2639:
 2640:	  0540			   SET_BIT_04:
 2641:
 2642:	  0540	BD 04 04	   CJNE   R5,#04,SET_BIT_05
 2643:	  0543	D2 E4		   SETB   ACC.4
 2644:	  0545	80 47		   SJMP   RELOAD_BACK_DATA
 2645:
 2646:
 2647:	  0547			   SET_BIT_05:
 2648:
 2649:	  0547	BD 05 04	   CJNE   R5,#05,SET_BIT_06
 2650:	  054A	D2 E5		   SETB   ACC.5
 2651:	  054C	80 40		   SJMP   RELOAD_BACK_DATA
 2652:
 2653:	  054E			   SET_BIT_06:
 2654:
 2655:	  054E	BD 06 04	   CJNE   R5,#06,SET_BIT_07
 2656:	  0551	D2 E6		   SETB   ACC.6
 2657:	  0553	80 39		   SJMP   RELOAD_BACK_DATA
 2658:
 2659:
 2660:	  0555			   SET_BIT_07:
 2661:
 2662:	  0555	D2 E7		   SETB   ACC.7
 2663:	  0557	80 35		   SJMP   RELOAD_BACK_DATA
 2664:				;----------------------------------------------
 2665:
 2666:	  0559			   COIL_NOT_SET:
 2667:
 2668:	  0559	E5 10		   MOV    A,TEMP1
 2669:	  055B	BD 00 04	   CJNE   R5,#00,CLR_BIT_01
 2670:	  055E	C2 E0		   CLR    ACC.0
 2671:	  0560	80 2C		   SJMP   RELOAD_BACK_DATA
 2672:

ASEM-51 V1.3                                        Copyright (c) 2002 by W.W. Heinz                                         PAGE 49



 Line  I  Addr  Code            Source

 2673:	  0562			   CLR_BIT_01:
 2674:
 2675:	  0562	BD 01 04	   CJNE   R5,#01,CLR_BIT_02
 2676:	  0565	C2 E1		   CLR    ACC.1
 2677:	  0567	80 25		   SJMP   RELOAD_BACK_DATA
 2678:
 2679:	  0569			   CLR_BIT_02:
 2680:
 2681:	  0569	BD 02 04	   CJNE   R5,#02,CLR_BIT_03
 2682:	  056C	C2 E2		   CLR    ACC.2
 2683:	  056E	80 1E		   SJMP   RELOAD_BACK_DATA
 2684:
 2685:	  0570			   CLR_BIT_03:
 2686:
 2687:	  0570	BD 03 04	   CJNE   R5,#03,CLR_BIT_04
 2688:	  0573	C2 E3		   CLR    ACC.3
 2689:	  0575	80 17		   SJMP   RELOAD_BACK_DATA
 2690:
 2691:	  0577			   CLR_BIT_04:
 2692:
 2693:	  0577	BD 04 04	   CJNE   R5,#04,CLR_BIT_05
 2694:	  057A	C2 E4		   CLR    ACC.4
 2695:	  057C	80 10		   SJMP   RELOAD_BACK_DATA
 2696:
 2697:
 2698:	  057E			   CLR_BIT_05:
 2699:
 2700:	  057E	BD 05 04	   CJNE   R5,#05,CLR_BIT_06
 2701:	  0581	C2 E5		   CLR    ACC.5
 2702:	  0583	80 09		   SJMP   RELOAD_BACK_DATA
 2703:
 2704:	  0585			   CLR_BIT_06:
 2705:
 2706:	  0585	BD 06 04	   CJNE   R5,#06,CLR_BIT_07
 2707:	  0588	C2 E6		   CLR    ACC.6
 2708:	  058A	80 02		   SJMP   RELOAD_BACK_DATA
 2709:
 2710:
 2711:	  058C			   CLR_BIT_07:
 2712:
 2713:	  058C	C2 E7		   CLR    ACC.7
 2714:
 2715:				;---------------------------------------------------------
 2716:	  058E			   RELOAD_BACK_DATA:
 2717:
 2718:	  058E	F0		   MOVX   @DPTR,A
 2719:
 2720:	  058F			   REPLY_05_START:
 2721:
 2722:				   ;LCALL HEADER_SLAVE_ID
 2723:	  058F	75 08 00	   MOV   BYTE_CNT,#0
 2724:	  0592	7F 0F		   MOV   R7,#15
 2725:
 2726:	  0594			   REPEAT_05_REPLY:
 2727:
 2728:	  0594	90 04 00	   MOV   DPTR,#RX_BUF

ASEM-51 V1.3                                        Copyright (c) 2002 by W.W. Heinz                                         PAGE 50



 Line  I  Addr  Code            Source

 2729:	  0597	E5 08		   MOV   A,BYTE_CNT
 2730:	  0599	C3		   CLR   C
 2731:	  059A	25 82		   ADD   A,DPL
 2732:	  059C	F5 82		   MOV   DPL,A
 2733:	  059E	E0		   MOVX  A,@DPTR
 2734:	  059F	F5 F0		   MOV   B,A
 2735:	  05A1	90 05 00	   MOV   DPTR,#TX_BUF
 2736:	  05A4	E5 08		   MOV   A,BYTE_CNT
 2737:	  05A6	C3		   CLR   C
 2738:	  05A7	25 82		   ADD   A,DPL
 2739:	  05A9	F5 82		   MOV   DPL,A
 2740:	  05AB	E5 F0		   MOV   A,B
 2741:	  05AD	F0		   MOVX  @DPTR,A
 2742:	  05AE	05 08		   INC   BYTE_CNT
 2743:	  05B0	B4 0A E1	   CJNE	A,#END_CHARACTER_2,REPEAT_05_REPLY
 2744:				  ; DJNZ  R7,REPEAT_05_REPLY
 2745:
 2746:	  05B3	02 06 D3	   LJMP  TRANSMIT_DATA_START
 2747:				;**********************************************************************
 2748:	  05B6			   FN_CODE_0F_QUERY:
 2749:
 2750:	  05B6	A3		   INC    DPTR
 2751:	  05B7	12 07 EE	   LCALL  ASCII_TO_HEX
 2752:	  05BA	F5 1B		   MOV    RSLT_1,A               ;RSLT_0
 2753:	  05BC	75 F0 20	   MOV    B,#32
 2754:	  05BF	A4		   MUL    AB
 2755:	  05C0	F5 10		   MOV    TEMP1,A
 2756:
 2757:	  05C2	12 07 EE	   LCALL  ASCII_TO_HEX
 2758:	  05C5	F5 1A		   MOV    RSLT_0,A
 2759:	  05C7	75 F0 08	   MOV    B,#8
 2760:	  05CA	84		   DIV    AB
 2761:	  05CB	C3		   CLR    C
 2762:	  05CC	25 10		   ADD    A,TEMP1
 2763:	  05CE	F5 11		   MOV    TEMP2,A
 2764:	  05D0	12 07 EE	   LCALL  ASCII_TO_HEX    ;NO OF REGISTERS TO READ WILL NOT EXCEED 16 HENCE THESE LOCN ARE DISCARDED
 2765:	  05D3	12 07 EE	   LCALL  ASCII_TO_HEX
 2766:	  05D6	12 07 EE	   LCALL  ASCII_TO_HEX  ;NO OF BYTES TO BE PRESET
 2767:	  05D9	C3		   CLR    C
 2768:	  05DA	33		   RLC    A
 2769:	  05DB	F5 08		   MOV    BYTE_CNT,A
 2770:	  05DD	FF		   MOV    R7,A
 2771:
 2772:
 2773:	  05DE	78 80		   MOV    R0,#SCRATCHPAD_0
 2774:
 2775:	  05E0			   NEXT_DATA:
 2776:
 2777:	  05E0	12 07 EE	   LCALL  ASCII_TO_HEX  ;HIGH ORDER BYTE OF DATA
 2778:	  05E3	F6		   MOV    @R0,A
 2779:	  05E4	08		   INC    R0
 2780:	  05E5	DF F9		   DJNZ   R7,NEXT_DATA
 2781:
 2782:
 2783:	  05E7			   SAVE_DATA:
 2784:

ASEM-51 V1.3                                        Copyright (c) 2002 by W.W. Heinz                                         PAGE 51



 Line  I  Addr  Code            Source

 2785:	  05E7	90 5F 00	   MOV    DPTR,#BIT_START_ADDRESS
 2786:	  05EA	E5 82		   MOV    A,DPL
 2787:	  05EC	25 11		   ADD    A,TEMP2
 2788:	  05EE	F5 82		   MOV    DPL,A
 2789:	  05F0	E5 83		   MOV    A,DPH
 2790:	  05F2	34 00		   ADDC   A,#0
 2791:	  05F4	F5 83		   MOV    DPH,A
 2792:	  05F6	AF 08		   MOV    R7,BYTE_CNT
 2793:	  05F8	78 80		   MOV    R0,#SCRATCHPAD_0
 2794:
 2795:	  05FA			   NEXT_BYTE_FN_CODE_0F:
 2796:
 2797:	  05FA	E6		   MOV    A,@R0
 2798:	  05FB	F0		   MOVX   @DPTR,A
 2799:	  05FC	A3		   INC    DPTR
 2800:	  05FD	08		   INC    R0
 2801:	  05FE	DF FA		   DJNZ   R7,NEXT_BYTE_FN_CODE_0F
 2802:
 2803:
 2804:				;------------------------------------------------
 2805:				;START TRANSMISSION OF REPLY
 2806:				;------------------------------------------------
 2807:
 2808:
 2809:	  0600	7F 0D		   MOV   R7,#13
 2810:	  0602	75 08 00	   MOV   BYTE_CNT,#0
 2811:
 2812:	  0605			   REPEAT_0F_REPLY:
 2813:
 2814:	  0605	90 04 00	   MOV   DPTR,#RX_BUF
 2815:	  0608	E5 08		   MOV   A,BYTE_CNT
 2816:	  060A	C3		   CLR   C
 2817:	  060B	25 82		   ADD   A,DPL
 2818:	  060D	F5 82		   MOV   DPL,A
 2819:	  060F	E0		   MOVX  A,@DPTR
 2820:	  0610	F5 F0		   MOV   B,A
 2821:	  0612	90 05 00	   MOV   DPTR,#TX_BUF
 2822:	  0615	E5 08		   MOV   A,BYTE_CNT
 2823:	  0617	C3		   CLR   C
 2824:	  0618	25 82		   ADD   A,DPL
 2825:	  061A	F5 82		   MOV   DPL,A
 2826:	  061C	E5 F0		   MOV   A,B
 2827:	  061E	F0		   MOVX  @DPTR,A
 2828:	  061F	05 08		   INC   BYTE_CNT
 2829:	  0621	DF E2		   DJNZ  R7,REPEAT_0F_REPLY
 2830:				;-------------------------------------------------------------
 2831:	  0623	7F 0C		  	MOV    R7,#12       ;MODBUS ASCII CHECK IT SHOULD BE 6
 2832:				;-------------------------------------------------------------
 2833:	  0625	90 05 00	  	MOV	 DPTR,#TX_BUF                              ;R0,#TX_BUF
 2834:	  0628	A3			INC    DPTR
 2835:	  0629	12 07 C4		LCALL	 CAL_LRC				      ;calculates lrc code for ascii data
 2836:
 2837:	  062C	7F 0D		  	MOV    R7,#13
 2838:	  062E	12 07 91		LCALL  ADD_LRC_ASC
 2839:	  0631	02 06 D3	   LJMP   TRANSMIT_DATA_START
 2840:				;***********************************************************

ASEM-51 V1.3                                        Copyright (c) 2002 by W.W. Heinz                                         PAGE 52



 Line  I  Addr  Code            Source

 2841:	  0634			   FN_CODE_10_QUERY:
 2842:
 2843:	  0634	12 07 0B	   LCALL  CAL_START_ADDRESS
 2844:	  0637	12 07 EE	   LCALL  ASCII_TO_HEX   ;NO. OF REGISTERS HIGH
 2845:	  063A	12 07 EE	   LCALL  ASCII_TO_HEX   ;NO. OF REGISTERS LOW
 2846:	  063D	FD		   MOV    R5,A
 2847:	  063E	12 07 EE	   LCALL  ASCII_TO_HEX  ;BYTE COUNT
 2848:
 2849:	  0641			   NEXT_DATA_REG:
 2850:
 2851:	  0641	12 07 EE	   LCALL  ASCII_TO_HEX
 2852:	  0644	F5 F0		   MOV    B,A        ;DATA
 2853:	  0646	C0 83		   PUSH   DPH
 2854:	  0648	C0 82		   PUSH   DPL
 2855:	  064A	90 10 00	   MOV    DPTR,#START_ADDRESS_DATA_REG
 2856:	  064D	E5 82		   MOV    A,DPL
 2857:	  064F	C3		   CLR    C
 2858:	  0650	25 11		   ADD    A,TEMP2
 2859:	  0652	F5 82		   MOV    DPL,A
 2860:	  0654	E5 83		   MOV    A,DPH
 2861:	  0656	35 10		   ADDC   A,TEMP1
 2862:	  0658	F5 83		   MOV    DPH,A
 2863:	  065A	E5 F0		   MOV    A,B
 2864:	  065C	F0		   MOVX   @DPTR,A
 2865:	  065D	D0 82		   POP    DPL
 2866:	  065F	D0 83		   POP    DPH
 2867:	  0661	12 07 EE	   LCALL  ASCII_TO_HEX
 2868:	  0664	F5 F0		   MOV    B,A
 2869:	  0666	C0 83		   PUSH   DPH
 2870:	  0668	C0 82		   PUSH   DPL
 2871:	  066A	90 10 00	   MOV    DPTR,#START_ADDRESS_DATA_REG
 2872:	  066D	E5 11		   MOV    A,TEMP2
 2873:	  066F	C3		   CLR    C
 2874:	  0670	24 01		   ADD    A,#01
 2875:	  0672	F5 11		   MOV    TEMP2,A
 2876:	  0674	E5 82		   MOV    A,DPL
 2877:	  0676	25 11		   ADD    A,TEMP2
 2878:	  0678	F5 82		   MOV    DPL,A
 2879:	  067A	E5 10		   MOV    A,TEMP1
 2880:	  067C	34 00		   ADDC   A,#0
 2881:	  067E	F5 10		   MOV    TEMP1,A
 2882:	  0680	E5 83		   MOV    A,DPH
 2883:	  0682	C3		   CLR    C
 2884:	  0683	25 10		   ADD    A,TEMP1
 2885:	  0685	F5 83		   MOV    DPH,A
 2886:	  0687	E5 F0		   MOV    A,B
 2887:	  0689	F0		   MOVX   @DPTR,A
 2888:	  068A	D0 82		   POP    DPL
 2889:	  068C	D0 83		   POP    DPH
 2890:
 2891:	  068E	E5 11		   MOV    A,TEMP2
 2892:	  0690	C3		   CLR    C
 2893:	  0691	24 01		   ADD    A,#01
 2894:	  0693	F5 11		   MOV    TEMP2,A
 2895:	  0695	E5 10		   MOV    A,TEMP1
 2896:	  0697	34 00		   ADDC   A,#0

ASEM-51 V1.3                                        Copyright (c) 2002 by W.W. Heinz                                         PAGE 53



 Line  I  Addr  Code            Source

 2897:
 2898:	  0699	DD A6		   DJNZ   R5,NEXT_DATA_REG
 2899:				;-----------------------------------------------
 2900:	  069B			   TRANSMIT_REPLY_FN_CODE_10H:
 2901:
 2902:				 ; 	LCALL HEADER_SLAVE_ID
 2903:				;------------------------------------------------
 2904:				 ;  INC   DPTR
 2905:	  069B	75 08 00	   MOV   BYTE_CNT,#0
 2906:
 2907:	  069E			   REPEAT_TRANSFER_FROM_RX_TX_FN_CODE_10H:
 2908:
 2909:	  069E	90 04 00	   MOV   DPTR,#RX_BUF
 2910:	  06A1	E5 08		   MOV   A,BYTE_CNT
 2911:	  06A3	C3		   CLR   C
 2912:	  06A4	25 82		   ADD   A,DPL
 2913:	  06A6	F5 82		   MOV   DPL,A
 2914:	  06A8	E0		   MOVX  A,@DPTR
 2915:	  06A9	F5 F0		   MOV   B,A
 2916:	  06AB	90 05 00	   MOV   DPTR,#TX_BUF
 2917:	  06AE	E5 08		   MOV   A,BYTE_CNT
 2918:	  06B0	C3		   CLR   C
 2919:	  06B1	25 82		   ADD   A,DPL
 2920:	  06B3	F5 82		   MOV   DPL,A
 2921:	  06B5	E5 F0		   MOV   A,B
 2922:	  06B7	F0		   MOVX  @DPTR,A
 2923:	  06B8	E5 08		   MOV   A,BYTE_CNT
 2924:	  06BA	C3		   CLR   C
 2925:	  06BB	24 01		   ADD   A,#01
 2926:	  06BD	F5 08		   MOV   BYTE_CNT,A
 2927:	  06BF	B4 0D DC	   CJNE  A,#13,REPEAT_TRANSFER_FROM_RX_TX_FN_CODE_10H
 2928:				;------------------------------------
 2929:	  06C2	7F 0C		   MOV   R7,#12    ;MODBUS ASCII CHECK IT SHOULD BE 6
 2930:				;------------------------------------
 2931:	  06C4	90 05 00	   MOV	DPTR,#TX_BUF                              ;R0,#TX_BUF
 2932:	  06C7	A3			INC   DPTR
 2933:	  06C8	12 07 C4		LCALL	CAL_LRC				      ;calculates lrc code for ascii data
 2934:	  06CB	7F 0D			MOV   R7,#13
 2935:	  06CD	12 07 91		LCALL ADD_LRC_ASC
 2936:	  06D0	02 06 D3	   LJMP  TRANSMIT_DATA_START
 2937:
 2938:
 2939:
 2940:
 2941:				;-----------------------------------------------------------
 2942:				;THIS IS THE COMMON PROGRAM FOR START OF REPLY OF EACH QUERY
 2943:				;-----------------------------------------------------------
 2944:
 2945:
 2946:	  06D3			   TRANSMIT_DATA_START:
 2947:
 2948:	  06D3	12 00 88		LCALL	INIT_XMIT

 2949:	  06D6	74 00		   MOV   A,#0
 2950:	  06D8	F5 08		   MOV   BYTE_CNT,A
 2951:	  06DA	12 07 6A		LCALL TRANS

ASEM-51 V1.3                                        Copyright (c) 2002 by W.W. Heinz                                         PAGE 54



 Line  I  Addr  Code            Source

 2952:	  06DD	75 0F FF		MOV   COUNT_1S,#0FFH

 2953:	  06E0	C2 06		   CLR   DELAY_OVER
 2954:	  06E2	22		   RET
 2955:				;---------------------------------------------------------------------------
 2956:
 2957:	  06E3			   CHECK_SERIAL_COMMUNICATION:
 2958:
 2959:	  06E3	20 06 0B		JB	    DELAY_OVER,RESET_SERIAL_COMMUNICATION
 2960:	  06E6	20 00 04	   JB	    RCVE_OVER,START_TRANSMISSION_OF_REPLY
 2961:	  06E9	20 01 05	   JB     TRANS_OVER,RESET_SERIAL_COMMUNICATION
 2962:	  06EC	22		   RET
 2963:
 2964:	  06ED			   START_TRANSMISSION_OF_REPLY:
 2965:
 2966:	  06ED	12 01 46	   LCALL  TRANSMIT
 2967:	  06F0	22		   RET
 2968:
 2969:
 2970:	  06F1			   RESET_SERIAL_COMMUNICATION:
 2971:
 2972:	  06F1	12 06 F5	   LCALL   INITALISE_RECEIVE
 2973:	  06F4	22		   RET
 2974:
 2975:				;-----------------------------------------------------------------
 2976:
 2977:	  06F5			   INITALISE_RECEIVE:
 2978:
 2979:	  06F5	C2 AC		   CLR    IE.4                                             ;LCALL	DISABLE_SERIAL

 2980:	  06F7	C2 05			CLR	 LAST_BYTE
 2981:	  06F9	C2 01			CLR	 TRANS_OVER
 2982:	  06FB	12 00 48		LCALL  INIT_1

 2983:	  06FE	74 00			MOV    A,#0
 2984:	  0700	F5 08			MOV    BYTE_CNT,A
 2985:	  0702	12 00 7E		LCALL  INIT_RCVE              			      ;initialises serial reception from mas
				ter(rtu)
 2986:	  0705	C2 06			CLR    DELAY_OVER
 2987:	  0707	75 0F FF		MOV    COUNT_1S,#0FFH
 2988:
 2989:	  070A	22			RET
 2990:
 2991:
 2992:				;---------------------------------------------------------------------------
 2993:				;THIS PROGRAM CALCULATES THE DPTR START ADDRESS
 2994:				;---------------------------------------------------------------------------
 2995:
 2996:	  070B			   CAL_START_ADDRESS:
 2997:
 2998:	  070B	A3		   INC    DPTR
 2999:	  070C	12 07 EE	   LCALL  ASCII_TO_HEX
 3000:	  070F	C3		   CLR    C
 3001:	  0710	33		   RLC    A
 3002:	  0711	F5 10		   MOV    TEMP1,A
 3003:	  0713	12 07 EE	   LCALL  ASCII_TO_HEX

ASEM-51 V1.3                                        Copyright (c) 2002 by W.W. Heinz                                         PAGE 55



 Line  I  Addr  Code            Source

 3004:	  0716	C3		   CLR    C
 3005:	  0717	33		   RLC    A                 ;MULTIPLY BY 2
 3006:	  0718	F5 11		   MOV    TEMP2,A
 3007:	  071A	E5 10		   MOV    A,TEMP1
 3008:	  071C	34 00		   ADDC   A,#0
 3009:	  071E	F5 10		   MOV    TEMP1,A
 3010:	  0720	22		   RET
 3011:				;---------------------------------------------------------------
 3012:				;THIS ROUTINE LOADS THE HEADER & THE SLAVE ID FOR EACH QUERY
 3013:				;---------------------------------------------------------------
 3014:	  0721				HEADER_SLAVE_ID:
 3015:
 3016:	  0721	90 05 00		MOV   DPTR,#TX_BUF
 3017:	  0724	74 3A		   MOV   A,#HEADER
 3018:	  0726	F0			MOVX  @DPTR,A              ;
 3019:	  0727	A3			INC   DPTR
 3020:				;-------------------------------------------------
 3021:	  0728	74 30		   MOV   A,#30H
 3022:	  072A	F0			MOVX  @DPTR,A  ;SLAVE ADDRESS
 3023:	  072B	A3			INC   DPTR
 3024:	  072C	74 31			MOV   A,#31H
 3025:	  072E	F0			MOVX  @DPTR,A  ;
 3026:	  072F	22		   RET
 3027:
 3028:				;-----------------------------------------------------------------------------------------------
 3029:				;isr for serial interrupt
 3030:				;-----------------------------------------------------------------------------------------------
 3031:
 3032:		N      0000	   R0_ADDR     EQU   00H
 3033:
 3034:	  0730			   SERIAL:
 3035:
 3036:
 3037:
 3038:	  0730	20 99 04		JB	   TI,LOOP1_SERIAL
 3039:	  0733	20 98 0D		JB	   RI,RCVE
 3040:
 3041:				  ; OUT_ISR:
 3042:
 3043:
 3044:	  0736	32			RETI
 3045:				;--------------------------------------
 3046:				;PROGRAM FOR TRANSMISSION
 3047:				;--------------------------------------
 3048:
 3049:	  0737			   LOOP1_SERIAL:
 3050:
 3051:	  0737	30 05 05		JNB	LAST_BYTE,LOOP2_SERIAL
 3052:	  073A	D2 01			SETB	TRANS_OVER
 3053:	  073C	C2 99			CLR   TI
 3054:	  073E	32			RETI
 3055:
 3056:	  073F			   LOOP2_SERIAL:
 3057:
 3058:	  073F	12 07 6A		LCALL	TRANS
 3059:	  0742	32			RETI

ASEM-51 V1.3                                        Copyright (c) 2002 by W.W. Heinz                                         PAGE 56



 Line  I  Addr  Code            Source

 3060:				;-----------------------------------------------
 3061:				;PROGRAM FOR RECEIVING DATA ON THE SERIAL PORT
 3062:				;-----------------------------------------------
 3063:
 3064:	  0743			   RCVE:
 3065:
 3066:	  0743	C0 D0			PUSH  PSW
 3067:				;	PUSH  R0_ADDR
 3068:	  0745	C0 83			PUSH  DPH
 3069:	  0747	C0 82			PUSH  DPL
 3070:
 3071:	  0749	C0 E0			PUSH  ACC
 3072:	  074B	90 04 00		MOV   DPTR,#RX_BUF
 3073:	  074E	E5 82			MOV   A,DPL
 3074:	  0750	C3			CLR   C
 3075:	  0751	25 08			ADD   A,BYTE_CNT
 3076:	  0753	F5 82			MOV   DPL,A
 3077:	  0755	E5 99			MOV	A,SBUF				;get data from serial port into a
 3078:	  0757	F0			MOVX	@DPTR,A				;load data to ram starting from 25h
 3079:				;	INC	DPTR
 3080:
 3081:	  0758	05 08			INC	BYTE_CNT
 3082:	  075A	B4 0A 02		CJNE	A,#END_CHARACTER_2,OUT_RCVE	  ;
 3083:	  075D	D2 00			SETB	RCVE_OVER
 3084:
 3085:	  075F			   OUT_RCVE:
 3086:
 3087:	  075F	D0 E0			POP   ACC
 3088:	  0761	D0 82			POP   DPL
 3089:	  0763	D0 83			POP   DPH
 3090:	  0765	D0 D0		   POP   PSW
 3091:	  0767	C2 98		   CLR   RI
 3092:	  0769	32			RETI
 3093:
 3094:				;-----------------------------------------------------------------
 3095:				;THIS ROUTINE TRANSFER THE DATA FROM TX_BUF TO SERIAL PORT
 3096:				;-----------------------------------------------------------------
 3097:	  076A			   TRANS:
 3098:
 3099:	  076A	C0 D0		   PUSH  PSW
 3100:	  076C	C0 E0			PUSH	ACC
 3101:	  076E	C0 83			PUSH  DPH
 3102:	  0770	C0 82			PUSH  DPL
 3103:	  0772	C2 99			CLR   TI
 3104:	  0774	90 05 00	   MOV   DPTR,#TX_BUF
 3105:	  0777	C3		   CLR   C
 3106:	  0778	E5 82		   MOV   A,DPL
 3107:	  077A	25 08		   ADD   A,BYTE_CNT
 3108:	  077C	F5 82		   MOV   DPL,A
 3109:	  077E	E0		   MOVX	A,@DPTR
 3110:	  077F	F5 99			MOV	SBUF,A
 3111:				;	INC	DPTR
 3112:	  0781	05 08		   INC   BYTE_CNT
 3113:
 3114:	  0783			   LOOP2_TRANS:
 3115:

ASEM-51 V1.3                                        Copyright (c) 2002 by W.W. Heinz                                         PAGE 57



 Line  I  Addr  Code            Source

 3116:	  0783	B4 0A 02		CJNE	A,#END_CHARACTER_2,OUT_TRANS
 3117:
 3118:	  0786			   LOOP3_TRANS:
 3119:
 3120:	  0786	D2 05			SETB	LAST_BYTE
 3121:
 3122:	  0788			   OUT_TRANS:
 3123:
 3124:	  0788	D0 82		   POP   DPL
 3125:	  078A	D0 83		   POP   DPH
 3126:	  078C	D0 E0			POP	ACC
 3127:	  078E	D0 D0			POP   PSW
 3128:	  0790	22			RET
 3129:
 3130:
 3131:				;---------------------------------------------------------------------------------
 3132:				;data converted into ascii format which is to be xmitted to slave
 3133:				;is stored from 40h
 3134:				;storeslrc code  &  crlf at the end
 3135:				;---------------------------------------------------------------------------------
 3136:
 3137:	  0791			   ADD_LRC_ASC:
 3138:
 3139:				;	push	psw
 3140:
 3141:				;	mov	psw,#10h			;select reg bank 02
 3142:	  0791	90 05 00		MOV	DPTR,#TX_BUF			;starting addr of ram where ascii code is stored
 3143:	  0794	E5 82		   MOV   A,DPL
 3144:	  0796	2F		   ADD   A,R7
 3145:	  0797	F5 82		   MOV   DPL,A
 3146:	  0799	E5 83		   MOV   A,DPH
 3147:	  079B	34 00		   ADDC  A,#0
 3148:	  079D	F5 83		   MOV   DPH,A
 3149:	  079F	E5 0D		   MOV   A,LRC_HI
 3150:	  07A1	F0		   MOVX  @DPTR,A
 3151:	  07A2	A3		   INC   DPTR
 3152:	  07A3	E5 0E		   MOV   A,LRC_LO
 3153:	  07A5	F0		   MOVX  @DPTR,A
 3154:	  07A6	A3			INC   DPTR	                           ;store clrc_hi
 3155:	  07A7	74 0D		   MOV   A,#END_CHARACTER_1
 3156:	  07A9	F0		   MOVX  @DPTR,A
 3157:	  07AA	A3		   INC   DPTR
 3158:	  07AB	74 0A		   MOV   A,#END_CHARACTER_2
 3159:	  07AD	F0		   MOVX  @DPTR,A
 3160:
 3161:	  07AE	22			RET
 3162:
 3163:
 3164:
 3165:				;---------------------------------------------------------------------------------
 3166:				;the byte to be converted is in a
 3167:				;---------------------------------------------------------------------------------
 3168:	  07AF			   conv_asc:
 3169:
 3170:	  07AF	90 07 B4		MOV	DPTR,#LUT_RTU_ASC
 3171:	  07B2	93			MOVC	A,@A+DPTR

ASEM-51 V1.3                                        Copyright (c) 2002 by W.W. Heinz                                         PAGE 58



 Line  I  Addr  Code            Source

 3172:	  07B3	22		   RET
 3173:
 3174:	  07B4			   LUT_RTU_ASC:
 3175:
 3176:	  07B4	30			db	30h	;0
 3177:	  07B5	31			db	31h	;1
 3178:	  07B6	32			db	32h	;2
 3179:	  07B7	33			db	33h	;3
 3180:	  07B8	34			db	34h	;4
 3181:	  07B9	35			db	35h	;5
 3182:	  07BA	36			db	36h	;6
 3183:	  07BB	37			db	37h	;7
 3184:	  07BC	38			db	38h	;8
 3185:	  07BD	39			db	39h	;9
 3186:	  07BE	41			db	41h	;A
 3187:	  07BF	42			db	42h	;B
 3188:	  07C0	43			db	43h	;C
 3189:	  07C1	44			db	44h	;D
 3190:	  07C2	45			db	45h	;E
 3191:	  07C3	46			db	46h	;F
 3192:
 3193:				;-----------------------------------------------------------------------------------------------
 3194:				;this function calculates lrc code of ascii data received from slave
 3195:				;and the data which has to be sent to slave
 3196:				;-----------------------------------------------------------------------------------------------
 3197:
 3198:	  07C4			   CAL_LRC:
 3199:
 3200:	  07C4	EF			MOV   A,R7
 3201:	  07C5	C3			CLR   C
 3202:	  07C6	03			RR    A
 3203:	  07C7	FF			MOV   R7,A
 3204:
 3205:	  07C8	74 00			MOV	A,#00H
 3206:
 3207:	  07CA			   LOOP1_CALLRC:					;add all data bytes
 3208:
 3209:	  07CA	F5 F0		   MOV   B,A
 3210:	  07CC	E0		   MOVX  A,@DPTR
 3211:	  07CD	12 07 EE		LCALL ASCII_TO_HEX
 3212:	  07D0	C3			CLR   C
 3213:	  07D1	25 F0			ADD	A,B
 3214:				;	INC	DPTR
 3215:	  07D3	DF F5			DJNZ	R7,LOOP1_CALLRC
 3216:	  07D5	F4			CPL	A
 3217:	  07D6	04			INC	A
 3218:	  07D7	F5 0C			MOV	LRC_CODE,A
 3219:	  07D9	85 0C 09		MOV	TEMP,LRC_CODE
 3220:	  07DC	54 F0			ANL	A,#0F0H
 3221:	  07DE	C4			SWAP	A
 3222:	  07DF	12 07 AF		LCALL	CONV_ASC
 3223:	  07E2	F5 0D			MOV	LRC_HI,A
 3224:	  07E4	E5 09			MOV	A,TEMP
 3225:	  07E6	54 0F			ANL	A,#0FH
 3226:	  07E8	12 07 AF		LCALL CONV_ASC
 3227:	  07EB	F5 0E		   MOV	LRC_LO,A

ASEM-51 V1.3                                        Copyright (c) 2002 by W.W. Heinz                                         PAGE 59



 Line  I  Addr  Code            Source

 3228:
 3229:	  07ED	22			RET
 3230:
 3231:				;****************************************************************************
 3232:				;INPUTS R0 -> LOCATION CONTAINING ASCII CHARACTERS HIGHER BYTE FIRST, LOWER BYTE NEXT
 3233:				;OUTPUT A = ASSEMBLED HEX CHARACTER
 3234:				;USES R2,A
 3235:				;****************************************************************************
 3236:	  07EE			   ASCII_TO_HEX:
 3237:
 3238:	  07EE	E0		   MOVX    A,@DPTR
 3239:	  07EF	C3			CLR     C
 3240:	  07F0	94 30			SUBB    A,#30H
 3241:	  07F2	B4 0A 00		CJNE    A,#10,A_T_H_1
 3242:
 3243:	  07F5			   A_T_H_1:
 3244:
 3245:	  07F5	40 02		   JC      A_T_H_2
 3246:	  07F7	94 07			SUBB    A,#7
 3247:
 3248:	  07F9			   A_T_H_2:
 3249:
 3250:	  07F9	C4		   SWAP    A
 3251:	  07FA	FA			MOV     R2,A
 3252:	  07FB	A3			INC     DPTR
 3253:	  07FC	E0			MOVX    A,@DPTR
 3254:	  07FD	A3			INC     DPTR
 3255:	  07FE	C3			CLR     C
 3256:	  07FF	94 30			SUBB    A,#30H
 3257:	  0801	B4 0A 00		CJNE    A,#10,A_T_H_3
 3258:
 3259:	  0804			   A_T_H_3:
 3260:
 3261:	  0804	40 02		   JC      A_T_H_4
 3262:	  0806	94 07			SUBB    A,#7
 3263:
 3264:	  0808			   A_T_H_4:
 3265:
 3266:	  0808	4A		   ORL     A,R2
 3267:	  0809	22			RET
 3268:				;****************************************************************************
 3269:				;INPUTS A = HEX DATA R0 -> LOCATION IN TX_BUF TO STORE ASCII DATA
 3270:				;****************************************************************************
 3271:	  080A			   HEX_TO_ASCII:
 3272:
 3273:	  080A	C0 E0		   PUSH    ACC
 3274:	  080C	54 F0			ANL     A,#0F0H
 3275:	  080E	C4			SWAP    A
 3276:	  080F	24 30			ADD     A,#30H
 3277:	  0811	B4 3A 00		CJNE    A,#3AH,H_T_A_1
 3278:
 3279:	  0814			   H_T_A_1:
 3280:
 3281:	  0814	40 02		   JC      H_T_A_2
 3282:	  0816	24 07			ADD     A,#7
 3283:

ASEM-51 V1.3                                        Copyright (c) 2002 by W.W. Heinz                                         PAGE 60



 Line  I  Addr  Code            Source

 3284:	  0818			   H_T_A_2:
 3285:
 3286:	  0818	F0		   MOVX    @DPTR,A
 3287:	  0819	A3			INC     DPTR
 3288:	  081A	D0 E0			POP     ACC
 3289:	  081C	54 0F			ANL     A,#0FH
 3290:	  081E	24 30			ADD     A,#30H
 3291:	  0820	B4 3A 00		CJNE    A,#3AH,H_T_A_3
 3292:
 3293:	  0823			   H_T_A_3:
 3294:
 3295:	  0823	40 02		   JC      H_T_A_4
 3296:	  0825	24 07			ADD     A,#7
 3297:
 3298:	  0827			   H_T_A_4:
 3299:
 3300:	  0827	F0		   MOVX    @DPTR,A
 3301:	  0828	A3			INC     DPTR
 3302:	  0829	22			RET
 3303:				;***************************************************************************
 3304:				;THIS ROUTINE DIVIDES ONE 16 BIT NUMBER BY ANOTHER
 3305:				;R7  = LOOP COUNT
 3306:				;RSLT_0 = LSB OF DIVIDEND/QUOTIENT
 3307:				;RSLT_1 = MSB OF DIVIDEND/QUOTIENT
 3308:				;R2 = LSB OF DIVISOR
 3309:				;R3 = MSB OF DIVISOR
 3310:				;R4 = LSB OF REMAINDER
 3311:				;R5 = MSB OF REMAINDER
 3312:				;TEMP_0 = TEMP. (LSB OF REMAINDER)
 3313:				;TEMP_1 = TEMP. (MSB OF REMAINDER)
 3314:				;***************************************************************************
 3315:	  082A	C3		DIV_16BIT:	CLR	C
 3316:	  082B	7F 10			MOV	R7,#16
 3317:	  082D	7C 00			MOV	R4,#0
 3318:	  082F	7D 00			MOV	R5,#0
 3319:	  0831	E5 1A		ADIVLOOP:	MOV	A,RSLT_0
 3320:	  0833	33			RLC	A
 3321:	  0834	F5 1A			MOV	RSLT_0,A
 3322:	  0836	E5 1B			MOV	A,RSLT_1
 3323:	  0838	33			RLC	A
 3324:	  0839	F5 1B			MOV	RSLT_1,A
 3325:	  083B	EC			MOV	A,R4
 3326:	  083C	33			RLC	A
 3327:	  083D	FC			MOV	R4,A
 3328:	  083E	F5 10			MOV	TEMP1,A
 3329:	  0840	ED			MOV	A,R5
 3330:	  0841	33			RLC	A
 3331:	  0842	FD			MOV	R5,A
 3332:	  0843	F5 11			MOV	TEMP2,A
 3333:	  0845	EC			MOV	A,R4
 3334:	  0846	9A			SUBB	A,R2
 3335:	  0847	FC			MOV	R4,A
 3336:	  0848	ED			MOV	A,R5
 3337:	  0849	9B			SUBB	A,R3
 3338:	  084A	FD			MOV	R5,A
 3339:	  084B	B3			CPL	C

ASEM-51 V1.3                                        Copyright (c) 2002 by W.W. Heinz                                         PAGE 61



 Line  I  Addr  Code            Source

 3340:	  084C	40 06			JC	ADROP
 3341:	  084E	E5 10			MOV	A,TEMP1
 3342:	  0850	FC			MOV	R4,A
 3343:	  0851	E5 11			MOV	A,TEMP2
 3344:	  0853	FD			MOV	R5,A
 3345:	  0854	DF DB		ADROP:	DJNZ	R7,ADIVLOOP
 3346:	  0856	E5 1A			MOV	A,RSLT_0
 3347:	  0858	33			RLC	A
 3348:	  0859	F5 1A			MOV	RSLT_0,A
 3349:	  085B	E5 1B			MOV	A,RSLT_1
 3350:	  085D	33			RLC	A
 3351:	  085E	F5 1B			MOV	RSLT_1,A
 3352:	  0860	22			RET
 3353:				;******************************************************************************
 3354:				;COMPARE:	THIS ROUTINE COMPARES TWO NUBER STORED IN LOCATION <R3><R2> AND
 3355:				;	<R5><R4> RESULT OF COPARISON IS GIVEN THROUGH RELAY.
 3356:				;	RLY43 IS SET IF <R3><R2> < <R5><R4>
 3357:				;	RLY44 IS SET IF <R3><R2> = <R5><R4>
 3358:				;	RLY45 IS SET IF <R3><R2> > <R5><R4>
 3359:				;REGISTER USED: A,PSW
 3360:		N      0004	NUM1L			EQU	04
 3361:		N      0005	NUM1H			EQU	05
 3362:		N      0002	NUM2L			EQU	02
 3363:		N      0003	NUM2H			EQU	03
 3364:				;*****************************************************************************
 3365:
 3366:	  0861			   COMPARE:
 3367:
 3368:	  0861	C2 78		   CLR	RLY33
 3369:	  0863	C2 79			CLR	RLY34
 3370:	  0865	C2 7A			CLR	RLY35
 3371:	  0867	EA			MOV	A,R2
 3372:	  0868	C3			CLR	C
 3373:	  0869	9C			SUBB	A,R4
 3374:	  086A	FE			MOV	R6,A
 3375:	  086B	EB			MOV	A,R3
 3376:	  086C	9D			SUBB	A,R5
 3377:	  086D	50 03			JNC	NOT_LESS
 3378:	  086F	D2 78			SETB	RLY33
 3379:	  0871	22			RET
 3380:
 3381:	  0872			   NOT_LESS:
 3382:
 3383:	  0872	4E		   ORL	A,R6
 3384:	  0873	70 03			JNZ	NOT_EQUAL
 3385:	  0875	D2 79			SETB	RLY34
 3386:	  0877	22			RET
 3387:
 3388:	  0878			   NOT_EQUAL:
 3389:
 3390:	  0878	D2 7A		   SETB	RLY35
 3391:	  087A	22			RET
 3392:
 3393:
 3394:				;----------------------------------------------------
 3395:				;OUTPUT

ASEM-51 V1.3                                        Copyright (c) 2002 by W.W. Heinz                                         PAGE 62



 Line  I  Addr  Code            Source

 3396:				;----------------------------------------------------
 3397:	  087B			   LOAD_OUTPUT:
 3398:
 3399:	  087B	20 07 05	   JB    B_FIRST_CYCLE,LOAD_OPS
 3400:	  087E	E4		   CLR   A
 3401:	  087F	D2 B5		   SETB  P3.5
 3402:	  0881	80 22		   SJMP  DONT_LOAD_OPS
 3403:
 3404:	  0883			   LOAD_OPS:
 3405:
 3406:	  0883	C2 B5		   CLR    P3.5
 3407:	  0885	78 27		   MOV    R0,#OUT0_7
 3408:	  0887	E6		   MOV    A,@R0
 3409:	  0888	90 5F 00	   MOV    DPTR,#OUTPUT00_07
 3410:	  088B	F0		   MOVX   @DPTR,A
 3411:	  088C	90 E8 00	   MOV    DPTR,#OUTPUT_ADDRESS
 3412:	  088F	F0		   MOVX   @DPTR,A
 3413:	  0890	78 2C		   MOV    R0,#OUT8_15
 3414:	  0892	E6		   MOV    A,@R0
 3415:	  0893	90 5F 01	   MOV    DPTR,#OUTPUT08_15
 3416:	  0896	F0		   MOVX   @DPTR,A
 3417:	  0897	90 E8 01	   MOV    DPTR,#OUTPUT_ADDRESS+1
 3418:	  089A	F0		   MOVX   @DPTR,A
 3419:	  089B	E5 30		   MOV    A,OUT16_23
 3420:	  089D	90 5F 02	   MOV    DPTR,#OUTPUT16_23
 3421:	  08A0	F0		   MOVX   @DPTR,A
 3422:	  08A1	90 E8 02	   MOV    DPTR,#OUTPUT_ADDRESS+2
 3423:	  08A4	F0		   MOVX   @DPTR,A
 3424:
 3425:	  08A5			   DONT_LOAD_OPS:
 3426:
 3427:
 3428:	  08A5	22		   RET
 3429:				;-----------------------------------------------------
 3430:	  08A6			   READ_INPUTS:
 3431:
 3432:	  08A6	E5 37		  	MOV    A,IP_DEBOUNCE
 3433:	  08A8	C3		  	CLR    C
 3434:	  08A9	94 32		  	SUBB   A,#50
 3435:	  08AB	50 25		  	JNC    NOT_MY_SCAN
 3436:	  08AD	75 37 00	  	MOV    IP_DEBOUNCE,#0
 3437:				;----------------------------------
 3438:
 3439:	  08B0	90 F8 00	  	MOV    DPTR,#INPUT_ADDRESS
 3440:	  08B3	E0			MOVX	 A,@DPTR
 3441:	  08B4	F4			CPL	 A
 3442:	  08B5	FA			MOV	 R2,A
 3443:	  08B6	55 1E		   ANL	A,PREV_DCINP0	;ONLY THOSE LOCATION WHITCH ARE
 3444:	  08B8	F5 29			MOV   DC_INPUT0,A
 3445:	  08BA	EA			MOV   A,R2
 3446:	  08BB	F5 1E			MOV   PREV_DCINP0,A
 3447:				;---------------------------------------
 3448:	  08BD	A3			INC   DPTR
 3449:	  08BE	E0			MOVX  A,@DPTR
 3450:	  08BF	F4			CPL	A
 3451:	  08C0	FA			MOV	R2,A

ASEM-51 V1.3                                        Copyright (c) 2002 by W.W. Heinz                                         PAGE 63



 Line  I  Addr  Code            Source

 3452:	  08C1	55 1F		   ANL	A,PREV_DCINP1	;ONLY THOSE LOCATION WHITCH ARE
 3453:	  08C3	F5 2A		   MOV   DC_INPUT1,A
 3454:	  08C5	EA		   MOV   A,R2
 3455:	  08C6	F5 1F		   MOV   PREV_DCINP1,A
 3456:				;----------------------------------
 3457:
 3458:	  08C8	90 0F 00	   MOV   DPTR,#BIT_START_ADDRESS_INPUT
 3459:	  08CB	E5 29		   MOV   A,DC_INPUT0              ;R1
 3460:	  08CD	F0		   MOVX  @DPTR,A
 3461:
 3462:	  08CE	E5 2A		   MOV   A,DC_INPUT1              ;R2
 3463:	  08D0	A3		   INC   DPTR
 3464:	  08D1	F0		   MOVX  @DPTR,A
 3465:
 3466:	  08D2			   NOT_MY_SCAN:
 3467:
 3468:
 3469:
 3470:	  08D2	22			RET
 3471:				;-----------------------------------------------------
 3472:	  08D3			   READ_ADC:
 3473:
 3474:	  08D3	90 F8 18	   MOV   DPTR,#TEMP_IP_12_L
 3475:	  08D6	E0		   MOVX  A,@DPTR
 3476:	  08D7	FC		   MOV   R4,A
 3477:	  08D8	90 F8 19	   MOV   DPTR,#TEMP_IP_12_H
 3478:	  08DB	E0		   MOVX  A,@DPTR
 3479:	  08DC	FD		   MOV   R5,A
 3480:	  08DD	54 70		   ANL   A,#70H
 3481:	  08DF	C4		   SWAP  A
 3482:	  08E0	F5 31		   MOV   A2D_CHANNEL,A
 3483:	  08E2	ED		   MOV   A,R5
 3484:	  08E3	54 0F		   ANL   A,#0FH
 3485:	  08E5	FD		   MOV   R5,A
 3486:	  08E6	EC		   MOV   A,R4
 3487:	  08E7	FC		   MOV   R4,A
 3488:
 3489:	  08E8	90 24 20	   MOV   DPTR,#ZONE1_COUNTS_H
 3490:	  08EB	E5 31		   MOV   A,A2D_CHANNEL      ; MULTIPLY BY 2 AS 2 LOCATIONS PER CHANNEL
 3491:	  08ED	25 31		   ADD   A,A2D_CHANNEL
 3492:	  08EF	F8		   MOV   R0,A
 3493:	  08F0	E5 82		   MOV   A,DPL
 3494:	  08F2	C3		   CLR   C
 3495:	  08F3	28		   ADD   A,R0
 3496:	  08F4	F5 82		   MOV   DPL,A
 3497:	  08F6	ED		   MOV   A,R5
 3498:	  08F7	F0		   MOVX  @DPTR,A
 3499:	  08F8	A3		   INC   DPTR
 3500:	  08F9	EC		   MOV   A,R4
 3501:	  08FA	F0		   MOVX  @DPTR,A
 3502:	  08FB	22		   RET
 3503:				;-----------------------------------------------------
 3504:	  08FC			   MULTIPLICATION:
 3505:	  08FC	75 F0 10		MOV	B,#16
 3506:	  08FF	E4			CLR	A
 3507:	  0900	FF			MOV	R7,A

ASEM-51 V1.3                                        Copyright (c) 2002 by W.W. Heinz                                         PAGE 64



 Line  I  Addr  Code            Source

 3508:	  0901	FE			MOV	R6,A
 3509:	  0902	FD			MOV	R5,A
 3510:	  0903	FC			MOV	R4,A
 3511:	  0904	C3			CLR	C
 3512:
 3513:	  0905			   CONT_MUL_32:
 3514:
 3515:	  0905	EA		   MOV	A,R2
 3516:	  0906	33			RLC	A
 3517:	  0907	FA			MOV	R2,A
 3518:	  0908	EB			MOV	A,R3
 3519:	  0909	33			RLC	A
 3520:	  090A	FB			MOV	R3,A
 3521:	  090B	50 10			JNC	ZERO_BIT_32
 3522:	  090D	EC			MOV	A,R4
 3523:	  090E	28			ADD	A,R0
 3524:	  090F	FC			MOV	R4,A
 3525:	  0910	ED			MOV	A,R5
 3526:	  0911	39			ADDC	A,R1
 3527:	  0912	FD			MOV	R5,A
 3528:	  0913	EE			MOV	A,R6
 3529:	  0914	34 00			ADDC	A,#0
 3530:	  0916	FE			MOV	R6,A
 3531:	  0917	EF			MOV	A,R7
 3532:	  0918	34 00			ADDC	A,#0
 3533:	  091A	FF			MOV	R7,A
 3534:	  091B	40 04			JC	   MUL_OV_32
 3535:
 3536:	  091D			   ZERO_BIT_32:
 3537:
 3538:	  091D	D5 F0 02	   DJNZ	B,MOV_RES_LEFT
 3539:	  0920	C3			CLR	C
 3540:
 3541:	  0921			   MUL_OV_32:
 3542:
 3543:	  0921	22		   RET
 3544:
 3545:	  0922			   MOV_RES_LEFT:
 3546:
 3547:	  0922	C3		   CLR	C
 3548:	  0923	EC			MOV	A,R4
 3549:	  0924	33			RLC	A
 3550:	  0925	FC			MOV	R4,A
 3551:	  0926	ED			MOV	A,R5
 3552:	  0927	33			RLC	A
 3553:	  0928	FD			MOV	R5,A
 3554:	  0929	EE			MOV	A,R6
 3555:	  092A	33			RLC	A
 3556:	  092B	FE			MOV	R6,A
 3557:	  092C	EF			MOV	A,R7
 3558:	  092D	33			RLC	A
 3559:	  092E	FF			MOV	R7,A
 3560:	  092F	80 D4			SJMP	CONT_MUL_32
 3561:				;----------------------------------------------------
 3562:	  0931			   LOOK_UP_TABLE:
 3563:

ASEM-51 V1.3                                        Copyright (c) 2002 by W.W. Heinz                                         PAGE 65



 Line  I  Addr  Code            Source

 3564:	  0931	04		   INC   A
 3565:	  0932	83		   MOVC  A,@A+PC
 3566:	  0933	22		   RET
 3567:
 3568:	  0934	00		   DB   00
 3569:	  0935	28		   DB   40
 3570:	  0936	50		   DB   80
 3571:	  0937	78		   DB   120
 3572:	  0938	A0		   DB   160
 3573:	  0939	C8		   DB   200
 3574:				  ; DB   200
 3575:				  ; DB   200
 3576:				  ; DB   160
 3577:				  ; DB   160
 3578:				  ; DB   160
 3579:				  ; DB   200
 3580:
 3581:				;------------------------------------------------------
 3582:				;THIS WATCHDOG PROGRAM IS FOE 89V51RD2 & SST89E516RD2
 3583:
 3584:	  093A			   RESET_WATCHDOG:
 3585:
 3586:	  093A	E5 C0		   MOV   A,0C0H
 3587:	  093C	D2 E1		   SETB  ACC.1
 3588:	  093E	F5 C0		   MOV   0C0H,A
 3589:	  0940	22		   RET
 3590:				;-----------------------------------------------------
 3591:				 ;  ENABLE_WATCHDOG:
 3592:
 3593:				 ;  MOV   A,#0C0H
 3594:				;   CLR   ACC.1
 3595:				 ;  MOV   0C0H,A
 3596:				;   RET
 3597:				;--------------------------------------------------------------------------
 3598:				;IF 89S52 IS USED ACTIVATE THE BELOW ROUTINE & DISABLE THE 89V51RD2 ROUTINE
 3599:				;--------------------------------------------------------------------------
 3600:				  ; MOV               085H,#0H
 3601:				  ; MOV               0A6H,#0E1H               ;0A6H IS A WATCH DOG REGISTER
 3602:				  ; RET
 3603:				;--------------------------------------------------------------------
 3604:
 3605:
 3606:	  0941			   TMR_HANDLER:
 3607:
 3608:
 3609:
 3610:	  0941	E5 0A		   MOV   A,TIMECT
 3611:	  0943	C3		   CLR   C
 3612:	  0944	C2 03		   CLR   TEN_MSEC_BIT
 3613:	  0946	B4 0A 00	   CJNE  A,#10,TIME_LESS_TEM_MILLISEC
 3614:
 3615:	  0949			   TIME_LESS_TEM_MILLISEC:
 3616:
 3617:	  0949	40 09		   JC    NOT_10MSEC
 3618:	  094B	D2 7F		   SETB  RLY40
 3619:	  094D	D2 03		   SETB  TEN_MSEC_BIT

ASEM-51 V1.3                                        Copyright (c) 2002 by W.W. Heinz                                         PAGE 66



 Line  I  Addr  Code            Source

 3620:	  094F	C3		  	CLR   C
 3621:	  0950	94 0A		  	SUBB  A,#10
 3622:	  0952	F5 0A		  	MOV   TIMECT,A
 3623:
 3624:	  0954			   NOT_10MSEC:
 3625:
 3626:				;--------------------------------------------------------------------------
 3627:	  0954			   TM00_HANDLER:
 3628:
 3629:	  0954	30 10 41	   JNB	TM00E,TMR0_NOT_ENABLED
 3630:	  0957	20 11 47		JB	   TM00D,TM01_HANDLER
 3631:	  095A	30 03 44	   JNB   TEN_MSEC_BIT,TM01_HANDLER
 3632:				;--------------------------------------------------------------
 3633:	  095D	90 23 89		MOV   DPTR,#TMC00L
 3634:	  0960	E0		   MOVX  A,@DPTR
 3635:	  0961	C3			CLR   C
 3636:	  0962	24 01			ADD	A,#01
 3637:	  0964	F0			MOVX	@DPTR,A
 3638:	  0965	90 23 88	   MOV   DPTR,#TMC00H
 3639:	  0968	E0		   MOVX  A,@DPTR
 3640:	  0969	34 00		   ADDC 	A,#0
 3641:	  096B	F0			MOVX	@DPTR,A
 3642:
 3643:	  096C	90 23 88		MOV   DPTR,#TMC00H
 3644:	  096F	E0			MOVX  A,@DPTR
 3645:	  0970	F5 F0			MOV   B,A
 3646:	  0972	90 10 50	   MOV   DPTR,#TMS00H
 3647:	  0975	E0		   MOVX  A,@DPTR
 3648:	  0976	B5 F0 02	   CJNE  A,B,CHK_TMC00H                    ;TMR00_NOT_DONE
 3649:	  0979	80 04			SJMP  CHK_TMC00L
 3650:
 3651:	  097B			   CHK_TMC00H:
 3652:
 3653:	  097B	40 17		   JC	   SET_TMR_DONE
 3654:	  097D	50 11		   JNC   TMR00_NOT_DONE
 3655:
 3656:	  097F			   CHK_TMC00L:
 3657:
 3658:	  097F	90 23 89	   MOV   DPTR,#TMC00L
 3659:	  0982	E0		   MOVX	A,@DPTR                               ;A,TMC00L
 3660:	  0983	F5 F0			MOV   B,A
 3661:	  0985	90 10 51		MOV   DPTR,#TMS00L
 3662:	  0988	E0			MOVX  A,@DPTR
 3663:	  0989	B5 F0 02		CJNE  A,B,CHECK_CARRY
 3664:	  098C	80 06			SJMP  SET_TMR_DONE
 3665:
 3666:	  098E				CHECK_CARRY:
 3667:
 3668:	  098E	40 04			JC	   SET_TMR_DONE
 3669:
 3670:	  0990			   TMR00_NOT_DONE:
 3671:
 3672:	  0990	C2 11			CLR	TM00D
 3673:	  0992	80 0D			SJMP	TM01_HANDLER
 3674:
 3675:	  0994			   SET_TMR_DONE:

ASEM-51 V1.3                                        Copyright (c) 2002 by W.W. Heinz                                         PAGE 67



 Line  I  Addr  Code            Source

 3676:
 3677:	  0994	D2 11		   SETB	TM00D
 3678:	  0996	80 09			SJMP	TM01_HANDLER
 3679:
 3680:	  0998			   TMR0_NOT_ENABLED:
 3681:
 3682:	  0998	C2 11			CLR	TM00D
 3683:	  099A	E4		   CLR   A
 3684:	  099B	90 23 88	   MOV   DPTR,#TMC00H
 3685:	  099E	F0		   MOVX  @DPTR,A
 3686:	  099F	A3		   INC   DPTR
 3687:	  09A0	F0		   MOVX  @DPTR,A
 3688:
 3689:
 3690:
 3691:				;---------------------------------------------------------------------------------------
 3692:	  09A1				TM01_HANDLER:
 3693:
 3694:	  09A1	30 12 42		JNB	TM01E,TMR1_NOT_ENABLED
 3695:	  09A4	20 13 48		JB	   TM01D,TM02_HANDLER
 3696:	  09A7	30 03 45		JNB   TEN_MSEC_BIT,TM02_HANDLER
 3697:	  09AA	C3			CLR	C
 3698:	  09AB	90 23 8B		MOV   DPTR,#TMC01L
 3699:	  09AE	E0		   MOVX  A,@DPTR
 3700:	  09AF	C3			CLR   C
 3701:	  09B0	24 01			ADD	A,#01
 3702:	  09B2	F0			MOVX	@DPTR,A
 3703:	  09B3	90 23 8A	   MOV   DPTR,#TMC01H
 3704:	  09B6	E0		   MOVX  A,@DPTR
 3705:	  09B7	34 00		   ADDC 	A,#0
 3706:	  09B9	F0			MOVX	@DPTR,A
 3707:
 3708:	  09BA	90 23 8A		MOV   DPTR,#TMC01H
 3709:	  09BD	E0			MOVX  A,@DPTR
 3710:	  09BE	F5 F0			MOV   B,A
 3711:	  09C0	90 10 52	   MOV   DPTR,#TMS01H
 3712:	  09C3	E0		   MOVX  A,@DPTR
 3713:	  09C4	B5 F0 02	   CJNE  A,B,CHK_TMC01H                    ;TMR00_NOT_DONE
 3714:	  09C7	80 04			SJMP  CHK_TMC01L
 3715:
 3716:	  09C9			   CHK_TMC01H:
 3717:
 3718:	  09C9	40 17		   JC	   SET_TMR01_DONE
 3719:	  09CB	50 11		   JNC   TMR01_NOT_DONE
 3720:
 3721:	  09CD			   CHK_TMC01L:
 3722:
 3723:	  09CD	90 23 8B	   MOV   DPTR,#TMC01L
 3724:	  09D0	E0		   MOVX	A,@DPTR                               ;A,TMC00L
 3725:	  09D1	F5 F0			MOV   B,A
 3726:	  09D3	90 10 53		MOV   DPTR,#TMS01L
 3727:	  09D6	E0			MOVX  A,@DPTR
 3728:	  09D7	B5 F0 02		CJNE  A,B,CHECK_CARRY_TM01
 3729:	  09DA	80 06			SJMP  SET_TMR01_DONE
 3730:
 3731:	  09DC				CHECK_CARRY_TM01:

ASEM-51 V1.3                                        Copyright (c) 2002 by W.W. Heinz                                         PAGE 68



 Line  I  Addr  Code            Source

 3732:
 3733:	  09DC	40 04			JC	   SET_TMR01_DONE
 3734:
 3735:	  09DE			   TMR01_NOT_DONE:
 3736:
 3737:	  09DE	C2 13			CLR	TM01D
 3738:	  09E0	80 0D			SJMP	TM02_HANDLER
 3739:
 3740:	  09E2			   SET_TMR01_DONE:
 3741:
 3742:	  09E2	D2 13		   SETB	TM01D
 3743:	  09E4	80 09			SJMP	TM02_HANDLER
 3744:
 3745:	  09E6			   TMR1_NOT_ENABLED:
 3746:
 3747:	  09E6	C2 13			CLR	TM01D
 3748:	  09E8	E4		   CLR   A
 3749:	  09E9	90 23 8A	   MOV   DPTR,#TMC01H
 3750:	  09EC	F0		   MOVX  @DPTR,A
 3751:	  09ED	A3		   INC   DPTR
 3752:	  09EE	F0		   MOVX  @DPTR,A
 3753:				;---------------------------------------------------------------------
 3754:	  09EF			   TM02_HANDLER:
 3755:
 3756:	  09EF	30 14 41	   JNB	TM02E,TMR2_NOT_ENABLED
 3757:	  09F2	20 15 47		JB	   TM02D,TM03_HANDLER
 3758:	  09F5	30 03 44	   JNB   TEN_MSEC_BIT,TM03_HANDLER
 3759:	  09F8	90 23 8D	   MOV   DPTR,#TMC02L
 3760:	  09FB	E0		   MOVX  A,@DPTR
 3761:	  09FC	C3			CLR   C
 3762:	  09FD	24 01			ADD	A,#01
 3763:	  09FF	F0			MOVX	@DPTR,A
 3764:	  0A00	90 23 8C	   MOV   DPTR,#TMC02H
 3765:	  0A03	E0		   MOVX  A,@DPTR
 3766:	  0A04	34 00		   ADDC 	A,#0
 3767:	  0A06	F0			MOVX	@DPTR,A
 3768:
 3769:	  0A07	90 23 8C		MOV   DPTR,#TMC02H
 3770:	  0A0A	E0			MOVX  A,@DPTR
 3771:	  0A0B	F5 F0			MOV   B,A
 3772:	  0A0D	90 10 54	   MOV   DPTR,#TMS02H
 3773:	  0A10	E0		   MOVX  A,@DPTR
 3774:	  0A11	B5 F0 02	   CJNE  A,B,CHK_TMC02H                    ;TMR00_NOT_DONE
 3775:	  0A14	80 04			SJMP  CHK_TMC02L
 3776:
 3777:	  0A16			   CHK_TMC02H:
 3778:
 3779:	  0A16	40 17		   JC	   SET_TMR02_DONE
 3780:	  0A18	50 11		   JNC   TMR02_NOT_DONE
 3781:
 3782:	  0A1A			   CHK_TMC02L:
 3783:
 3784:	  0A1A	90 23 8D	   MOV   DPTR,#TMC02L
 3785:	  0A1D	E0		   MOVX	A,@DPTR                               ;A,TMC00L
 3786:	  0A1E	F5 F0			MOV   B,A
 3787:	  0A20	90 10 55		MOV   DPTR,#TMS02L

ASEM-51 V1.3                                        Copyright (c) 2002 by W.W. Heinz                                         PAGE 69



 Line  I  Addr  Code            Source

 3788:	  0A23	E0			MOVX  A,@DPTR
 3789:	  0A24	B5 F0 02		CJNE  A,B,CHECK_CARRY_TM02
 3790:	  0A27	80 06			SJMP  SET_TMR02_DONE
 3791:
 3792:	  0A29				CHECK_CARRY_TM02:
 3793:
 3794:	  0A29	40 04			JC	   SET_TMR02_DONE
 3795:
 3796:	  0A2B			   TMR02_NOT_DONE:
 3797:
 3798:	  0A2B	C2 15			CLR	TM02D
 3799:	  0A2D	80 0D			SJMP	TM03_HANDLER
 3800:
 3801:	  0A2F			   SET_TMR02_DONE:
 3802:
 3803:	  0A2F	D2 15		   SETB	TM02D
 3804:	  0A31	80 09			SJMP	TM03_HANDLER
 3805:
 3806:	  0A33			   TMR2_NOT_ENABLED:
 3807:
 3808:	  0A33	C2 15			CLR	TM02D
 3809:	  0A35	E4		   CLR   A
 3810:	  0A36	90 23 8C	   MOV   DPTR,#TMC02H
 3811:	  0A39	F0		   MOVX  @DPTR,A
 3812:	  0A3A	A3		   INC   DPTR
 3813:	  0A3B	F0		   MOVX  @DPTR,A
 3814:				;-------------------------------------------------------------------
 3815:	  0A3C				TM03_HANDLER:
 3816:
 3817:	  0A3C	30 16 41		JNB	TM03E,TMR3_NOT_ENABLED
 3818:	  0A3F	20 17 47		JB	   TM03D,TM04_HANDLER
 3819:	  0A42	30 03 44		JNB   TEN_MSEC_BIT,TM04_HANDLER
 3820:	  0A45	90 23 8F		MOV   DPTR,#TMC03L
 3821:	  0A48	E0		   MOVX  A,@DPTR
 3822:	  0A49	C3			CLR   C
 3823:	  0A4A	24 01			ADD	A,#01
 3824:	  0A4C	F0			MOVX	@DPTR,A
 3825:	  0A4D	90 23 8E	   MOV   DPTR,#TMC03H
 3826:	  0A50	E0		   MOVX  A,@DPTR
 3827:	  0A51	34 00		   ADDC 	A,#0
 3828:	  0A53	F0			MOVX	@DPTR,A
 3829:
 3830:	  0A54	90 23 8E		MOV   DPTR,#TMC03H
 3831:	  0A57	E0			MOVX  A,@DPTR
 3832:	  0A58	F5 F0			MOV   B,A
 3833:	  0A5A	90 10 56	   MOV   DPTR,#TMS03H
 3834:	  0A5D	E0		   MOVX  A,@DPTR
 3835:	  0A5E	B5 F0 02	   CJNE  A,B,CHK_TMC03H                    ;TMR00_NOT_DONE
 3836:	  0A61	80 04			SJMP  CHK_TMC03L
 3837:
 3838:	  0A63			   CHK_TMC03H:
 3839:
 3840:	  0A63	40 17		   JC	   SET_TMR03_DONE
 3841:	  0A65	50 11		   JNC   TMR03_NOT_DONE
 3842:
 3843:	  0A67			   CHK_TMC03L:

ASEM-51 V1.3                                        Copyright (c) 2002 by W.W. Heinz                                         PAGE 70



 Line  I  Addr  Code            Source

 3844:
 3845:	  0A67	90 23 8F	   MOV   DPTR,#TMC03L
 3846:	  0A6A	E0		   MOVX	A,@DPTR                               ;A,TMC00L
 3847:	  0A6B	F5 F0			MOV   B,A
 3848:	  0A6D	90 10 57		MOV   DPTR,#TMS03L
 3849:	  0A70	E0			MOVX  A,@DPTR
 3850:	  0A71	B5 F0 02		CJNE  A,B,CHECK_CARRY_TM03
 3851:	  0A74	80 06			SJMP  SET_TMR03_DONE
 3852:
 3853:	  0A76				CHECK_CARRY_TM03:
 3854:
 3855:	  0A76	40 04			JC	   SET_TMR03_DONE
 3856:
 3857:	  0A78			   TMR03_NOT_DONE:
 3858:
 3859:	  0A78	C2 17			CLR	TM03D
 3860:	  0A7A	80 0D			SJMP	TM04_HANDLER
 3861:
 3862:	  0A7C			   SET_TMR03_DONE:
 3863:
 3864:	  0A7C	D2 17		   SETB	TM03D
 3865:	  0A7E	80 09			SJMP	TM04_HANDLER
 3866:
 3867:	  0A80			   TMR3_NOT_ENABLED:
 3868:
 3869:	  0A80	C2 17			CLR	TM03D
 3870:	  0A82	E4		   CLR   A
 3871:	  0A83	90 23 8E	   MOV   DPTR,#TMC03H
 3872:	  0A86	F0		   MOVX  @DPTR,A
 3873:	  0A87	A3		   INC   DPTR
 3874:	  0A88	F0		   MOVX  @DPTR,A
 3875:
 3876:				;--------------------------------------------------------------------
 3877:	  0A89			   TM04_HANDLER:
 3878:
 3879:	  0A89	30 18 41	   JNB	TM04E,TMR4_NOT_ENABLED
 3880:	  0A8C	20 19 47		JB	   TM04D,TM05_HANDLER
 3881:	  0A8F	30 03 44		JNB   TEN_MSEC_BIT,TM05_HANDLER
 3882:	  0A92	90 23 91		MOV   DPTR,#TMC04L
 3883:	  0A95	E0		   MOVX  A,@DPTR
 3884:	  0A96	C3			CLR   C
 3885:	  0A97	24 01			ADD	A,#01
 3886:	  0A99	F0			MOVX	@DPTR,A
 3887:	  0A9A	90 23 90	   MOV   DPTR,#TMC04H
 3888:	  0A9D	E0		   MOVX  A,@DPTR
 3889:	  0A9E	34 00		   ADDC 	A,#0
 3890:	  0AA0	F0			MOVX	@DPTR,A
 3891:
 3892:	  0AA1	90 23 90		MOV   DPTR,#TMC04H
 3893:	  0AA4	E0			MOVX  A,@DPTR
 3894:	  0AA5	F5 F0			MOV   B,A
 3895:	  0AA7	90 10 58	   MOV   DPTR,#TMS04H
 3896:	  0AAA	E0		   MOVX  A,@DPTR
 3897:	  0AAB	B5 F0 02	   CJNE  A,B,CHK_TMC04H                    ;TMR00_NOT_DONE
 3898:	  0AAE	80 04			SJMP  CHK_TMC04L
 3899:

ASEM-51 V1.3                                        Copyright (c) 2002 by W.W. Heinz                                         PAGE 71



 Line  I  Addr  Code            Source

 3900:	  0AB0			   CHK_TMC04H:
 3901:
 3902:	  0AB0	40 17		   JC	   SET_TMR04_DONE
 3903:	  0AB2	50 11		   JNC   TMR04_NOT_DONE
 3904:
 3905:	  0AB4			   CHK_TMC04L:
 3906:
 3907:	  0AB4	90 23 91	   MOV   DPTR,#TMC04L
 3908:	  0AB7	E0		   MOVX	A,@DPTR                               ;A,TMC00L
 3909:	  0AB8	F5 F0			MOV   B,A
 3910:	  0ABA	90 10 59		MOV   DPTR,#TMS04L
 3911:	  0ABD	E0			MOVX  A,@DPTR
 3912:	  0ABE	B5 F0 02		CJNE  A,B,CHECK_CARRY_TM04
 3913:	  0AC1	80 06			SJMP  SET_TMR04_DONE
 3914:
 3915:	  0AC3				CHECK_CARRY_TM04:
 3916:
 3917:	  0AC3	40 04			JC	   SET_TMR04_DONE
 3918:
 3919:	  0AC5			   TMR04_NOT_DONE:
 3920:
 3921:	  0AC5	C2 19			CLR	TM04D
 3922:	  0AC7	80 0D			SJMP	TM05_HANDLER
 3923:
 3924:	  0AC9			   SET_TMR04_DONE:
 3925:
 3926:	  0AC9	D2 19		   SETB	TM04D
 3927:	  0ACB	80 09			SJMP	TM05_HANDLER
 3928:
 3929:	  0ACD			   TMR4_NOT_ENABLED:
 3930:
 3931:	  0ACD	C2 19			CLR	TM04D
 3932:	  0ACF	E4		   CLR   A
 3933:	  0AD0	90 23 90	   MOV   DPTR,#TMC04H
 3934:	  0AD3	F0		   MOVX  @DPTR,A
 3935:	  0AD4	A3		   INC   DPTR
 3936:	  0AD5	F0		   MOVX  @DPTR,A
 3937:				;---------------------------------------------------------------------
 3938:	  0AD6			   TM05_HANDLER:
 3939:
 3940:	  0AD6	30 1A 41	   JNB	TM05E,TMR5_NOT_ENABLED
 3941:	  0AD9	20 1B 47		JB	   TM05D,TM06_HANDLER
 3942:	  0ADC	30 03 44		JNB   TEN_MSEC_BIT,TM06_HANDLER
 3943:
 3944:	  0ADF	90 23 93		MOV   DPTR,#TMC05L
 3945:	  0AE2	E0		   MOVX  A,@DPTR
 3946:	  0AE3	C3			CLR   C
 3947:	  0AE4	24 01			ADD	A,#01
 3948:	  0AE6	F0			MOVX	@DPTR,A
 3949:	  0AE7	90 23 92	   MOV   DPTR,#TMC05H
 3950:	  0AEA	E0		   MOVX  A,@DPTR
 3951:	  0AEB	34 00		   ADDC 	A,#0
 3952:	  0AED	F0			MOVX	@DPTR,A
 3953:
 3954:	  0AEE	90 23 92		MOV   DPTR,#TMC05H
 3955:	  0AF1	E0			MOVX  A,@DPTR

ASEM-51 V1.3                                        Copyright (c) 2002 by W.W. Heinz                                         PAGE 72



 Line  I  Addr  Code            Source

 3956:	  0AF2	F5 F0			MOV   B,A
 3957:	  0AF4	90 10 5A	   MOV   DPTR,#TMS05H
 3958:	  0AF7	E0		   MOVX  A,@DPTR
 3959:	  0AF8	B5 F0 02	   CJNE  A,B,CHK_TMC05H                    ;TMR00_NOT_DONE
 3960:	  0AFB	80 04			SJMP  CHK_TMC05L
 3961:
 3962:	  0AFD			   CHK_TMC05H:
 3963:
 3964:	  0AFD	40 17		   JC	   SET_TMR05_DONE
 3965:	  0AFF	50 11		   JNC   TMR05_NOT_DONE
 3966:
 3967:	  0B01			   CHK_TMC05L:
 3968:
 3969:	  0B01	90 23 93	   MOV   DPTR,#TMC05L
 3970:	  0B04	E0		   MOVX	A,@DPTR                               ;A,TMC00L
 3971:	  0B05	F5 F0			MOV   B,A
 3972:	  0B07	90 10 5B		MOV   DPTR,#TMS05L
 3973:	  0B0A	E0			MOVX  A,@DPTR
 3974:	  0B0B	B5 F0 02		CJNE  A,B,CHECK_CARRY_TM05
 3975:	  0B0E	80 06			SJMP  SET_TMR05_DONE
 3976:
 3977:	  0B10				CHECK_CARRY_TM05:
 3978:
 3979:	  0B10	40 04			JC	   SET_TMR05_DONE
 3980:
 3981:	  0B12			   TMR05_NOT_DONE:
 3982:
 3983:	  0B12	C2 1B			CLR	TM05D
 3984:	  0B14	80 0D			SJMP	TM06_HANDLER
 3985:
 3986:	  0B16			   SET_TMR05_DONE:
 3987:
 3988:	  0B16	D2 1B		   SETB	TM05D
 3989:	  0B18	80 09			SJMP	TM06_HANDLER
 3990:
 3991:	  0B1A			   TMR5_NOT_ENABLED:
 3992:
 3993:	  0B1A	C2 1B			CLR	TM05D
 3994:	  0B1C	E4		   CLR   A
 3995:	  0B1D	90 23 92	   MOV   DPTR,#TMC05H
 3996:	  0B20	F0		   MOVX  @DPTR,A
 3997:	  0B21	A3		   INC   DPTR
 3998:	  0B22	F0		   MOVX  @DPTR,A
 3999:				;---------------------------------------------------------------
 4000:	  0B23			   TM06_HANDLER:
 4001:
 4002:	  0B23	30 1C 41	   JNB	TM06E,TMR6_NOT_ENABLED
 4003:	  0B26	20 1D 47		JB	   TM06D,TM07_HANDLER
 4004:	  0B29	30 03 44		JNB   TEN_MSEC_BIT,TM07_HANDLER
 4005:
 4006:	  0B2C	90 23 95		MOV   DPTR,#TMC06L
 4007:	  0B2F	E0		   MOVX  A,@DPTR
 4008:	  0B30	C3			CLR   C
 4009:	  0B31	24 01			ADD	A,#01
 4010:	  0B33	F0			MOVX	@DPTR,A
 4011:	  0B34	90 23 94	   MOV   DPTR,#TMC06H

ASEM-51 V1.3                                        Copyright (c) 2002 by W.W. Heinz                                         PAGE 73



 Line  I  Addr  Code            Source

 4012:	  0B37	E0		   MOVX  A,@DPTR
 4013:	  0B38	34 00		   ADDC 	A,#0
 4014:	  0B3A	F0			MOVX	@DPTR,A
 4015:
 4016:	  0B3B	90 23 94		MOV   DPTR,#TMC06H
 4017:	  0B3E	E0			MOVX  A,@DPTR
 4018:	  0B3F	F5 F0			MOV   B,A
 4019:	  0B41	90 10 5C	   MOV   DPTR,#TMS06H
 4020:	  0B44	E0		   MOVX  A,@DPTR
 4021:	  0B45	B5 F0 02	   CJNE  A,B,CHK_TMC06H                    ;TMR00_NOT_DONE
 4022:	  0B48	80 04			SJMP  CHK_TMC06L
 4023:
 4024:	  0B4A			   CHK_TMC06H:
 4025:
 4026:	  0B4A	40 17		   JC	   SET_TMR06_DONE
 4027:	  0B4C	50 11		   JNC   TMR06_NOT_DONE
 4028:
 4029:	  0B4E			   CHK_TMC06L:
 4030:
 4031:	  0B4E	90 23 95	   MOV   DPTR,#TMC06L
 4032:	  0B51	E0		   MOVX	A,@DPTR                               ;A,TMC00L
 4033:	  0B52	F5 F0			MOV   B,A
 4034:	  0B54	90 10 5D		MOV   DPTR,#TMS06L
 4035:	  0B57	E0			MOVX  A,@DPTR
 4036:	  0B58	B5 F0 02		CJNE  A,B,CHECK_CARRY_TM06
 4037:	  0B5B	80 06			SJMP  SET_TMR06_DONE
 4038:
 4039:	  0B5D				CHECK_CARRY_TM06:
 4040:
 4041:	  0B5D	40 04			JC	   SET_TMR06_DONE
 4042:
 4043:	  0B5F			   TMR06_NOT_DONE:
 4044:
 4045:	  0B5F	C2 1D			CLR	TM06D
 4046:	  0B61	80 0D			SJMP	TM07_HANDLER
 4047:
 4048:	  0B63			   SET_TMR06_DONE:
 4049:
 4050:	  0B63	D2 1D		   SETB	TM06D
 4051:	  0B65	80 09			SJMP	TM07_HANDLER
 4052:
 4053:	  0B67			   TMR6_NOT_ENABLED:
 4054:
 4055:	  0B67	C2 1D			CLR	TM06D
 4056:	  0B69	E4		   CLR   A
 4057:	  0B6A	90 23 94	   MOV   DPTR,#TMC06H
 4058:	  0B6D	F0		   MOVX  @DPTR,A
 4059:	  0B6E	A3		   INC   DPTR
 4060:	  0B6F	F0		   MOVX  @DPTR,A
 4061:				;-------------------------------------------------------------------
 4062:	  0B70			   TM07_HANDLER:
 4063:
 4064:	  0B70	30 1E 41	   JNB	TM07E,TMR7_NOT_ENABLED
 4065:	  0B73	20 1F 47		JB	   TM07D,TM08_HANDLER
 4066:	  0B76	30 03 44		JNB   TEN_MSEC_BIT,TM08_HANDLER
 4067:

ASEM-51 V1.3                                        Copyright (c) 2002 by W.W. Heinz                                         PAGE 74



 Line  I  Addr  Code            Source

 4068:	  0B79	90 23 97		MOV   DPTR,#TMC07L
 4069:	  0B7C	E0		   MOVX  A,@DPTR
 4070:	  0B7D	C3			CLR   C
 4071:	  0B7E	24 01			ADD	A,#01
 4072:	  0B80	F0			MOVX	@DPTR,A
 4073:	  0B81	90 23 96	   MOV   DPTR,#TMC07H
 4074:	  0B84	E0		   MOVX  A,@DPTR
 4075:	  0B85	34 00		   ADDC 	A,#0
 4076:	  0B87	F0			MOVX	@DPTR,A
 4077:
 4078:	  0B88	90 23 96		MOV   DPTR,#TMC07H
 4079:	  0B8B	E0			MOVX  A,@DPTR
 4080:	  0B8C	F5 F0			MOV   B,A
 4081:	  0B8E	90 10 5E	   MOV   DPTR,#TMS07H
 4082:	  0B91	E0		   MOVX  A,@DPTR
 4083:	  0B92	B5 F0 02	   CJNE  A,B,CHK_TMC07H                    ;TMR00_NOT_DONE
 4084:	  0B95	80 04			SJMP  CHK_TMC07L
 4085:
 4086:	  0B97			   CHK_TMC07H:
 4087:
 4088:	  0B97	40 17		   JC	   SET_TMR07_DONE
 4089:	  0B99	50 11		   JNC   TMR07_NOT_DONE
 4090:
 4091:	  0B9B			   CHK_TMC07L:
 4092:
 4093:	  0B9B	90 23 97	   MOV   DPTR,#TMC07L
 4094:	  0B9E	E0		   MOVX	A,@DPTR                               ;A,TMC00L
 4095:	  0B9F	F5 F0			MOV   B,A
 4096:	  0BA1	90 10 5F		MOV   DPTR,#TMS07L
 4097:	  0BA4	E0			MOVX  A,@DPTR
 4098:	  0BA5	B5 F0 02		CJNE  A,B,CHECK_CARRY_TM07
 4099:	  0BA8	80 06			SJMP  SET_TMR07_DONE
 4100:
 4101:	  0BAA				CHECK_CARRY_TM07:
 4102:
 4103:	  0BAA	40 04			JC	   SET_TMR07_DONE
 4104:
 4105:	  0BAC			   TMR07_NOT_DONE:
 4106:
 4107:	  0BAC	C2 1F			CLR	TM07D
 4108:	  0BAE	80 0D			SJMP	TM08_HANDLER
 4109:
 4110:	  0BB0			   SET_TMR07_DONE:
 4111:
 4112:	  0BB0	D2 1F		   SETB	TM07D
 4113:	  0BB2	80 09			SJMP	TM08_HANDLER
 4114:
 4115:	  0BB4			   TMR7_NOT_ENABLED:
 4116:
 4117:	  0BB4	C2 1F			CLR	TM07D
 4118:	  0BB6	E4		   CLR   A
 4119:	  0BB7	90 23 96	   MOV   DPTR,#TMC07H
 4120:	  0BBA	F0		   MOVX  @DPTR,A
 4121:	  0BBB	A3		   INC   DPTR
 4122:	  0BBC	F0		   MOVX  @DPTR,A
 4123:				;-------------------------------------------------------------------

ASEM-51 V1.3                                        Copyright (c) 2002 by W.W. Heinz                                         PAGE 75



 Line  I  Addr  Code            Source

 4124:	  0BBD			   TM08_HANDLER:
 4125:
 4126:
 4127:	  0BBD	30 20 41	   JNB	TM08E,TMR8_NOT_ENABLED
 4128:	  0BC0	20 21 47		JB	   TM08D,TM09_HANDLER
 4129:	  0BC3	30 03 44		JNB   TEN_MSEC_BIT,TM09_HANDLER
 4130:
 4131:	  0BC6	90 23 99		MOV   DPTR,#TMC08L
 4132:	  0BC9	E0		   MOVX  A,@DPTR
 4133:	  0BCA	C3			CLR   C
 4134:	  0BCB	24 01			ADD	A,#01
 4135:	  0BCD	F0			MOVX	@DPTR,A
 4136:	  0BCE	90 23 98	   MOV   DPTR,#TMC08H
 4137:	  0BD1	E0		   MOVX  A,@DPTR
 4138:	  0BD2	34 00		   ADDC 	A,#0
 4139:	  0BD4	F0			MOVX	@DPTR,A
 4140:
 4141:	  0BD5	90 23 98		MOV   DPTR,#TMC08H
 4142:	  0BD8	E0			MOVX  A,@DPTR
 4143:	  0BD9	F5 F0			MOV   B,A
 4144:	  0BDB	90 10 60	   MOV   DPTR,#TMS08H
 4145:	  0BDE	E0		   MOVX  A,@DPTR
 4146:	  0BDF	B5 F0 02	   CJNE  A,B,CHK_TMC08H                    ;TMR00_NOT_DONE
 4147:	  0BE2	80 04			SJMP  CHK_TMC08L
 4148:
 4149:	  0BE4			   CHK_TMC08H:
 4150:
 4151:	  0BE4	40 17		   JC	   SET_TMR08_DONE
 4152:	  0BE6	50 11		   JNC   TMR08_NOT_DONE
 4153:
 4154:	  0BE8			   CHK_TMC08L:
 4155:
 4156:	  0BE8	90 23 99	   MOV   DPTR,#TMC08L
 4157:	  0BEB	E0		   MOVX	A,@DPTR                               ;A,TMC00L
 4158:	  0BEC	F5 F0			MOV   B,A
 4159:	  0BEE	90 10 61		MOV   DPTR,#TMS08L
 4160:	  0BF1	E0			MOVX  A,@DPTR
 4161:	  0BF2	B5 F0 02		CJNE  A,B,CHECK_CARRY_TM08
 4162:	  0BF5	80 06			SJMP  SET_TMR08_DONE
 4163:
 4164:	  0BF7				CHECK_CARRY_TM08:
 4165:
 4166:	  0BF7	40 04			JC	   SET_TMR08_DONE
 4167:
 4168:	  0BF9			   TMR08_NOT_DONE:
 4169:
 4170:	  0BF9	C2 21			CLR	TM08D
 4171:	  0BFB	80 0D			SJMP	TM09_HANDLER
 4172:
 4173:	  0BFD			   SET_TMR08_DONE:
 4174:
 4175:	  0BFD	D2 21		   SETB	TM08D
 4176:	  0BFF	80 09			SJMP	TM09_HANDLER
 4177:
 4178:	  0C01			   TMR8_NOT_ENABLED:
 4179:

ASEM-51 V1.3                                        Copyright (c) 2002 by W.W. Heinz                                         PAGE 76



 Line  I  Addr  Code            Source

 4180:	  0C01	C2 21			CLR	TM08D
 4181:	  0C03	E4		   CLR   A
 4182:	  0C04	90 23 98	   MOV   DPTR,#TMC08H
 4183:	  0C07	F0		   MOVX  @DPTR,A
 4184:	  0C08	A3		   INC   DPTR
 4185:	  0C09	F0		   MOVX  @DPTR,A
 4186:				;--------------------------------------------------------------------
 4187:	  0C0A			   TM09_HANDLER:
 4188:
 4189:
 4190:	  0C0A	30 22 41	   JNB	TM09E,TMR9_NOT_ENABLED
 4191:	  0C0D	20 23 47		JB	   TM09D,TM10_HANDLER
 4192:	  0C10	30 03 44		JNB   TEN_MSEC_BIT,TM10_HANDLER
 4193:
 4194:	  0C13	90 23 9B		MOV   DPTR,#TMC09L
 4195:	  0C16	E0		   MOVX  A,@DPTR
 4196:	  0C17	C3			CLR   C
 4197:	  0C18	24 01			ADD	A,#01
 4198:	  0C1A	F0			MOVX	@DPTR,A
 4199:	  0C1B	90 23 9A	   MOV   DPTR,#TMC09H
 4200:	  0C1E	E0		   MOVX  A,@DPTR
 4201:	  0C1F	34 00		   ADDC 	A,#0
 4202:	  0C21	F0			MOVX	@DPTR,A
 4203:
 4204:	  0C22	90 23 9A		MOV   DPTR,#TMC09H
 4205:	  0C25	E0			MOVX  A,@DPTR
 4206:	  0C26	F5 F0			MOV   B,A
 4207:	  0C28	90 10 62	   MOV   DPTR,#TMS09H
 4208:	  0C2B	E0		   MOVX  A,@DPTR
 4209:	  0C2C	B5 F0 02	   CJNE  A,B,CHK_TMC09H                    ;TMR00_NOT_DONE
 4210:	  0C2F	80 04			SJMP  CHK_TMC09L
 4211:
 4212:	  0C31			   CHK_TMC09H:
 4213:
 4214:	  0C31	40 17		   JC	   SET_TMR09_DONE
 4215:	  0C33	50 11		   JNC   TMR09_NOT_DONE
 4216:
 4217:	  0C35			   CHK_TMC09L:
 4218:
 4219:	  0C35	90 23 9B	   MOV   DPTR,#TMC09L
 4220:	  0C38	E0		   MOVX	A,@DPTR                               ;A,TMC00L
 4221:	  0C39	F5 F0			MOV   B,A
 4222:	  0C3B	90 10 63		MOV   DPTR,#TMS09L
 4223:	  0C3E	E0			MOVX  A,@DPTR
 4224:	  0C3F	B5 F0 02		CJNE  A,B,CHECK_CARRY_TM09
 4225:	  0C42	80 06			SJMP  SET_TMR09_DONE
 4226:
 4227:	  0C44				CHECK_CARRY_TM09:
 4228:
 4229:	  0C44	40 04			JC	   SET_TMR09_DONE
 4230:
 4231:	  0C46			   TMR09_NOT_DONE:
 4232:
 4233:	  0C46	C2 23			CLR	TM09D
 4234:	  0C48	80 0D			SJMP	TM10_HANDLER
 4235:

ASEM-51 V1.3                                        Copyright (c) 2002 by W.W. Heinz                                         PAGE 77



 Line  I  Addr  Code            Source

 4236:	  0C4A			   SET_TMR09_DONE:
 4237:
 4238:	  0C4A	D2 23		   SETB	TM09D
 4239:	  0C4C	80 09			SJMP	TM10_HANDLER
 4240:
 4241:	  0C4E			   TMR9_NOT_ENABLED:
 4242:
 4243:	  0C4E	C2 23			CLR	TM09D
 4244:	  0C50	E4		   CLR   A
 4245:	  0C51	90 23 9A	   MOV   DPTR,#TMC09H
 4246:	  0C54	F0		   MOVX  @DPTR,A
 4247:	  0C55	A3		   INC   DPTR
 4248:	  0C56	F0		   MOVX  @DPTR,A
 4249:				;------------------------------------------------------------------
 4250:
 4251:	  0C57			   TM10_HANDLER:
 4252:
 4253:	  0C57	30 24 41	   JNB	TM10E,TMR10_NOT_ENABLED
 4254:	  0C5A	20 25 47		JB	   TM10D,TM11_HANDLER
 4255:	  0C5D	30 03 44		JNB   TEN_MSEC_BIT,TM11_HANDLER
 4256:
 4257:	  0C60	90 23 9D		MOV   DPTR,#TMC10L
 4258:	  0C63	E0		   MOVX  A,@DPTR
 4259:	  0C64	C3			CLR   C
 4260:	  0C65	24 01			ADD	A,#01
 4261:	  0C67	F0			MOVX	@DPTR,A
 4262:	  0C68	90 23 9C	   MOV   DPTR,#TMC10H
 4263:	  0C6B	E0		   MOVX  A,@DPTR
 4264:	  0C6C	34 00		   ADDC 	A,#0
 4265:	  0C6E	F0			MOVX	@DPTR,A
 4266:
 4267:	  0C6F	90 23 9C		MOV   DPTR,#TMC10H
 4268:	  0C72	E0			MOVX  A,@DPTR
 4269:	  0C73	F5 F0			MOV   B,A
 4270:	  0C75	90 10 64	   MOV   DPTR,#TMS10H
 4271:	  0C78	E0		   MOVX  A,@DPTR
 4272:	  0C79	B5 F0 02	   CJNE  A,B,CHK_TMC10H                    ;TMR00_NOT_DONE
 4273:	  0C7C	80 04			SJMP  CHK_TMC10L
 4274:
 4275:	  0C7E			   CHK_TMC10H:
 4276:
 4277:	  0C7E	40 17		   JC	   SET_TMR10_DONE
 4278:	  0C80	50 11		   JNC   TMR10_NOT_DONE
 4279:
 4280:	  0C82			   CHK_TMC10L:
 4281:
 4282:	  0C82	90 23 9D	   MOV   DPTR,#TMC10L
 4283:	  0C85	E0		   MOVX	A,@DPTR                               ;A,TMC00L
 4284:	  0C86	F5 F0			MOV   B,A
 4285:	  0C88	90 10 65		MOV   DPTR,#TMS10L
 4286:	  0C8B	E0			MOVX  A,@DPTR
 4287:	  0C8C	B5 F0 02		CJNE  A,B,CHECK_CARRY_TM10
 4288:	  0C8F	80 06			SJMP  SET_TMR10_DONE
 4289:
 4290:	  0C91				CHECK_CARRY_TM10:
 4291:

ASEM-51 V1.3                                        Copyright (c) 2002 by W.W. Heinz                                         PAGE 78



 Line  I  Addr  Code            Source

 4292:	  0C91	40 04			JC	   SET_TMR10_DONE
 4293:
 4294:	  0C93			   TMR10_NOT_DONE:
 4295:
 4296:	  0C93	C2 25			CLR	TM10D
 4297:	  0C95	80 0D			SJMP	TM11_HANDLER
 4298:
 4299:	  0C97			   SET_TMR10_DONE:
 4300:
 4301:	  0C97	D2 25		   SETB	TM10D
 4302:	  0C99	80 09			SJMP	TM11_HANDLER
 4303:
 4304:	  0C9B			   TMR10_NOT_ENABLED:
 4305:
 4306:	  0C9B	C2 25			CLR	TM10D
 4307:	  0C9D	E4		   CLR   A
 4308:	  0C9E	90 23 9C	   MOV   DPTR,#TMC10H
 4309:	  0CA1	F0		   MOVX  @DPTR,A
 4310:	  0CA2	A3		   INC   DPTR
 4311:	  0CA3	F0		   MOVX  @DPTR,A
 4312:				;-------------------------------------------------------------------
 4313:	  0CA4			   TM11_HANDLER:
 4314:
 4315:	  0CA4	30 26 41	   JNB	TM11E,TMR11_NOT_ENABLED
 4316:	  0CA7	20 27 47		JB	   TM11D,TM12_HANDLER
 4317:	  0CAA	30 03 44		JNB   TEN_MSEC_BIT,TM12_HANDLER
 4318:
 4319:	  0CAD	90 23 9F		MOV   DPTR,#TMC11L
 4320:	  0CB0	E0		   MOVX  A,@DPTR
 4321:	  0CB1	C3			CLR   C
 4322:	  0CB2	24 01			ADD	A,#01
 4323:	  0CB4	F0			MOVX	@DPTR,A
 4324:	  0CB5	90 23 9E	   MOV   DPTR,#TMC11H
 4325:	  0CB8	E0		   MOVX  A,@DPTR
 4326:	  0CB9	34 00		   ADDC 	A,#0
 4327:	  0CBB	F0			MOVX	@DPTR,A
 4328:
 4329:	  0CBC	90 23 9E		MOV   DPTR,#TMC11H
 4330:	  0CBF	E0			MOVX  A,@DPTR
 4331:	  0CC0	F5 F0			MOV   B,A
 4332:	  0CC2	90 10 66	   MOV   DPTR,#TMS11H
 4333:	  0CC5	E0		   MOVX  A,@DPTR
 4334:	  0CC6	B5 F0 02	   CJNE  A,B,CHK_TMC11H                    ;TMR00_NOT_DONE
 4335:	  0CC9	80 04			SJMP  CHK_TMC11L
 4336:
 4337:	  0CCB			   CHK_TMC11H:
 4338:
 4339:	  0CCB	40 17		   JC	   SET_TMR11_DONE
 4340:	  0CCD	50 11		   JNC   TMR11_NOT_DONE
 4341:
 4342:	  0CCF			   CHK_TMC11L:
 4343:
 4344:	  0CCF	90 23 9F	   MOV   DPTR,#TMC11L
 4345:	  0CD2	E0		   MOVX	A,@DPTR                               ;A,TMC00L
 4346:	  0CD3	F5 F0			MOV   B,A
 4347:	  0CD5	90 10 67		MOV   DPTR,#TMS11L

ASEM-51 V1.3                                        Copyright (c) 2002 by W.W. Heinz                                         PAGE 79



 Line  I  Addr  Code            Source

 4348:	  0CD8	E0			MOVX  A,@DPTR
 4349:	  0CD9	B5 F0 02		CJNE  A,B,CHECK_CARRY_TM11
 4350:	  0CDC	80 06			SJMP  SET_TMR11_DONE
 4351:
 4352:	  0CDE				CHECK_CARRY_TM11:
 4353:
 4354:	  0CDE	40 04			JC	   SET_TMR11_DONE
 4355:
 4356:	  0CE0			   TMR11_NOT_DONE:
 4357:
 4358:	  0CE0	C2 27			CLR	TM11D
 4359:	  0CE2	80 0D			SJMP	TM12_HANDLER
 4360:
 4361:	  0CE4			   SET_TMR11_DONE:
 4362:
 4363:	  0CE4	D2 27		   SETB	TM11D
 4364:	  0CE6	80 09			SJMP	TM12_HANDLER
 4365:
 4366:	  0CE8			   TMR11_NOT_ENABLED:
 4367:
 4368:	  0CE8	C2 27			CLR	TM11D
 4369:	  0CEA	E4		   CLR   A
 4370:	  0CEB	90 23 9E	   MOV   DPTR,#TMC11H
 4371:	  0CEE	F0		   MOVX  @DPTR,A
 4372:	  0CEF	A3		   INC   DPTR
 4373:	  0CF0	F0		   MOVX  @DPTR,A
 4374:				;-------------------------------------------------------------------
 4375:	  0CF1			   TM12_HANDLER:
 4376:
 4377:	  0CF1	30 28 41	   JNB	TM12E,TMR12_NOT_ENABLED
 4378:	  0CF4	20 29 47		JB	   TM12D,TM13_HANDLER
 4379:	  0CF7	30 03 44		JNB   TEN_MSEC_BIT,TM13_HANDLER
 4380:
 4381:	  0CFA	90 23 A1		MOV   DPTR,#TMC12L
 4382:	  0CFD	E0		   MOVX  A,@DPTR
 4383:	  0CFE	C3			CLR   C
 4384:	  0CFF	24 01			ADD	A,#01
 4385:	  0D01	F0			MOVX	@DPTR,A
 4386:	  0D02	90 23 A0	   MOV   DPTR,#TMC12H
 4387:	  0D05	E0		   MOVX  A,@DPTR
 4388:	  0D06	34 00		   ADDC 	A,#0
 4389:	  0D08	F0			MOVX	@DPTR,A
 4390:
 4391:	  0D09	90 23 A0		MOV   DPTR,#TMC12H
 4392:	  0D0C	E0			MOVX  A,@DPTR
 4393:	  0D0D	F5 F0			MOV   B,A
 4394:	  0D0F	90 10 68	   MOV   DPTR,#TMS12H
 4395:	  0D12	E0		   MOVX  A,@DPTR
 4396:	  0D13	B5 F0 02	   CJNE  A,B,CHK_TMC12H                    ;TMR00_NOT_DONE
 4397:	  0D16	80 04			SJMP  CHK_TMC12L
 4398:
 4399:	  0D18			   CHK_TMC12H:
 4400:
 4401:	  0D18	40 17		   JC	   SET_TMR12_DONE
 4402:	  0D1A	50 11		   JNC   TMR12_NOT_DONE
 4403:

ASEM-51 V1.3                                        Copyright (c) 2002 by W.W. Heinz                                         PAGE 80



 Line  I  Addr  Code            Source

 4404:	  0D1C			   CHK_TMC12L:
 4405:
 4406:	  0D1C	90 23 A1	   MOV   DPTR,#TMC12L
 4407:	  0D1F	E0		   MOVX	A,@DPTR                               ;A,TMC00L
 4408:	  0D20	F5 F0			MOV   B,A
 4409:	  0D22	90 10 69		MOV   DPTR,#TMS12L
 4410:	  0D25	E0			MOVX  A,@DPTR
 4411:	  0D26	B5 F0 02		CJNE  A,B,CHECK_CARRY_TM12
 4412:	  0D29	80 06			SJMP  SET_TMR12_DONE
 4413:
 4414:	  0D2B				CHECK_CARRY_TM12:
 4415:
 4416:	  0D2B	40 04			JC	   SET_TMR12_DONE
 4417:
 4418:	  0D2D			   TMR12_NOT_DONE:
 4419:
 4420:	  0D2D	C2 29			CLR	TM12D
 4421:	  0D2F	80 0D			SJMP	TM13_HANDLER
 4422:
 4423:	  0D31			   SET_TMR12_DONE:
 4424:
 4425:	  0D31	D2 29		   SETB	TM12D
 4426:	  0D33	80 09			SJMP	TM13_HANDLER
 4427:
 4428:	  0D35			   TMR12_NOT_ENABLED:
 4429:
 4430:	  0D35	C2 29			CLR	TM12D
 4431:	  0D37	E4		   CLR   A
 4432:	  0D38	90 23 A0	   MOV   DPTR,#TMC12H
 4433:	  0D3B	F0		   MOVX  @DPTR,A
 4434:	  0D3C	A3		   INC   DPTR
 4435:	  0D3D	F0		   MOVX  @DPTR,A
 4436:
 4437:
 4438:				;--------------------------------------------------------------------
 4439:	  0D3E			   TM13_HANDLER:
 4440:
 4441:	  0D3E	30 2A 41	   JNB	TM13E,TMR13_NOT_ENABLED
 4442:	  0D41	20 2B 47		JB	   TM13D,TM14_HANDLER
 4443:	  0D44	30 03 44		JNB   TEN_MSEC_BIT,TM14_HANDLER
 4444:
 4445:	  0D47	90 23 A3		MOV   DPTR,#TMC13L
 4446:	  0D4A	E0		   MOVX  A,@DPTR
 4447:	  0D4B	C3			CLR   C
 4448:	  0D4C	24 01			ADD	A,#01
 4449:	  0D4E	F0			MOVX	@DPTR,A
 4450:	  0D4F	90 23 A2	   MOV   DPTR,#TMC13H
 4451:	  0D52	E0		   MOVX  A,@DPTR
 4452:	  0D53	34 00		   ADDC 	A,#0
 4453:	  0D55	F0			MOVX	@DPTR,A
 4454:
 4455:	  0D56	90 23 A2		MOV   DPTR,#TMC13H
 4456:	  0D59	E0			MOVX  A,@DPTR
 4457:	  0D5A	F5 F0			MOV   B,A
 4458:	  0D5C	90 10 6A	   MOV   DPTR,#TMS13H
 4459:	  0D5F	E0		   MOVX  A,@DPTR

ASEM-51 V1.3                                        Copyright (c) 2002 by W.W. Heinz                                         PAGE 81



 Line  I  Addr  Code            Source

 4460:	  0D60	B5 F0 02	   CJNE  A,B,CHK_TMC13H                    ;TMR00_NOT_DONE
 4461:	  0D63	80 04			SJMP  CHK_TMC13L
 4462:
 4463:	  0D65			   CHK_TMC13H:
 4464:
 4465:	  0D65	40 17		   JC	   SET_TMR13_DONE
 4466:	  0D67	50 11		   JNC   TMR13_NOT_DONE
 4467:
 4468:	  0D69			   CHK_TMC13L:
 4469:
 4470:	  0D69	90 23 A3	   MOV   DPTR,#TMC13L
 4471:	  0D6C	E0		   MOVX	A,@DPTR                               ;A,TMC00L
 4472:	  0D6D	F5 F0			MOV   B,A
 4473:	  0D6F	90 10 6B		MOV   DPTR,#TMS13L
 4474:	  0D72	E0			MOVX  A,@DPTR
 4475:	  0D73	B5 F0 02		CJNE  A,B,CHECK_CARRY_TM13
 4476:	  0D76	80 06			SJMP  SET_TMR13_DONE
 4477:
 4478:	  0D78				CHECK_CARRY_TM13:
 4479:
 4480:	  0D78	40 04			JC	   SET_TMR13_DONE
 4481:
 4482:	  0D7A			   TMR13_NOT_DONE:
 4483:
 4484:	  0D7A	C2 2B			CLR	TM13D
 4485:	  0D7C	80 0D			SJMP	TM14_HANDLER
 4486:
 4487:	  0D7E			   SET_TMR13_DONE:
 4488:
 4489:	  0D7E	D2 2B		   SETB	TM13D
 4490:	  0D80	80 09			SJMP	TM14_HANDLER
 4491:
 4492:	  0D82			   TMR13_NOT_ENABLED:
 4493:
 4494:	  0D82	C2 2B			CLR	TM13D
 4495:	  0D84	E4		   CLR   A
 4496:	  0D85	90 23 A2	   MOV   DPTR,#TMC13H
 4497:	  0D88	F0		   MOVX  @DPTR,A
 4498:	  0D89	A3		   INC   DPTR
 4499:	  0D8A	F0		   MOVX  @DPTR,A
 4500:				;------------------------------------------------------------------------------
 4501:	  0D8B			   TM14_HANDLER:
 4502:
 4503:	  0D8B	30 2C 41	   JNB	TM14E,TMR14_NOT_ENABLED
 4504:	  0D8E	20 2D 47		JB	   TM14D,TM15_HANDLER
 4505:	  0D91	30 03 44		JNB   TEN_MSEC_BIT,TM15_HANDLER
 4506:
 4507:	  0D94	90 23 A5		MOV   DPTR,#TMC14L
 4508:	  0D97	E0		   MOVX  A,@DPTR
 4509:	  0D98	C3			CLR   C
 4510:	  0D99	24 01			ADD	A,#01
 4511:	  0D9B	F0			MOVX	@DPTR,A
 4512:	  0D9C	90 23 A4	   MOV   DPTR,#TMC14H
 4513:	  0D9F	E0		   MOVX  A,@DPTR
 4514:	  0DA0	34 00		   ADDC 	A,#0
 4515:	  0DA2	F0			MOVX	@DPTR,A

ASEM-51 V1.3                                        Copyright (c) 2002 by W.W. Heinz                                         PAGE 82



 Line  I  Addr  Code            Source

 4516:
 4517:	  0DA3	90 23 A4		MOV   DPTR,#TMC14H
 4518:	  0DA6	E0			MOVX  A,@DPTR
 4519:	  0DA7	F5 F0			MOV   B,A
 4520:	  0DA9	90 10 6C	   MOV   DPTR,#TMS14H
 4521:	  0DAC	E0		   MOVX  A,@DPTR
 4522:	  0DAD	B5 F0 02	   CJNE  A,B,CHK_TMC14H                    ;TMR00_NOT_DONE
 4523:	  0DB0	80 04			SJMP  CHK_TMC14L
 4524:
 4525:	  0DB2			   CHK_TMC14H:
 4526:
 4527:	  0DB2	40 17		   JC	   SET_TMR14_DONE
 4528:	  0DB4	50 11		   JNC   TMR14_NOT_DONE
 4529:
 4530:	  0DB6			   CHK_TMC14L:
 4531:
 4532:	  0DB6	90 23 A5	   MOV   DPTR,#TMC14L
 4533:	  0DB9	E0		   MOVX	A,@DPTR                               ;A,TMC00L
 4534:	  0DBA	F5 F0			MOV   B,A
 4535:	  0DBC	90 10 6D		MOV   DPTR,#TMS14L
 4536:	  0DBF	E0			MOVX  A,@DPTR
 4537:	  0DC0	B5 F0 02		CJNE  A,B,CHECK_CARRY_TM14
 4538:	  0DC3	80 06			SJMP  SET_TMR14_DONE
 4539:
 4540:	  0DC5				CHECK_CARRY_TM14:
 4541:
 4542:	  0DC5	40 04			JC	   SET_TMR14_DONE
 4543:
 4544:	  0DC7			   TMR14_NOT_DONE:
 4545:
 4546:	  0DC7	C2 2D			CLR	TM14D
 4547:	  0DC9	80 0D			SJMP	TM15_HANDLER
 4548:
 4549:	  0DCB			   SET_TMR14_DONE:
 4550:
 4551:	  0DCB	D2 2D		   SETB	TM14D
 4552:	  0DCD	80 09			SJMP	TM15_HANDLER
 4553:
 4554:	  0DCF			   TMR14_NOT_ENABLED:
 4555:
 4556:	  0DCF	C2 2D			CLR	TM14D
 4557:	  0DD1	E4		   CLR   A
 4558:	  0DD2	90 23 A4	   MOV   DPTR,#TMC14H
 4559:	  0DD5	F0		   MOVX  @DPTR,A
 4560:	  0DD6	A3		   INC   DPTR
 4561:	  0DD7	F0		   MOVX  @DPTR,A
 4562:				;--------------------------------------------------------------------
 4563:	  0DD8			   TM15_HANDLER:
 4564:
 4565:	  0DD8	30 2E 41	   JNB	TM15E,TMR15_NOT_ENABLED
 4566:	  0DDB	20 2F 47		JB	   TM15D,TM16_HANDLER
 4567:	  0DDE	30 03 44		JNB   TEN_MSEC_BIT,TM16_HANDLER
 4568:
 4569:
 4570:	  0DE1	90 23 A7		MOV   DPTR,#TMC15L
 4571:	  0DE4	E0		   MOVX  A,@DPTR

ASEM-51 V1.3                                        Copyright (c) 2002 by W.W. Heinz                                         PAGE 83



 Line  I  Addr  Code            Source

 4572:	  0DE5	C3			CLR   C
 4573:	  0DE6	24 01			ADD	A,#01
 4574:	  0DE8	F0			MOVX	@DPTR,A
 4575:	  0DE9	90 23 A6	   MOV   DPTR,#TMC15H
 4576:	  0DEC	E0		   MOVX  A,@DPTR
 4577:	  0DED	34 00		   ADDC 	A,#0
 4578:	  0DEF	F0			MOVX	@DPTR,A
 4579:
 4580:	  0DF0	90 23 A6		MOV   DPTR,#TMC15H
 4581:	  0DF3	E0			MOVX  A,@DPTR
 4582:	  0DF4	F5 F0			MOV   B,A
 4583:	  0DF6	90 10 6E	   MOV   DPTR,#TMS15H
 4584:	  0DF9	E0		   MOVX  A,@DPTR
 4585:	  0DFA	B5 F0 02	   CJNE  A,B,CHK_TMC15H                    ;TMR00_NOT_DONE
 4586:	  0DFD	80 04			SJMP  CHK_TMC15L
 4587:
 4588:	  0DFF			   CHK_TMC15H:
 4589:
 4590:	  0DFF	40 17		   JC	   SET_TMR15_DONE
 4591:	  0E01	50 11		   JNC   TMR15_NOT_DONE
 4592:
 4593:	  0E03			   CHK_TMC15L:
 4594:
 4595:	  0E03	90 23 A7	   MOV   DPTR,#TMC15L
 4596:	  0E06	E0		   MOVX	A,@DPTR                               ;A,TMC00L
 4597:	  0E07	F5 F0			MOV   B,A
 4598:	  0E09	90 10 6F		MOV   DPTR,#TMS15L
 4599:	  0E0C	E0			MOVX  A,@DPTR
 4600:	  0E0D	B5 F0 02		CJNE  A,B,CHECK_CARRY_TM15
 4601:	  0E10	80 06			SJMP  SET_TMR15_DONE
 4602:
 4603:	  0E12				CHECK_CARRY_TM15:
 4604:
 4605:	  0E12	40 04			JC	   SET_TMR15_DONE
 4606:
 4607:	  0E14			   TMR15_NOT_DONE:
 4608:
 4609:	  0E14	C2 2F			CLR	TM15D
 4610:	  0E16	80 0D			SJMP	TM16_HANDLER
 4611:
 4612:	  0E18			   SET_TMR15_DONE:
 4613:
 4614:	  0E18	D2 2F		   SETB	TM15D
 4615:	  0E1A	80 09			SJMP	TM16_HANDLER
 4616:
 4617:	  0E1C			   TMR15_NOT_ENABLED:
 4618:
 4619:	  0E1C	C2 2F			CLR	TM15D
 4620:	  0E1E	E4		   CLR   A
 4621:	  0E1F	90 23 A6	   MOV   DPTR,#TMC15H
 4622:	  0E22	F0		   MOVX  @DPTR,A
 4623:	  0E23	A3		   INC   DPTR
 4624:	  0E24	F0		   MOVX  @DPTR,A
 4625:				;---------------------------------------------------------------------
 4626:	  0E25			   TM16_HANDLER:
 4627:

ASEM-51 V1.3                                        Copyright (c) 2002 by W.W. Heinz                                         PAGE 84



 Line  I  Addr  Code            Source

 4628:	  0E25	30 30 14	   JNB	TM16E,TMR16_NOT_ENABLED
 4629:				;	JB	   TM16D,TM17_HANDLER
 4630:	  0E28	30 03 1A		JNB   TEN_MSEC_BIT,TM17_HANDLER
 4631:
 4632:	  0E2B	90 23 A9		MOV   DPTR,#TMC16L
 4633:	  0E2E	E0		   MOVX  A,@DPTR
 4634:	  0E2F	C3			CLR   C
 4635:	  0E30	24 01			ADD	A,#01
 4636:	  0E32	F0			MOVX	@DPTR,A
 4637:	  0E33	90 23 A8	   MOV   DPTR,#TMC16H
 4638:	  0E36	E0		   MOVX  A,@DPTR
 4639:	  0E37	34 00		   ADDC 	A,#0
 4640:	  0E39	F0			MOVX	@DPTR,A
 4641:	  0E3A	80 09			SJMP  TM17_HANDLER
 4642:				;	MOV   DPTR,#TMC16H
 4643:				;	MOVX  A,@DPTR
 4644:				;	MOV   B,A
 4645:				;   MOV   DPTR,#TMS16H
 4646:				;   MOVX  A,@DPTR
 4647:				;   CJNE  A,B,CHK_TMC16H                    ;TMR00_NOT_DONE
 4648:				;	SJMP  CHK_TMC16L
 4649:
 4650:	  0E3C			   CHK_TMC16H:
 4651:
 4652:				 ;  JC	   SET_TMR16_DONE
 4653:				 ;  JNC   TMR16_NOT_DONE
 4654:
 4655:	  0E3C			   CHK_TMC16L:
 4656:
 4657:				  ; MOV   DPTR,#TMC16L
 4658:				  ; MOVX	A,@DPTR                               ;A,TMC00L
 4659:				;	MOV   B,A
 4660:				;	MOV   DPTR,#TMS16L
 4661:				;	MOVX  A,@DPTR
 4662:				;	CJNE  A,B,CHECK_CARRY_TM16
 4663:				;	SJMP  SET_TMR16_DONE
 4664:
 4665:	  0E3C				CHECK_CARRY_TM16:
 4666:
 4667:				;	JC	   SET_TMR16_DONE
 4668:
 4669:	  0E3C			   TMR16_NOT_DONE:
 4670:
 4671:				;	CLR	TM16D
 4672:				;	SJMP	TM17_HANDLER
 4673:
 4674:	  0E3C			   SET_TMR16_DONE:
 4675:
 4676:				;   SETB	TM16D
 4677:				;	SJMP	TM17_HANDLER
 4678:
 4679:	  0E3C			   TMR16_NOT_ENABLED:
 4680:
 4681:	  0E3C	C2 31			CLR	TM16D
 4682:	  0E3E	E4		   CLR   A
 4683:	  0E3F	90 23 A8	   MOV   DPTR,#TMC16H

ASEM-51 V1.3                                        Copyright (c) 2002 by W.W. Heinz                                         PAGE 85



 Line  I  Addr  Code            Source

 4684:	  0E42	F0		   MOVX  @DPTR,A
 4685:	  0E43	A3		   INC   DPTR
 4686:	  0E44	F0		   MOVX  @DPTR,A
 4687:
 4688:				;---------------------------------------------------------------------
 4689:	  0E45			   TM17_HANDLER:
 4690:
 4691:	  0E45	30 32 41	   JNB	TM17E,TMR17_NOT_ENABLED
 4692:	  0E48	20 33 47		JB	   TM17D,TM18_HANDLER
 4693:	  0E4B	30 03 44		JNB   TEN_MSEC_BIT,TM18_HANDLER
 4694:
 4695:	  0E4E	90 23 AB		MOV   DPTR,#TMC17L
 4696:	  0E51	E0		   MOVX  A,@DPTR
 4697:	  0E52	C3			CLR   C
 4698:	  0E53	24 01			ADD	A,#01
 4699:	  0E55	F0			MOVX	@DPTR,A
 4700:	  0E56	90 23 AA	   MOV   DPTR,#TMC17H
 4701:	  0E59	E0		   MOVX  A,@DPTR
 4702:	  0E5A	34 00		   ADDC 	A,#0
 4703:	  0E5C	F0			MOVX	@DPTR,A
 4704:
 4705:	  0E5D	90 23 AA		MOV   DPTR,#TMC17H
 4706:	  0E60	E0			MOVX  A,@DPTR
 4707:	  0E61	F5 F0			MOV   B,A
 4708:	  0E63	90 10 72	   MOV   DPTR,#TMS17H
 4709:	  0E66	E0		   MOVX  A,@DPTR
 4710:	  0E67	B5 F0 02	   CJNE  A,B,CHK_TMC17H                    ;TMR00_NOT_DONE
 4711:	  0E6A	80 04			SJMP  CHK_TMC17L
 4712:
 4713:	  0E6C			   CHK_TMC17H:
 4714:
 4715:	  0E6C	40 17		   JC	   SET_TMR17_DONE
 4716:	  0E6E	50 11		   JNC   TMR17_NOT_DONE
 4717:
 4718:	  0E70			   CHK_TMC17L:
 4719:
 4720:	  0E70	90 23 AB	   MOV   DPTR,#TMC17L
 4721:	  0E73	E0		   MOVX	A,@DPTR                               ;A,TMC00L
 4722:	  0E74	F5 F0			MOV   B,A
 4723:	  0E76	90 10 73		MOV   DPTR,#TMS17L
 4724:	  0E79	E0			MOVX  A,@DPTR
 4725:	  0E7A	B5 F0 02		CJNE  A,B,CHECK_CARRY_TM17
 4726:	  0E7D	80 06			SJMP  SET_TMR17_DONE
 4727:
 4728:	  0E7F				CHECK_CARRY_TM17:
 4729:
 4730:	  0E7F	40 04			JC	   SET_TMR17_DONE
 4731:
 4732:	  0E81			   TMR17_NOT_DONE:
 4733:
 4734:	  0E81	C2 33			CLR	TM17D
 4735:	  0E83	80 0D			SJMP	TM18_HANDLER
 4736:
 4737:	  0E85			   SET_TMR17_DONE:
 4738:
 4739:	  0E85	D2 33		   SETB	TM17D

ASEM-51 V1.3                                        Copyright (c) 2002 by W.W. Heinz                                         PAGE 86



 Line  I  Addr  Code            Source

 4740:	  0E87	80 09			SJMP	TM18_HANDLER
 4741:
 4742:	  0E89			   TMR17_NOT_ENABLED:
 4743:
 4744:	  0E89	C2 33			CLR	TM17D
 4745:	  0E8B	E4		   CLR   A
 4746:	  0E8C	90 23 AA	   MOV   DPTR,#TMC17H
 4747:	  0E8F	F0		   MOVX  @DPTR,A
 4748:	  0E90	A3		   INC   DPTR
 4749:	  0E91	F0		   MOVX  @DPTR,A
 4750:
 4751:
 4752:
 4753:
 4754:				;---------------------------------------------------------------------
 4755:	  0E92			   TM18_HANDLER:
 4756:
 4757:	  0E92	30 34 41	   JNB	TM18E,TMR18_NOT_ENABLED
 4758:	  0E95	20 35 47		JB	   TM18D,TM19_HANDLER
 4759:	  0E98	30 03 44		JNB   TEN_MSEC_BIT,TM19_HANDLER
 4760:
 4761:	  0E9B	90 23 AD		MOV   DPTR,#TMC18L
 4762:	  0E9E	E0		   MOVX  A,@DPTR
 4763:	  0E9F	C3			CLR   C
 4764:	  0EA0	24 01			ADD	A,#01
 4765:	  0EA2	F0			MOVX	@DPTR,A
 4766:	  0EA3	90 23 AC	   MOV   DPTR,#TMC18H
 4767:	  0EA6	E0		   MOVX  A,@DPTR
 4768:	  0EA7	34 00		   ADDC 	A,#0
 4769:	  0EA9	F0			MOVX	@DPTR,A
 4770:
 4771:	  0EAA	90 23 AC		MOV   DPTR,#TMC18H
 4772:	  0EAD	E0			MOVX  A,@DPTR
 4773:	  0EAE	F5 F0			MOV   B,A
 4774:	  0EB0	90 10 74	   MOV   DPTR,#TMS18H
 4775:	  0EB3	E0		   MOVX  A,@DPTR
 4776:	  0EB4	B5 F0 02	   CJNE  A,B,CHK_TMC18H                    ;TMR00_NOT_DONE
 4777:	  0EB7	80 04			SJMP  CHK_TMC18L
 4778:
 4779:	  0EB9			   CHK_TMC18H:
 4780:
 4781:	  0EB9	40 17		   JC	   SET_TMR18_DONE
 4782:	  0EBB	50 11		   JNC   TMR18_NOT_DONE
 4783:
 4784:	  0EBD			   CHK_TMC18L:
 4785:
 4786:	  0EBD	90 23 AD	   MOV   DPTR,#TMC18L
 4787:	  0EC0	E0		   MOVX	A,@DPTR                               ;A,TMC00L
 4788:	  0EC1	F5 F0			MOV   B,A
 4789:	  0EC3	90 10 75		MOV   DPTR,#TMS18L
 4790:	  0EC6	E0			MOVX  A,@DPTR
 4791:	  0EC7	B5 F0 02		CJNE  A,B,CHECK_CARRY_TM18
 4792:	  0ECA	80 06			SJMP  SET_TMR18_DONE
 4793:
 4794:	  0ECC				CHECK_CARRY_TM18:
 4795:

ASEM-51 V1.3                                        Copyright (c) 2002 by W.W. Heinz                                         PAGE 87



 Line  I  Addr  Code            Source

 4796:	  0ECC	40 04			JC	   SET_TMR18_DONE
 4797:
 4798:	  0ECE			   TMR18_NOT_DONE:
 4799:
 4800:	  0ECE	C2 35			CLR	TM18D
 4801:	  0ED0	80 0D			SJMP	TM19_HANDLER
 4802:
 4803:	  0ED2			   SET_TMR18_DONE:
 4804:
 4805:	  0ED2	D2 35		   SETB	TM18D
 4806:	  0ED4	80 09			SJMP	TM19_HANDLER
 4807:
 4808:	  0ED6			   TMR18_NOT_ENABLED:
 4809:
 4810:	  0ED6	C2 35			CLR	TM18D
 4811:	  0ED8	E4		   CLR   A
 4812:	  0ED9	90 23 AC	   MOV   DPTR,#TMC18H
 4813:	  0EDC	F0		   MOVX  @DPTR,A
 4814:	  0EDD	A3		   INC   DPTR
 4815:	  0EDE	F0		   MOVX  @DPTR,A
 4816:
 4817:
 4818:
 4819:
 4820:				;-----------------------------------------------------------
 4821:				;TEMPERATURE TIMERS
 4822:				;----------------------------------------------------------
 4823:
 4824:	  0EDF			   TM19_HANDLER:
 4825:
 4826:	  0EDF	30 36 41	   JNB	TM19E,TMR19_NOT_ENABLED
 4827:	  0EE2	20 37 47		JB	   TM19D,TM100_HANDLER
 4828:	  0EE5	30 03 44		JNB   TEN_MSEC_BIT,TM100_HANDLER
 4829:
 4830:	  0EE8	90 23 AF		MOV   DPTR,#TMC19L
 4831:	  0EEB	E0		   MOVX  A,@DPTR
 4832:	  0EEC	C3			CLR   C
 4833:	  0EED	24 01			ADD	A,#01
 4834:	  0EEF	F0			MOVX	@DPTR,A
 4835:	  0EF0	90 23 AE	   MOV   DPTR,#TMC19H
 4836:	  0EF3	E0		   MOVX  A,@DPTR
 4837:	  0EF4	34 00		   ADDC 	A,#0
 4838:	  0EF6	F0			MOVX	@DPTR,A
 4839:
 4840:	  0EF7	90 23 AE		MOV   DPTR,#TMC19H
 4841:	  0EFA	E0			MOVX  A,@DPTR
 4842:	  0EFB	F5 F0			MOV   B,A
 4843:	  0EFD	90 10 76	   MOV   DPTR,#TMS19H
 4844:	  0F00	E0		   MOVX  A,@DPTR
 4845:	  0F01	B5 F0 02	   CJNE  A,B,CHK_TMC19H                    ;TMR00_NOT_DONE
 4846:	  0F04	80 04			SJMP  CHK_TMC19L
 4847:
 4848:	  0F06			   CHK_TMC19H:
 4849:
 4850:	  0F06	40 17		   JC	   SET_TMR19_DONE
 4851:	  0F08	50 11		   JNC   TMR19_NOT_DONE

ASEM-51 V1.3                                        Copyright (c) 2002 by W.W. Heinz                                         PAGE 88



 Line  I  Addr  Code            Source

 4852:
 4853:	  0F0A			   CHK_TMC19L:
 4854:
 4855:	  0F0A	90 23 AF	   MOV   DPTR,#TMC19L
 4856:	  0F0D	E0		   MOVX	A,@DPTR                               ;A,TMC00L
 4857:	  0F0E	F5 F0			MOV   B,A
 4858:	  0F10	90 10 77		MOV   DPTR,#TMS19L
 4859:	  0F13	E0			MOVX  A,@DPTR
 4860:	  0F14	B5 F0 02		CJNE  A,B,CHECK_CARRY_TM19
 4861:	  0F17	80 06			SJMP  SET_TMR19_DONE
 4862:
 4863:	  0F19				CHECK_CARRY_TM19:
 4864:
 4865:	  0F19	40 04			JC	   SET_TMR19_DONE
 4866:
 4867:	  0F1B			   TMR19_NOT_DONE:
 4868:
 4869:	  0F1B	C2 37			CLR	TM19D
 4870:	  0F1D	80 0D			SJMP	TM100_HANDLER
 4871:
 4872:	  0F1F			   SET_TMR19_DONE:
 4873:
 4874:	  0F1F	D2 37		   SETB	TM19D
 4875:	  0F21	80 09			SJMP	TM100_HANDLER
 4876:
 4877:	  0F23			   TMR19_NOT_ENABLED:
 4878:
 4879:	  0F23	C2 37			CLR	TM19D
 4880:	  0F25	E4		   CLR   A
 4881:	  0F26	90 23 AE	   MOV   DPTR,#TMC19H
 4882:	  0F29	F0		   MOVX  @DPTR,A
 4883:	  0F2A	A3		   INC   DPTR
 4884:	  0F2B	F0		   MOVX  @DPTR,A
 4885:				;-------------------------------------------------------------------
 4886:
 4887:	  0F2C			   TM100_HANDLER:
 4888:
 4889:	  0F2C	30 40 41	   JNB	TM100E,TMR100_NOT_ENABLED
 4890:	  0F2F	20 41 47		JB	   TM100D,TM101_HANDLER
 4891:	  0F32	30 03 44		JNB   TEN_MSEC_BIT,TM101_HANDLER
 4892:
 4893:	  0F35	90 24 B7		MOV   DPTR,#TMC100L
 4894:	  0F38	E0		   MOVX  A,@DPTR
 4895:	  0F39	C3			CLR   C
 4896:	  0F3A	24 01			ADD	A,#01
 4897:	  0F3C	F0			MOVX	@DPTR,A
 4898:	  0F3D	90 24 B6	   MOV   DPTR,#TMC100H
 4899:	  0F40	E0		   MOVX  A,@DPTR
 4900:	  0F41	34 00		   ADDC 	A,#0
 4901:	  0F43	F0			MOVX	@DPTR,A
 4902:
 4903:	  0F44	90 24 B6		MOV   DPTR,#TMC100H
 4904:	  0F47	E0			MOVX  A,@DPTR
 4905:	  0F48	F5 F0			MOV   B,A
 4906:	  0F4A	90 10 78	   MOV   DPTR,#TMS100H
 4907:	  0F4D	E0		   MOVX  A,@DPTR

ASEM-51 V1.3                                        Copyright (c) 2002 by W.W. Heinz                                         PAGE 89



 Line  I  Addr  Code            Source

 4908:	  0F4E	B5 F0 02	   CJNE  A,B,CHK_TMC100H                    ;TMR00_NOT_DONE
 4909:	  0F51	80 04			SJMP  CHK_TMC100L
 4910:
 4911:	  0F53			   CHK_TMC100H:
 4912:
 4913:	  0F53	40 17		   JC	   SET_TMR100_DONE
 4914:	  0F55	50 11		   JNC   TMR100_NOT_DONE
 4915:
 4916:	  0F57			   CHK_TMC100L:
 4917:
 4918:	  0F57	90 24 B7	   MOV   DPTR,#TMC100L
 4919:	  0F5A	E0		   MOVX	A,@DPTR                               ;A,TMC00L
 4920:	  0F5B	F5 F0			MOV   B,A
 4921:	  0F5D	90 10 79		MOV   DPTR,#TMS100L
 4922:	  0F60	E0			MOVX  A,@DPTR
 4923:	  0F61	B5 F0 02		CJNE  A,B,CHECK_CARRY_TM100
 4924:	  0F64	80 06			SJMP  SET_TMR100_DONE
 4925:
 4926:	  0F66				CHECK_CARRY_TM100:
 4927:
 4928:	  0F66	40 04			JC	   SET_TMR100_DONE
 4929:
 4930:	  0F68			   TMR100_NOT_DONE:
 4931:
 4932:	  0F68	C2 41			CLR	TM100D
 4933:	  0F6A	80 0D			SJMP	TM101_HANDLER
 4934:
 4935:	  0F6C			   SET_TMR100_DONE:
 4936:
 4937:	  0F6C	D2 41		   SETB	TM100D
 4938:	  0F6E	80 09			SJMP	TM101_HANDLER
 4939:
 4940:	  0F70			   TMR100_NOT_ENABLED:
 4941:
 4942:	  0F70	C2 41			CLR	TM100D
 4943:	  0F72	E4		   CLR   A
 4944:	  0F73	90 24 B6	   MOV   DPTR,#TMC100H
 4945:	  0F76	F0		   MOVX  @DPTR,A
 4946:	  0F77	A3		   INC   DPTR
 4947:	  0F78	F0		   MOVX  @DPTR,A
 4948:				;----------------------------------------------------------------------
 4949:	  0F79			   TM101_HANDLER:
 4950:
 4951:	  0F79	30 42 41	   JNB	TM101E,TMR101_NOT_ENABLED
 4952:	  0F7C	20 43 47		JB	   TM101D,TM102_HANDLER
 4953:	  0F7F	30 03 44		JNB   TEN_MSEC_BIT,TM102_HANDLER
 4954:
 4955:	  0F82	90 24 B9		MOV   DPTR,#TMC101L
 4956:	  0F85	E0		   MOVX  A,@DPTR
 4957:	  0F86	C3			CLR   C
 4958:	  0F87	24 01			ADD	A,#01
 4959:	  0F89	F0			MOVX	@DPTR,A
 4960:	  0F8A	90 24 B8	   MOV   DPTR,#TMC101H
 4961:	  0F8D	E0		   MOVX  A,@DPTR
 4962:	  0F8E	34 00		   ADDC 	A,#0
 4963:	  0F90	F0			MOVX	@DPTR,A

ASEM-51 V1.3                                        Copyright (c) 2002 by W.W. Heinz                                         PAGE 90



 Line  I  Addr  Code            Source

 4964:
 4965:	  0F91	90 24 B8		MOV   DPTR,#TMC101H
 4966:	  0F94	E0			MOVX  A,@DPTR
 4967:	  0F95	F5 F0			MOV   B,A
 4968:	  0F97	90 10 7A	   MOV   DPTR,#TMS101H
 4969:	  0F9A	E0		   MOVX  A,@DPTR
 4970:	  0F9B	B5 F0 02	   CJNE  A,B,CHK_TMC101H                    ;TMR00_NOT_DONE
 4971:	  0F9E	80 04			SJMP  CHK_TMC101L
 4972:
 4973:	  0FA0			   CHK_TMC101H:
 4974:
 4975:	  0FA0	40 17		   JC	   SET_TMR101_DONE
 4976:	  0FA2	50 11		   JNC   TMR101_NOT_DONE
 4977:
 4978:	  0FA4			   CHK_TMC101L:
 4979:
 4980:	  0FA4	90 24 B9	   MOV   DPTR,#TMC101L
 4981:	  0FA7	E0		   MOVX	A,@DPTR                               ;A,TMC00L
 4982:	  0FA8	F5 F0			MOV   B,A
 4983:	  0FAA	90 10 7B		MOV   DPTR,#TMS101L
 4984:	  0FAD	E0			MOVX  A,@DPTR
 4985:	  0FAE	B5 F0 02		CJNE  A,B,CHECK_CARRY_TM101
 4986:	  0FB1	80 06			SJMP  SET_TMR101_DONE
 4987:
 4988:	  0FB3				CHECK_CARRY_TM101:
 4989:
 4990:	  0FB3	40 04			JC	   SET_TMR101_DONE
 4991:
 4992:	  0FB5			   TMR101_NOT_DONE:
 4993:
 4994:	  0FB5	C2 43			CLR	TM101D
 4995:	  0FB7	80 0D			SJMP	TM102_HANDLER
 4996:
 4997:	  0FB9			   SET_TMR101_DONE:
 4998:
 4999:	  0FB9	D2 43		   SETB	TM101D
 5000:	  0FBB	80 09			SJMP	TM102_HANDLER
 5001:
 5002:	  0FBD			   TMR101_NOT_ENABLED:
 5003:
 5004:	  0FBD	C2 43			CLR	TM101D
 5005:	  0FBF	E4		   CLR   A
 5006:	  0FC0	90 24 B8	   MOV   DPTR,#TMC101H
 5007:	  0FC3	F0		   MOVX  @DPTR,A
 5008:	  0FC4	A3		   INC   DPTR
 5009:	  0FC5	F0		   MOVX  @DPTR,A
 5010:				;---------------------------------------------------------
 5011:	  0FC6			   TM102_HANDLER:
 5012:
 5013:	  0FC6	30 44 41	   JNB	TM102E,TMR102_NOT_ENABLED
 5014:	  0FC9	20 45 47		JB	   TM102D,TM103_HANDLER
 5015:	  0FCC	30 03 44		JNB   TEN_MSEC_BIT,TM103_HANDLER
 5016:
 5017:	  0FCF	90 24 BB		MOV   DPTR,#TMC102L
 5018:	  0FD2	E0		   MOVX  A,@DPTR
 5019:	  0FD3	C3			CLR   C

ASEM-51 V1.3                                        Copyright (c) 2002 by W.W. Heinz                                         PAGE 91



 Line  I  Addr  Code            Source

 5020:	  0FD4	24 01			ADD	A,#01
 5021:	  0FD6	F0			MOVX	@DPTR,A
 5022:	  0FD7	90 24 BA	   MOV   DPTR,#TMC102H
 5023:	  0FDA	E0		   MOVX  A,@DPTR
 5024:	  0FDB	34 00		   ADDC 	A,#0
 5025:	  0FDD	F0			MOVX	@DPTR,A
 5026:
 5027:	  0FDE	90 24 BA		MOV   DPTR,#TMC102H
 5028:	  0FE1	E0			MOVX  A,@DPTR
 5029:	  0FE2	F5 F0			MOV   B,A
 5030:	  0FE4	90 10 7C	   MOV   DPTR,#TMS102H
 5031:	  0FE7	E0		   MOVX  A,@DPTR
 5032:	  0FE8	B5 F0 02	   CJNE  A,B,CHK_TMC102H                 ;TMR00_NOT_DONE
 5033:	  0FEB	80 04			SJMP  CHK_TMC102L
 5034:
 5035:	  0FED			   CHK_TMC102H:
 5036:
 5037:	  0FED	40 17		   JC	   SET_TMR102_DONE
 5038:	  0FEF	50 11		   JNC   TMR102_NOT_DONE
 5039:
 5040:	  0FF1			   CHK_TMC102L:
 5041:
 5042:	  0FF1	90 24 BB	   MOV   DPTR,#TMC102L
 5043:	  0FF4	E0		   MOVX	A,@DPTR                               ;A,TMC00L
 5044:	  0FF5	F5 F0			MOV   B,A
 5045:	  0FF7	90 10 7D		MOV   DPTR,#TMS102L
 5046:	  0FFA	E0			MOVX  A,@DPTR
 5047:	  0FFB	B5 F0 02		CJNE  A,B,CHECK_CARRY_TM102
 5048:	  0FFE	80 06			SJMP  SET_TMR102_DONE
 5049:
 5050:	  1000				CHECK_CARRY_TM102:
 5051:
 5052:	  1000	40 04			JC	   SET_TMR102_DONE
 5053:
 5054:	  1002			   TMR102_NOT_DONE:
 5055:
 5056:	  1002	C2 45			CLR	TM102D
 5057:	  1004	80 0D			SJMP	TM103_HANDLER
 5058:
 5059:	  1006			   SET_TMR102_DONE:
 5060:
 5061:	  1006	D2 45		   SETB	TM102D
 5062:	  1008	80 09			SJMP	TM103_HANDLER
 5063:
 5064:	  100A			   TMR102_NOT_ENABLED:
 5065:
 5066:	  100A	C2 45			CLR	TM102D
 5067:	  100C	E4		   CLR   A
 5068:	  100D	90 24 BA	   MOV   DPTR,#TMC102H
 5069:	  1010	F0		   MOVX  @DPTR,A
 5070:	  1011	A3		   INC   DPTR
 5071:	  1012	F0		   MOVX  @DPTR,A
 5072:				;--------------------------------------------------------------------
 5073:	  1013			   TM103_HANDLER:
 5074:				;---------------------------------------------------------------------
 5075:	  1013	30 46 41	   JNB	TM103E,TMR103_NOT_ENABLED

ASEM-51 V1.3                                        Copyright (c) 2002 by W.W. Heinz                                         PAGE 92



 Line  I  Addr  Code            Source

 5076:	  1016	20 47 47		JB	   TM103D,TM104_HANDLER
 5077:	  1019	30 03 44		JNB   TEN_MSEC_BIT,TM104_HANDLER
 5078:
 5079:	  101C	90 24 BD		MOV   DPTR,#TMC103L
 5080:	  101F	E0		   MOVX  A,@DPTR
 5081:	  1020	C3			CLR   C
 5082:	  1021	24 01			ADD	A,#01
 5083:	  1023	F0			MOVX	@DPTR,A
 5084:	  1024	90 24 BC	   MOV   DPTR,#TMC103H
 5085:	  1027	E0		   MOVX  A,@DPTR
 5086:	  1028	34 00		   ADDC 	A,#0
 5087:	  102A	F0			MOVX	@DPTR,A
 5088:
 5089:	  102B	90 24 BC		MOV   DPTR,#TMC103H
 5090:	  102E	E0			MOVX  A,@DPTR
 5091:	  102F	F5 F0			MOV   B,A
 5092:	  1031	90 10 7E	   MOV   DPTR,#TMS103H
 5093:	  1034	E0		   MOVX  A,@DPTR
 5094:	  1035	B5 F0 02	   CJNE  A,B,CHK_TMC103H                 ;TMR00_NOT_DONE
 5095:	  1038	80 04			SJMP  CHK_TMC103L
 5096:
 5097:	  103A			   CHK_TMC103H:
 5098:
 5099:	  103A	40 17		   JC	   SET_TMR103_DONE
 5100:	  103C	50 11		   JNC   TMR103_NOT_DONE
 5101:
 5102:	  103E			   CHK_TMC103L:
 5103:
 5104:	  103E	90 24 BD	   MOV   DPTR,#TMC103L
 5105:	  1041	E0		   MOVX	A,@DPTR                               ;A,TMC00L
 5106:	  1042	F5 F0			MOV   B,A
 5107:	  1044	90 10 7F		MOV   DPTR,#TMS103L
 5108:	  1047	E0			MOVX  A,@DPTR
 5109:	  1048	B5 F0 02		CJNE  A,B,CHECK_CARRY_TM103
 5110:	  104B	80 06			SJMP  SET_TMR103_DONE
 5111:
 5112:	  104D				CHECK_CARRY_TM103:
 5113:
 5114:	  104D	40 04			JC	   SET_TMR103_DONE
 5115:
 5116:	  104F			   TMR103_NOT_DONE:
 5117:
 5118:	  104F	C2 47			CLR	TM103D
 5119:	  1051	80 0D			SJMP	TM104_HANDLER
 5120:
 5121:	  1053			   SET_TMR103_DONE:
 5122:
 5123:	  1053	D2 47		   SETB	TM103D
 5124:	  1055	80 09			SJMP	TM104_HANDLER
 5125:
 5126:	  1057			   TMR103_NOT_ENABLED:
 5127:
 5128:	  1057	C2 47			CLR	TM103D
 5129:	  1059	E4		   CLR   A
 5130:	  105A	90 24 BC	   MOV   DPTR,#TMC103H
 5131:	  105D	F0		   MOVX  @DPTR,A

ASEM-51 V1.3                                        Copyright (c) 2002 by W.W. Heinz                                         PAGE 93



 Line  I  Addr  Code            Source

 5132:	  105E	A3		   INC   DPTR
 5133:	  105F	F0		   MOVX  @DPTR,A
 5134:				;---------------------------------------------------
 5135:	  1060			   TM104_HANDLER:
 5136:				;---------------------------------------------------
 5137:
 5138:
 5139:	  1060	90 5F C6	   MOV   DPTR,#TM104_ENABLE
 5140:	  1063	E0		   MOVX  A,@DPTR
 5141:	  1064	30 E0 4B	   JNB	TM104E,TMR104_NOT_ENABLED
 5142:	  1067	20 E1 56		JB	   TM104D,TM105_HANDLER
 5143:	  106A	30 03 53		JNB   TEN_MSEC_BIT,TM105_HANDLER
 5144:
 5145:	  106D	90 24 BF		MOV   DPTR,#TMC104L
 5146:	  1070	E0		        MOVX  A,@DPTR
 5147:	  1071	C3			CLR   C
 5148:	  1072	24 01			ADD	A,#01
 5149:	  1074	F0			MOVX	@DPTR,A
 5150:	  1075	90 24 BE	   MOV   DPTR,#TMC104H
 5151:	  1078	E0		   MOVX  A,@DPTR
 5152:	  1079	34 00		   ADDC 	A,#0
 5153:	  107B	F0			MOVX	@DPTR,A
 5154:
 5155:	  107C	90 24 BE		MOV   DPTR,#TMC104H
 5156:	  107F	E0			MOVX  A,@DPTR
 5157:	  1080	F5 F0			MOV   B,A
 5158:	  1082	90 10 80	   MOV   DPTR,#TMS104H
 5159:	  1085	E0		   MOVX  A,@DPTR
 5160:	  1086	B5 F0 02	   CJNE  A,B,CHK_TMC104H                    ;TMR00_NOT_DONE
 5161:	  1089	80 04			SJMP  CHK_TMC104L
 5162:
 5163:	  108B			   CHK_TMC104H:
 5164:
 5165:	  108B	40 1C		   JC	   SET_TMR104_DONE
 5166:	  108D	50 11		   JNC   TMR104_NOT_DONE
 5167:
 5168:	  108F			   CHK_TMC104L:
 5169:
 5170:	  108F	90 24 BF	   MOV   DPTR,#TMC104L
 5171:	  1092	E0		   MOVX	A,@DPTR                               ;A,TMC00L
 5172:	  1093	F5 F0			MOV   B,A
 5173:	  1095	90 10 81		MOV   DPTR,#TMS104L
 5174:	  1098	E0			MOVX  A,@DPTR
 5175:	  1099	B5 F0 02		CJNE  A,B,CHECK_CARRY_TM104
 5176:	  109C	80 0B			SJMP  SET_TMR104_DONE
 5177:
 5178:	  109E				CHECK_CARRY_TM104:
 5179:
 5180:	  109E	40 09			JC	   SET_TMR104_DONE
 5181:
 5182:	  10A0			   TMR104_NOT_DONE:
 5183:
 5184:	  10A0	90 5F C6	   MOV   DPTR,#TM104_ENABLE
 5185:	  10A3	E0		   MOVX  A,@DPTR
 5186:	  10A4	C2 E1			CLR	TM104D
 5187:	  10A6	F0		   MOVX  @DPTR,A

ASEM-51 V1.3                                        Copyright (c) 2002 by W.W. Heinz                                         PAGE 94



 Line  I  Addr  Code            Source

 5188:	  10A7	80 17			SJMP	TM105_HANDLER
 5189:
 5190:	  10A9			   SET_TMR104_DONE:
 5191:
 5192:	  10A9	90 5F C6	   MOV   DPTR,#TM104_ENABLE
 5193:	  10AC	E0		   MOVX  A,@DPTR
 5194:	  10AD	D2 E1			SETB	TM104D
 5195:	  10AF	F0		   MOVX  @DPTR,A
 5196:	  10B0	80 0E		   SJMP	TM105_HANDLER
 5197:
 5198:	  10B2			   TMR104_NOT_ENABLED:
 5199:
 5200:	  10B2	90 5F C6	   MOV   DPTR,#TM104_ENABLE
 5201:	  10B5	E0		   MOVX  A,@DPTR
 5202:	  10B6	C2 E1			CLR	TM104D
 5203:	  10B8	F0		   MOVX  @DPTR,A
 5204:	  10B9	E4		   CLR   A
 5205:	  10BA	90 24 BE	   MOV   DPTR,#TMC104H
 5206:	  10BD	F0		   MOVX  @DPTR,A
 5207:	  10BE	A3		   INC   DPTR
 5208:	  10BF	F0		   MOVX  @DPTR,A
 5209:				;---------------------------------------------------------------
 5210:	  10C0			   TM105_HANDLER:
 5211:
 5212:	  10C0	90 5F C6	   MOV   DPTR,#TM104_ENABLE
 5213:	  10C3	E0		   MOVX  A,@DPTR
 5214:	  10C4	30 E2 4B	   JNB	TM105E,TMR105_NOT_ENABLED
 5215:	  10C7	20 E3 56		JB	   TM105D,TM106_HANDLER
 5216:	  10CA	30 03 53		JNB   TEN_MSEC_BIT,TM106_HANDLER
 5217:
 5218:	  10CD	90 24 C1		MOV   DPTR,#TMC105L
 5219:	  10D0	E0		   MOVX  A,@DPTR
 5220:	  10D1	C3			CLR   C
 5221:	  10D2	24 01			ADD	A,#01
 5222:	  10D4	F0			MOVX	@DPTR,A
 5223:	  10D5	90 24 C0	   MOV   DPTR,#TMC105H
 5224:	  10D8	E0		   MOVX  A,@DPTR
 5225:	  10D9	34 00		   ADDC 	A,#0
 5226:	  10DB	F0			MOVX	@DPTR,A
 5227:
 5228:	  10DC	90 24 C0		MOV   DPTR,#TMC105H
 5229:	  10DF	E0			MOVX  A,@DPTR
 5230:	  10E0	F5 F0			MOV   B,A
 5231:	  10E2	90 10 82	   MOV   DPTR,#TMS105H
 5232:	  10E5	E0		   MOVX  A,@DPTR
 5233:	  10E6	B5 F0 02	   CJNE  A,B,CHK_TMC105H                    ;TMR00_NOT_DONE
 5234:	  10E9	80 04			SJMP  CHK_TMC105L
 5235:
 5236:	  10EB			   CHK_TMC105H:
 5237:
 5238:	  10EB	40 1C		   JC	   SET_TMR105_DONE
 5239:	  10ED	50 11		   JNC   TMR105_NOT_DONE
 5240:
 5241:	  10EF			   CHK_TMC105L:
 5242:
 5243:	  10EF	90 24 C1	   MOV   DPTR,#TMC105L

ASEM-51 V1.3                                        Copyright (c) 2002 by W.W. Heinz                                         PAGE 95



 Line  I  Addr  Code            Source

 5244:	  10F2	E0		   MOVX	A,@DPTR                               ;A,TMC00L
 5245:	  10F3	F5 F0			MOV   B,A
 5246:	  10F5	90 10 83		MOV   DPTR,#TMS105L
 5247:	  10F8	E0			MOVX  A,@DPTR
 5248:	  10F9	B5 F0 02		CJNE  A,B,CHECK_CARRY_TM105
 5249:	  10FC	80 0B			SJMP  SET_TMR105_DONE
 5250:
 5251:	  10FE				CHECK_CARRY_TM105:
 5252:
 5253:	  10FE	40 09			JC	   SET_TMR105_DONE
 5254:
 5255:	  1100			   TMR105_NOT_DONE:
 5256:
 5257:	  1100	90 5F C6	   MOV   DPTR,#TM104_ENABLE
 5258:	  1103	E0		   MOVX  A,@DPTR
 5259:	  1104	C2 E3			CLR	TM105D
 5260:	  1106	F0		   MOVX  @DPTR,A
 5261:	  1107	80 17			SJMP	TM106_HANDLER
 5262:
 5263:	  1109			   SET_TMR105_DONE:
 5264:
 5265:	  1109	90 5F C6	   MOV   DPTR,#TM104_ENABLE
 5266:	  110C	E0		   MOVX  A,@DPTR
 5267:	  110D	D2 E3			SETB	TM105D
 5268:	  110F	F0		   MOVX  @DPTR,A
 5269:	  1110	80 0E		   SJMP	TM106_HANDLER
 5270:
 5271:	  1112			   TMR105_NOT_ENABLED:
 5272:
 5273:	  1112	90 5F C6	   MOV   DPTR,#TM104_ENABLE
 5274:	  1115	E0		   MOVX  A,@DPTR
 5275:	  1116	C2 E3			CLR	TM105D
 5276:	  1118	F0		   MOVX  @DPTR,A
 5277:	  1119	E4		   CLR   A
 5278:	  111A	90 24 C0	   MOV   DPTR,#TMC105H
 5279:	  111D	F0		   MOVX  @DPTR,A
 5280:	  111E	A3		   INC   DPTR
 5281:	  111F	F0		   MOVX  @DPTR,A
 5282:				;--------------------------------------------
 5283:	  1120			   TM106_HANDLER:
 5284:
 5285:	  1120	90 5F C6	   MOV   DPTR,#TM104_ENABLE
 5286:	  1123	E0		   MOVX  A,@DPTR
 5287:	  1124	30 E4 4B	   JNB	TM106E,TMR106_NOT_ENABLED
 5288:	  1127	20 E5 56		JB	   TM106D,TM107_HANDLER
 5289:	  112A	30 03 53		JNB   TEN_MSEC_BIT,TM107_HANDLER
 5290:
 5291:	  112D	90 24 C3		MOV   DPTR,#TMC106L
 5292:	  1130	E0		   MOVX  A,@DPTR
 5293:	  1131	C3			CLR   C
 5294:	  1132	24 01			ADD	A,#01
 5295:	  1134	F0			MOVX	@DPTR,A
 5296:	  1135	90 24 C2	   MOV   DPTR,#TMC106H
 5297:	  1138	E0		   MOVX  A,@DPTR
 5298:	  1139	34 00		   ADDC 	A,#0
 5299:	  113B	F0			MOVX	@DPTR,A

ASEM-51 V1.3                                        Copyright (c) 2002 by W.W. Heinz                                         PAGE 96



 Line  I  Addr  Code            Source

 5300:
 5301:	  113C	90 24 C2		MOV   DPTR,#TMC106H
 5302:	  113F	E0			MOVX  A,@DPTR
 5303:	  1140	F5 F0			MOV   B,A
 5304:	  1142	90 10 84	   MOV   DPTR,#TMS106H
 5305:	  1145	E0		   MOVX  A,@DPTR
 5306:	  1146	B5 F0 02	   CJNE  A,B,CHK_TMC106H                    ;TMR00_NOT_DONE
 5307:	  1149	80 04			SJMP  CHK_TMC106L
 5308:
 5309:	  114B			   CHK_TMC106H:
 5310:
 5311:	  114B	40 1C		   JC	   SET_TMR106_DONE
 5312:	  114D	50 11		   JNC   TMR106_NOT_DONE
 5313:
 5314:	  114F			   CHK_TMC106L:
 5315:
 5316:	  114F	90 24 C3	   MOV   DPTR,#TMC106L
 5317:	  1152	E0		   MOVX	A,@DPTR                               ;A,TMC00L
 5318:	  1153	F5 F0			MOV   B,A
 5319:	  1155	90 10 85		MOV   DPTR,#TMS106L
 5320:	  1158	E0			MOVX  A,@DPTR
 5321:	  1159	B5 F0 02		CJNE  A,B,CHECK_CARRY_TM106
 5322:	  115C	80 0B			SJMP  SET_TMR106_DONE
 5323:
 5324:	  115E				CHECK_CARRY_TM106:
 5325:
 5326:	  115E	40 09			JC	   SET_TMR106_DONE
 5327:
 5328:	  1160			   TMR106_NOT_DONE:
 5329:
 5330:	  1160	90 5F C6	   MOV   DPTR,#TM104_ENABLE
 5331:	  1163	E0		   MOVX  A,@DPTR
 5332:	  1164	C2 E5			CLR	TM106D
 5333:	  1166	F0		   MOVX  @DPTR,A
 5334:	  1167	80 17			SJMP	TM107_HANDLER
 5335:
 5336:	  1169			   SET_TMR106_DONE:
 5337:
 5338:	  1169	90 5F C6	   MOV   DPTR,#TM104_ENABLE
 5339:	  116C	E0		   MOVX  A,@DPTR
 5340:	  116D	D2 E5			SETB	TM106D
 5341:	  116F	F0		   MOVX  @DPTR,A
 5342:	  1170	80 0E		   SJMP	TM107_HANDLER
 5343:
 5344:	  1172			   TMR106_NOT_ENABLED:
 5345:
 5346:	  1172	90 5F C6	   MOV   DPTR,#TM104_ENABLE
 5347:	  1175	E0		   MOVX  A,@DPTR
 5348:	  1176	C2 E5			CLR	TM106D
 5349:	  1178	F0		   MOVX  @DPTR,A
 5350:	  1179	E4		   CLR   A
 5351:	  117A	90 24 C2	   MOV   DPTR,#TMC106H
 5352:	  117D	F0		   MOVX  @DPTR,A
 5353:	  117E	A3		   INC   DPTR
 5354:	  117F	F0		   MOVX  @DPTR,A
 5355:				;-------------------------------------------------------

ASEM-51 V1.3                                        Copyright (c) 2002 by W.W. Heinz                                         PAGE 97



 Line  I  Addr  Code            Source

 5356:	  1180			   TM107_HANDLER:
 5357:
 5358:	  1180	90 5F C6	   MOV   DPTR,#TM104_ENABLE
 5359:	  1183	E0		   MOVX  A,@DPTR
 5360:	  1184	30 E6 4B	   JNB	TM107E,TMR107_NOT_ENABLED
 5361:	  1187	20 E7 56		JB	   TM107D,TM108_HANDLER
 5362:	  118A	30 03 53		JNB   TEN_MSEC_BIT,TM108_HANDLER
 5363:
 5364:	  118D	90 24 C5		MOV   DPTR,#TMC107L
 5365:	  1190	E0		   MOVX  A,@DPTR
 5366:	  1191	C3			CLR   C
 5367:	  1192	24 01			ADD	A,#01
 5368:	  1194	F0			MOVX	@DPTR,A
 5369:	  1195	90 24 C4	   MOV   DPTR,#TMC107H
 5370:	  1198	E0		   MOVX  A,@DPTR
 5371:	  1199	34 00		   ADDC 	A,#0
 5372:	  119B	F0			MOVX	@DPTR,A
 5373:
 5374:	  119C	90 24 C4		MOV   DPTR,#TMC107H
 5375:	  119F	E0			MOVX  A,@DPTR
 5376:	  11A0	F5 F0			MOV   B,A
 5377:	  11A2	90 10 86	   MOV   DPTR,#TMS107H
 5378:	  11A5	E0		   MOVX  A,@DPTR
 5379:	  11A6	B5 F0 02	   CJNE  A,B,CHK_TMC107H                    ;TMR00_NOT_DONE
 5380:	  11A9	80 04			SJMP  CHK_TMC107L
 5381:
 5382:	  11AB			   CHK_TMC107H:
 5383:
 5384:	  11AB	40 1C		   JC	   SET_TMR107_DONE
 5385:	  11AD	50 11		   JNC   TMR107_NOT_DONE
 5386:
 5387:	  11AF			   CHK_TMC107L:
 5388:
 5389:	  11AF	90 24 C5	   MOV   DPTR,#TMC107L
 5390:	  11B2	E0		   MOVX	A,@DPTR                               ;A,TMC00L
 5391:	  11B3	F5 F0			MOV   B,A
 5392:	  11B5	90 10 87		MOV   DPTR,#TMS107L
 5393:	  11B8	E0			MOVX  A,@DPTR
 5394:	  11B9	B5 F0 02		CJNE  A,B,CHECK_CARRY_TM107
 5395:	  11BC	80 0B			SJMP  SET_TMR107_DONE
 5396:
 5397:	  11BE				CHECK_CARRY_TM107:
 5398:
 5399:	  11BE	40 09			JC	   SET_TMR107_DONE
 5400:
 5401:	  11C0			   TMR107_NOT_DONE:
 5402:
 5403:	  11C0	90 5F C6	   MOV   DPTR,#TM104_ENABLE
 5404:	  11C3	E0		   MOVX  A,@DPTR
 5405:	  11C4	C2 E7			CLR	TM107D
 5406:	  11C6	F0		   MOVX  @DPTR,A
 5407:	  11C7	80 17			SJMP	TM108_HANDLER
 5408:
 5409:	  11C9			   SET_TMR107_DONE:
 5410:
 5411:	  11C9	90 5F C6	   MOV   DPTR,#TM104_ENABLE

ASEM-51 V1.3                                        Copyright (c) 2002 by W.W. Heinz                                         PAGE 98



 Line  I  Addr  Code            Source

 5412:	  11CC	E0		   MOVX  A,@DPTR
 5413:	  11CD	D2 E7			SETB	TM107D
 5414:	  11CF	F0		   MOVX  @DPTR,A
 5415:	  11D0	80 0E		   SJMP	TM108_HANDLER
 5416:
 5417:	  11D2			   TMR107_NOT_ENABLED:
 5418:
 5419:	  11D2	90 5F C6	   MOV   DPTR,#TM104_ENABLE
 5420:	  11D5	E0		   MOVX  A,@DPTR
 5421:	  11D6	C2 E7			CLR	TM107D
 5422:	  11D8	F0		   MOVX  @DPTR,A
 5423:	  11D9	E4		   CLR   A
 5424:	  11DA	90 24 C4	   MOV   DPTR,#TMC107H
 5425:	  11DD	F0		   MOVX  @DPTR,A
 5426:	  11DE	A3		   INC   DPTR
 5427:	  11DF	F0		   MOVX  @DPTR,A
 5428:				;-----------------------------------------------------------
 5429:	  11E0			   TM108_HANDLER:
 5430:	  11E0			   TM120_HANDLER:
 5431:
 5432:	  11E0	90 5F CA	   MOV   DPTR,#TM120_ENABLE_1
 5433:	  11E3	E0		   MOVX  A,@DPTR
 5434:	  11E4	30 E0 4B	   JNB	TM120E,TMR120_NOT_ENABLED
 5435:	  11E7	20 E1 56		JB	   TM120D,TM120_END
 5436:	  11EA	30 03 53		JNB   TEN_MSEC_BIT,TM120_END
 5437:
 5438:	  11ED	90 24 E9		MOV   DPTR,#TMC120L
 5439:	  11F0	E0		   MOVX  A,@DPTR
 5440:	  11F1	C3			CLR   C
 5441:	  11F2	24 01			ADD	A,#01
 5442:	  11F4	F0			MOVX	@DPTR,A
 5443:	  11F5	90 24 E8	   MOV   DPTR,#TMC120H
 5444:	  11F8	E0		   MOVX  A,@DPTR
 5445:	  11F9	34 00		   ADDC 	A,#0
 5446:	  11FB	F0			MOVX	@DPTR,A
 5447:
 5448:	  11FC	90 24 E8		MOV   DPTR,#TMC120H
 5449:	  11FF	E0			MOVX  A,@DPTR
 5450:	  1200	F5 F0			MOV   B,A
 5451:	  1202	90 10 1E	   MOV   DPTR,#TMS120H
 5452:	  1205	E0		   MOVX  A,@DPTR
 5453:	  1206	B5 F0 02	   CJNE  A,B,CHK_TMC120H
 5454:	  1209	80 04			SJMP  CHK_TMC120L
 5455:
 5456:	  120B			   CHK_TMC120H:
 5457:
 5458:	  120B	40 1C		   JC	   SET_TMR120_DONE
 5459:	  120D	50 11		   JNC   TMR120_NOT_DONE
 5460:
 5461:	  120F			   CHK_TMC120L:
 5462:
 5463:	  120F	90 24 E9	   MOV   DPTR,#TMC120L
 5464:	  1212	E0		   MOVX	A,@DPTR
 5465:	  1213	F5 F0			MOV   B,A
 5466:	  1215	90 10 1F		MOV   DPTR,#TMS120L
 5467:	  1218	E0			MOVX  A,@DPTR

ASEM-51 V1.3                                        Copyright (c) 2002 by W.W. Heinz                                         PAGE 99



 Line  I  Addr  Code            Source

 5468:	  1219	B5 F0 02		CJNE  A,B,CHECK_CARRY_TM120
 5469:	  121C	80 0B			SJMP  SET_TMR120_DONE
 5470:
 5471:	  121E				CHECK_CARRY_TM120:
 5472:
 5473:	  121E	40 09			JC	   SET_TMR120_DONE
 5474:
 5475:	  1220			   TMR120_NOT_DONE:
 5476:
 5477:	  1220	90 5F CA		MOV   DPTR,#TM120_ENABLE_1
 5478:	  1223	E0		   MOVX  A,@DPTR
 5479:	  1224	C2 E1			CLR	TM120D
 5480:	  1226	F0			MOVX  @DPTR,A
 5481:	  1227	80 17			SJMP	TM120_END
 5482:
 5483:	  1229			   SET_TMR120_DONE:
 5484:
 5485:	  1229	90 5F CA	   MOV   DPTR,#TM120_ENABLE_1
 5486:	  122C	E0		   MOVX  A,@DPTR
 5487:	  122D	D2 E1			SETB	TM120D
 5488:	  122F	F0			MOVX  @DPTR,A
 5489:
 5490:	  1230	80 0E			SJMP	TM120_END
 5491:
 5492:	  1232			   TMR120_NOT_ENABLED:
 5493:
 5494:	  1232	90 5F CA		MOV   DPTR,#TM120_ENABLE_1
 5495:	  1235	E0		   MOVX  A,@DPTR
 5496:	  1236	C2 E1			CLR	TM120D
 5497:	  1238	F0			MOVX  @DPTR,A
 5498:
 5499:	  1239	E4		   CLR   A
 5500:	  123A	90 24 E8	   MOV   DPTR,#TMC120H
 5501:	  123D	F0		   MOVX  @DPTR,A
 5502:	  123E	A3		   INC   DPTR
 5503:	  123F	F0		   MOVX  @DPTR,A
 5504:
 5505:	  1240			   TM120_END:
 5506:				  ; LJMP   TM20_HANDLER
 5507:				;--------------------------------------------------------------------
 5508:	  1240			   TM121_HANDLER:
 5509:
 5510:	  1240	90 5F CA	   MOV   DPTR,#TM120_ENABLE_1
 5511:	  1243	E0		   MOVX  A,@DPTR
 5512:	  1244	30 E2 4B	   JNB	TM121E,TMR121_NOT_ENABLED
 5513:	  1247	20 E3 56		JB	   TM121D,TM121_END
 5514:	  124A	30 03 53		JNB   TEN_MSEC_BIT,TM121_END
 5515:
 5516:	  124D	90 24 EB		MOV   DPTR,#TMC121L
 5517:	  1250	E0		   MOVX  A,@DPTR
 5518:	  1251	C3			CLR   C
 5519:	  1252	24 01			ADD	A,#01
 5520:	  1254	F0			MOVX	@DPTR,A
 5521:	  1255	90 24 EA	   MOV   DPTR,#TMC121H
 5522:	  1258	E0		   MOVX  A,@DPTR
 5523:	  1259	34 00		   ADDC 	A,#0

ASEM-51 V1.3                                        Copyright (c) 2002 by W.W. Heinz                                        PAGE 100



 Line  I  Addr  Code            Source

 5524:	  125B	F0			MOVX	@DPTR,A
 5525:
 5526:	  125C	90 24 EA		MOV   DPTR,#TMC121H
 5527:	  125F	E0			MOVX  A,@DPTR
 5528:	  1260	F5 F0			MOV   B,A
 5529:	  1262	90 10 20	   MOV   DPTR,#TMS121H
 5530:	  1265	E0		   MOVX  A,@DPTR
 5531:	  1266	B5 F0 02	   CJNE  A,B,CHK_TMC121H
 5532:	  1269	80 04			SJMP  CHK_TMC121L
 5533:
 5534:	  126B			   CHK_TMC121H:
 5535:
 5536:	  126B	40 1C		   JC	   SET_TMR121_DONE
 5537:	  126D	50 11		   JNC   TMR121_NOT_DONE
 5538:
 5539:	  126F			   CHK_TMC121L:
 5540:
 5541:	  126F	90 24 EB	   MOV   DPTR,#TMC121L
 5542:	  1272	E0		   MOVX	A,@DPTR
 5543:	  1273	F5 F0			MOV   B,A
 5544:	  1275	90 10 21		MOV   DPTR,#TMS121L
 5545:	  1278	E0			MOVX  A,@DPTR
 5546:	  1279	B5 F0 02		CJNE  A,B,CHECK_CARRY_TM121
 5547:	  127C	80 0B			SJMP  SET_TMR121_DONE
 5548:
 5549:	  127E				CHECK_CARRY_TM121:
 5550:
 5551:	  127E	40 09			JC	   SET_TMR121_DONE
 5552:
 5553:	  1280			   TMR121_NOT_DONE:
 5554:
 5555:	  1280	90 5F CA		MOV   DPTR,#TM120_ENABLE_1
 5556:	  1283	E0		   MOVX  A,@DPTR
 5557:	  1284	C2 E3			CLR	TM121D
 5558:	  1286	F0			MOVX  @DPTR,A
 5559:	  1287	80 17			SJMP	TM121_END
 5560:
 5561:	  1289			   SET_TMR121_DONE:
 5562:
 5563:	  1289	90 5F CA	   MOV   DPTR,#TM120_ENABLE_1
 5564:	  128C	E0		   MOVX  A,@DPTR
 5565:	  128D	D2 E3			SETB	TM121D
 5566:	  128F	F0			MOVX  @DPTR,A
 5567:
 5568:	  1290	80 0E			SJMP	TM121_END
 5569:
 5570:	  1292			   TMR121_NOT_ENABLED:
 5571:
 5572:	  1292	90 5F CA		MOV   DPTR,#TM120_ENABLE_1
 5573:	  1295	E0		   MOVX  A,@DPTR
 5574:	  1296	C2 E3			CLR	TM121D
 5575:	  1298	F0			MOVX  @DPTR,A
 5576:
 5577:	  1299	E4		   CLR   A
 5578:	  129A	90 24 EA	   MOV   DPTR,#TMC121H
 5579:	  129D	F0		   MOVX  @DPTR,A

ASEM-51 V1.3                                        Copyright (c) 2002 by W.W. Heinz                                        PAGE 101



 Line  I  Addr  Code            Source

 5580:	  129E	A3		   INC   DPTR
 5581:	  129F	F0		   MOVX  @DPTR,A
 5582:
 5583:	  12A0			   TM121_END:
 5584:				  ; LJMP  TM20_HANDLER
 5585:				;-------------------------------------------------------------
 5586:	  12A0			   TM122_HANDLER:
 5587:
 5588:	  12A0	90 5F CA	   MOV   DPTR,#TM120_ENABLE_1
 5589:	  12A3	E0		   MOVX  A,@DPTR
 5590:	  12A4	30 E4 4B	   JNB	TM122E,TMR122_NOT_ENABLED
 5591:	  12A7	20 E5 56		JB	   TM122D,TM122_END
 5592:	  12AA	30 03 53		JNB   TEN_MSEC_BIT,TM122_END
 5593:
 5594:	  12AD	90 24 ED		MOV   DPTR,#TMC122L
 5595:	  12B0	E0		   MOVX  A,@DPTR
 5596:	  12B1	C3			CLR   C
 5597:	  12B2	24 01			ADD	A,#01
 5598:	  12B4	F0			MOVX	@DPTR,A
 5599:	  12B5	90 24 EC	   MOV   DPTR,#TMC122H
 5600:	  12B8	E0		   MOVX  A,@DPTR
 5601:	  12B9	34 00		   ADDC 	A,#0
 5602:	  12BB	F0			MOVX	@DPTR,A
 5603:
 5604:	  12BC	90 24 EC		MOV   DPTR,#TMC122H
 5605:	  12BF	E0			MOVX  A,@DPTR
 5606:	  12C0	F5 F0			MOV   B,A
 5607:	  12C2	90 10 22	   MOV   DPTR,#TMS122H
 5608:	  12C5	E0		   MOVX  A,@DPTR
 5609:	  12C6	B5 F0 02	   CJNE  A,B,CHK_TMC122H
 5610:	  12C9	80 04			SJMP  CHK_TMC122L
 5611:
 5612:	  12CB			   CHK_TMC122H:
 5613:
 5614:	  12CB	40 1C		   JC	   SET_TMR122_DONE
 5615:	  12CD	50 11		   JNC   TMR122_NOT_DONE
 5616:
 5617:	  12CF			   CHK_TMC122L:
 5618:
 5619:	  12CF	90 24 ED	   MOV   DPTR,#TMC122L
 5620:	  12D2	E0		   MOVX	A,@DPTR
 5621:	  12D3	F5 F0			MOV   B,A
 5622:	  12D5	90 10 23		MOV   DPTR,#TMS122L
 5623:	  12D8	E0			MOVX  A,@DPTR
 5624:	  12D9	B5 F0 02		CJNE  A,B,CHECK_CARRY_TM122
 5625:	  12DC	80 0B			SJMP  SET_TMR122_DONE
 5626:
 5627:	  12DE				CHECK_CARRY_TM122:
 5628:
 5629:	  12DE	40 09			JC	   SET_TMR122_DONE
 5630:
 5631:	  12E0			   TMR122_NOT_DONE:
 5632:
 5633:	  12E0	90 5F CA		MOV   DPTR,#TM120_ENABLE_1
 5634:	  12E3	E0		   MOVX  A,@DPTR
 5635:	  12E4	C2 E5			CLR	TM122D

ASEM-51 V1.3                                        Copyright (c) 2002 by W.W. Heinz                                        PAGE 102



 Line  I  Addr  Code            Source

 5636:	  12E6	F0			MOVX  @DPTR,A
 5637:	  12E7	80 17			SJMP	TM122_END
 5638:
 5639:	  12E9			   SET_TMR122_DONE:
 5640:
 5641:	  12E9	90 5F CA	   MOV   DPTR,#TM120_ENABLE_1
 5642:	  12EC	E0		   MOVX  A,@DPTR
 5643:	  12ED	D2 E5			SETB	TM122D
 5644:	  12EF	F0			MOVX  @DPTR,A
 5645:
 5646:	  12F0	80 0E			SJMP	TM122_END
 5647:
 5648:	  12F2			   TMR122_NOT_ENABLED:
 5649:
 5650:	  12F2	90 5F CA		MOV   DPTR,#TM120_ENABLE_1
 5651:	  12F5	E0		   MOVX  A,@DPTR
 5652:	  12F6	C2 E5			CLR	TM122D
 5653:	  12F8	F0			MOVX  @DPTR,A
 5654:
 5655:	  12F9	E4		   CLR   A
 5656:	  12FA	90 24 EC	   MOV   DPTR,#TMC122H
 5657:	  12FD	F0		   MOVX  @DPTR,A
 5658:	  12FE	A3		   INC   DPTR
 5659:	  12FF	F0		   MOVX  @DPTR,A
 5660:
 5661:	  1300			   TM122_END:
 5662:				;-----------------------------------------------------------
 5663:	  1300			   TM123_HANDLER:
 5664:
 5665:	  1300	90 5F CA	   MOV   DPTR,#TM120_ENABLE_1
 5666:	  1303	E0		   MOVX  A,@DPTR
 5667:	  1304	30 E6 4B	   JNB	TM123E,TMR123_NOT_ENABLED
 5668:	  1307	20 E7 56		JB	   TM123D,TM123_END
 5669:	  130A	30 03 53		JNB   TEN_MSEC_BIT,TM123_END
 5670:
 5671:	  130D	90 24 EF		MOV   DPTR,#TMC123L
 5672:	  1310	E0		   MOVX  A,@DPTR
 5673:	  1311	C3			CLR   C
 5674:	  1312	24 01			ADD	A,#01
 5675:	  1314	F0			MOVX	@DPTR,A
 5676:	  1315	90 24 EE	   MOV   DPTR,#TMC123H
 5677:	  1318	E0		   MOVX  A,@DPTR
 5678:	  1319	34 00		   ADDC 	A,#0
 5679:	  131B	F0			MOVX	@DPTR,A
 5680:
 5681:	  131C	90 24 EE		MOV   DPTR,#TMC123H
 5682:	  131F	E0			MOVX  A,@DPTR
 5683:	  1320	F5 F0			MOV   B,A
 5684:	  1322	90 10 24	   MOV   DPTR,#TMS123H
 5685:	  1325	E0		   MOVX  A,@DPTR
 5686:	  1326	B5 F0 02	   CJNE  A,B,CHK_TMC123H
 5687:	  1329	80 04			SJMP  CHK_TMC123L
 5688:
 5689:	  132B			   CHK_TMC123H:
 5690:
 5691:	  132B	40 1C		   JC	   SET_TMR123_DONE

ASEM-51 V1.3                                        Copyright (c) 2002 by W.W. Heinz                                        PAGE 103



 Line  I  Addr  Code            Source

 5692:	  132D	50 11		   JNC   TMR123_NOT_DONE
 5693:
 5694:	  132F			   CHK_TMC123L:
 5695:
 5696:	  132F	90 24 EF	   MOV   DPTR,#TMC123L
 5697:	  1332	E0		   MOVX	A,@DPTR
 5698:	  1333	F5 F0			MOV   B,A
 5699:	  1335	90 10 25		MOV   DPTR,#TMS123L
 5700:	  1338	E0			MOVX  A,@DPTR
 5701:	  1339	B5 F0 02		CJNE  A,B,CHECK_CARRY_TM123
 5702:	  133C	80 0B			SJMP  SET_TMR123_DONE
 5703:
 5704:	  133E				CHECK_CARRY_TM123:
 5705:
 5706:	  133E	40 09			JC	   SET_TMR123_DONE
 5707:
 5708:	  1340			   TMR123_NOT_DONE:
 5709:
 5710:	  1340	90 5F CA		MOV   DPTR,#TM120_ENABLE_1
 5711:	  1343	E0		   MOVX  A,@DPTR
 5712:	  1344	C2 E7			CLR	TM123D
 5713:	  1346	F0			MOVX  @DPTR,A
 5714:	  1347	80 17			SJMP	TM123_END
 5715:
 5716:	  1349			   SET_TMR123_DONE:
 5717:
 5718:	  1349	90 5F CA	   MOV   DPTR,#TM120_ENABLE_1
 5719:	  134C	E0		   MOVX  A,@DPTR
 5720:	  134D	D2 E7			SETB	TM123D
 5721:	  134F	F0			MOVX  @DPTR,A
 5722:
 5723:	  1350	80 0E			SJMP	TM123_END
 5724:
 5725:	  1352			   TMR123_NOT_ENABLED:
 5726:
 5727:	  1352	90 5F CA		MOV   DPTR,#TM120_ENABLE_1
 5728:	  1355	E0		   MOVX  A,@DPTR
 5729:	  1356	C2 E7			CLR	TM123D
 5730:	  1358	F0			MOVX  @DPTR,A
 5731:
 5732:	  1359	E4		   CLR   A
 5733:	  135A	90 24 EE	   MOV   DPTR,#TMC123H
 5734:	  135D	F0		   MOVX  @DPTR,A
 5735:	  135E	A3		   INC   DPTR
 5736:	  135F	F0		   MOVX  @DPTR,A
 5737:
 5738:	  1360			   TM123_END:
 5739:				;--------------------------------------------------------
 5740:	  1360			  TM124_HANDLER:
 5741:
 5742:	  1360	90 5F CB	   MOV   DPTR,#TM124_ENABLE_1
 5743:	  1363	E0		   MOVX  A,@DPTR
 5744:	  1364	30 E0 4B	   JNB	TM124E,TMR124_NOT_ENABLED
 5745:	  1367	20 E1 56		JB	   TM124D,TM124_END
 5746:	  136A	30 03 53		JNB   TEN_MSEC_BIT,TM124_END
 5747:

ASEM-51 V1.3                                        Copyright (c) 2002 by W.W. Heinz                                        PAGE 104



 Line  I  Addr  Code            Source

 5748:	  136D	90 24 F1		MOV   DPTR,#TMC124L
 5749:	  1370	E0		   MOVX  A,@DPTR
 5750:	  1371	C3			CLR   C
 5751:	  1372	24 01			ADD	A,#01
 5752:	  1374	F0			MOVX	@DPTR,A
 5753:	  1375	90 24 F0	   MOV   DPTR,#TMC124H
 5754:	  1378	E0		   MOVX  A,@DPTR
 5755:	  1379	34 00		   ADDC 	A,#0
 5756:	  137B	F0			MOVX	@DPTR,A
 5757:
 5758:	  137C	90 24 F0		MOV   DPTR,#TMC124H
 5759:	  137F	E0			MOVX  A,@DPTR
 5760:	  1380	F5 F0			MOV   B,A
 5761:	  1382	90 10 26	   MOV   DPTR,#TMS124H
 5762:	  1385	E0		   MOVX  A,@DPTR
 5763:	  1386	B5 F0 02	   CJNE  A,B,CHK_TMC124H
 5764:	  1389	80 04			SJMP  CHK_TMC124L
 5765:
 5766:	  138B			   CHK_TMC124H:
 5767:
 5768:	  138B	40 1C		   JC	   SET_TMR124_DONE
 5769:	  138D	50 11		   JNC   TMR124_NOT_DONE
 5770:
 5771:	  138F			   CHK_TMC124L:
 5772:
 5773:	  138F	90 24 F1	   MOV   DPTR,#TMC124L
 5774:	  1392	E0		   MOVX	A,@DPTR
 5775:	  1393	F5 F0			MOV   B,A
 5776:	  1395	90 10 27		MOV   DPTR,#TMS124L
 5777:	  1398	E0			MOVX  A,@DPTR
 5778:	  1399	B5 F0 02		CJNE  A,B,CHECK_CARRY_TM124
 5779:	  139C	80 0B			SJMP  SET_TMR124_DONE
 5780:
 5781:	  139E				CHECK_CARRY_TM124:
 5782:
 5783:	  139E	40 09			JC	   SET_TMR124_DONE
 5784:
 5785:	  13A0			   TMR124_NOT_DONE:
 5786:
 5787:	  13A0	90 5F CB		MOV   DPTR,#TM124_ENABLE_1
 5788:	  13A3	E0		   MOVX  A,@DPTR
 5789:	  13A4	C2 E1			CLR	TM124D
 5790:	  13A6	F0			MOVX  @DPTR,A
 5791:	  13A7	80 17			SJMP	TM124_END
 5792:
 5793:	  13A9			   SET_TMR124_DONE:
 5794:
 5795:	  13A9	90 5F CB	   MOV   DPTR,#TM124_ENABLE_1
 5796:	  13AC	E0		   MOVX  A,@DPTR
 5797:	  13AD	D2 E1			SETB	TM124D
 5798:	  13AF	F0			MOVX  @DPTR,A
 5799:
 5800:	  13B0	80 0E			SJMP	TM124_END
 5801:
 5802:	  13B2			   TMR124_NOT_ENABLED:
 5803:

ASEM-51 V1.3                                        Copyright (c) 2002 by W.W. Heinz                                        PAGE 105



 Line  I  Addr  Code            Source

 5804:	  13B2	90 5F CB		MOV   DPTR,#TM124_ENABLE_1
 5805:	  13B5	E0		   MOVX  A,@DPTR
 5806:	  13B6	C2 E1			CLR	TM124D
 5807:	  13B8	F0			MOVX  @DPTR,A
 5808:
 5809:	  13B9	E4		   CLR   A
 5810:	  13BA	90 24 F0	   MOV   DPTR,#TMC124H
 5811:	  13BD	F0		   MOVX  @DPTR,A
 5812:	  13BE	A3		   INC   DPTR
 5813:	  13BF	F0		   MOVX  @DPTR,A
 5814:
 5815:	  13C0			   TM124_END:
 5816:				;------------------------------------------------------
 5817:	  13C0			   TM125_HANDLER:
 5818:
 5819:	  13C0	90 5F CB	   MOV   DPTR,#TM124_ENABLE_1
 5820:	  13C3	E0		   MOVX  A,@DPTR
 5821:	  13C4	30 E2 4B	   JNB	TM125E,TMR125_NOT_ENABLED
 5822:	  13C7	20 E3 56		JB	   TM125D,TM125_END
 5823:	  13CA	30 03 53		JNB   TEN_MSEC_BIT,TM125_END
 5824:
 5825:	  13CD	90 24 F3		MOV   DPTR,#TMC125L
 5826:	  13D0	E0		   MOVX  A,@DPTR
 5827:	  13D1	C3			CLR   C
 5828:	  13D2	24 01			ADD	A,#01
 5829:	  13D4	F0			MOVX	@DPTR,A
 5830:	  13D5	90 24 F2	   MOV   DPTR,#TMC125H
 5831:	  13D8	E0		   MOVX  A,@DPTR
 5832:	  13D9	34 00		   ADDC 	A,#0
 5833:	  13DB	F0			MOVX	@DPTR,A
 5834:
 5835:	  13DC	90 24 F2		MOV   DPTR,#TMC125H
 5836:	  13DF	E0			MOVX  A,@DPTR
 5837:	  13E0	F5 F0			MOV   B,A
 5838:	  13E2	90 10 28	   MOV   DPTR,#TMS125H
 5839:	  13E5	E0		   MOVX  A,@DPTR
 5840:	  13E6	B5 F0 02	   CJNE  A,B,CHK_TMC125H
 5841:	  13E9	80 04			SJMP  CHK_TMC125L
 5842:
 5843:	  13EB			   CHK_TMC125H:
 5844:
 5845:	  13EB	40 1C		   JC	   SET_TMR125_DONE
 5846:	  13ED	50 11		   JNC   TMR125_NOT_DONE
 5847:
 5848:	  13EF			   CHK_TMC125L:
 5849:
 5850:	  13EF	90 24 F3	   MOV   DPTR,#TMC125L
 5851:	  13F2	E0		   MOVX	A,@DPTR
 5852:	  13F3	F5 F0			MOV   B,A
 5853:	  13F5	90 10 29		MOV   DPTR,#TMS125L
 5854:	  13F8	E0			MOVX  A,@DPTR
 5855:	  13F9	B5 F0 02		CJNE  A,B,CHECK_CARRY_TM125
 5856:	  13FC	80 0B			SJMP  SET_TMR125_DONE
 5857:
 5858:	  13FE				CHECK_CARRY_TM125:
 5859:

ASEM-51 V1.3                                        Copyright (c) 2002 by W.W. Heinz                                        PAGE 106



 Line  I  Addr  Code            Source

 5860:	  13FE	40 09			JC	   SET_TMR125_DONE
 5861:
 5862:	  1400			   TMR125_NOT_DONE:
 5863:
 5864:	  1400	90 5F CB		MOV   DPTR,#TM124_ENABLE_1
 5865:	  1403	E0		   MOVX  A,@DPTR
 5866:	  1404	C2 E3			CLR	TM125D
 5867:	  1406	F0			MOVX  @DPTR,A
 5868:	  1407	80 17			SJMP	TM125_END
 5869:
 5870:	  1409			   SET_TMR125_DONE:
 5871:
 5872:	  1409	90 5F CB	   MOV   DPTR,#TM124_ENABLE_1
 5873:	  140C	E0		   MOVX  A,@DPTR
 5874:	  140D	D2 E3			SETB	TM125D
 5875:	  140F	F0			MOVX  @DPTR,A
 5876:
 5877:	  1410	80 0E			SJMP	TM125_END
 5878:
 5879:	  1412			   TMR125_NOT_ENABLED:
 5880:
 5881:	  1412	90 5F CB		MOV   DPTR,#TM124_ENABLE_1
 5882:	  1415	E0		   MOVX  A,@DPTR
 5883:	  1416	C2 E3			CLR	TM125D
 5884:	  1418	F0			MOVX  @DPTR,A
 5885:
 5886:	  1419	E4		   CLR   A
 5887:	  141A	90 24 F2	   MOV   DPTR,#TMC125H
 5888:	  141D	F0		   MOVX  @DPTR,A
 5889:	  141E	A3		   INC   DPTR
 5890:	  141F	F0		   MOVX  @DPTR,A
 5891:
 5892:	  1420			   TM125_END:
 5893:				;---------------------------------------------------------------
 5894:	  1420			   TM126_HANDLER:
 5895:
 5896:	  1420	90 5F CB	   MOV   DPTR,#TM124_ENABLE_1
 5897:	  1423	E0		   MOVX  A,@DPTR
 5898:	  1424	30 E4 4B	   JNB	TM126E,TMR126_NOT_ENABLED
 5899:	  1427	20 E5 56		JB	   TM126D,TM126_END
 5900:	  142A	30 03 53		JNB   TEN_MSEC_BIT,TM126_END
 5901:
 5902:	  142D	90 24 F5		MOV   DPTR,#TMC126L
 5903:	  1430	E0		   MOVX  A,@DPTR
 5904:	  1431	C3			CLR   C
 5905:	  1432	24 01			ADD	A,#01
 5906:	  1434	F0			MOVX	@DPTR,A
 5907:	  1435	90 24 F4	   MOV   DPTR,#TMC126H
 5908:	  1438	E0		   MOVX  A,@DPTR
 5909:	  1439	34 00		   ADDC 	A,#0
 5910:	  143B	F0			MOVX	@DPTR,A
 5911:
 5912:	  143C	90 24 F4		MOV   DPTR,#TMC126H
 5913:	  143F	E0			MOVX  A,@DPTR
 5914:	  1440	F5 F0			MOV   B,A
 5915:	  1442	90 10 2A	   MOV   DPTR,#TMS126H

ASEM-51 V1.3                                        Copyright (c) 2002 by W.W. Heinz                                        PAGE 107



 Line  I  Addr  Code            Source

 5916:	  1445	E0		   MOVX  A,@DPTR
 5917:	  1446	B5 F0 02	   CJNE  A,B,CHK_TMC126H
 5918:	  1449	80 04			SJMP  CHK_TMC126L
 5919:
 5920:	  144B			   CHK_TMC126H:
 5921:
 5922:	  144B	40 1C		   JC	   SET_TMR126_DONE
 5923:	  144D	50 11		   JNC   TMR126_NOT_DONE
 5924:
 5925:	  144F			   CHK_TMC126L:
 5926:
 5927:	  144F	90 24 F5	   MOV   DPTR,#TMC126L
 5928:	  1452	E0		   MOVX	A,@DPTR
 5929:	  1453	F5 F0			MOV   B,A
 5930:	  1455	90 10 2B		MOV   DPTR,#TMS126L
 5931:	  1458	E0			MOVX  A,@DPTR
 5932:	  1459	B5 F0 02		CJNE  A,B,CHECK_CARRY_TM126
 5933:	  145C	80 0B			SJMP  SET_TMR126_DONE
 5934:
 5935:	  145E				CHECK_CARRY_TM126:
 5936:
 5937:	  145E	40 09			JC	   SET_TMR126_DONE
 5938:
 5939:	  1460			   TMR126_NOT_DONE:
 5940:
 5941:	  1460	90 5F CB		MOV   DPTR,#TM124_ENABLE_1
 5942:	  1463	E0		   MOVX  A,@DPTR
 5943:	  1464	C2 E5			CLR	TM126D
 5944:	  1466	F0			MOVX  @DPTR,A
 5945:	  1467	80 17			SJMP	TM126_END
 5946:
 5947:	  1469			   SET_TMR126_DONE:
 5948:
 5949:	  1469	90 5F CB	   MOV   DPTR,#TM124_ENABLE_1
 5950:	  146C	E0		   MOVX  A,@DPTR
 5951:	  146D	D2 E5			SETB	TM126D
 5952:	  146F	F0			MOVX  @DPTR,A
 5953:
 5954:	  1470	80 0E			SJMP	TM126_END
 5955:
 5956:	  1472			   TMR126_NOT_ENABLED:
 5957:
 5958:	  1472	90 5F CB		MOV   DPTR,#TM124_ENABLE_1
 5959:	  1475	E0		   MOVX  A,@DPTR
 5960:	  1476	C2 E5			CLR	TM126D
 5961:	  1478	F0			MOVX  @DPTR,A
 5962:
 5963:	  1479	E4		   CLR   A
 5964:	  147A	90 24 F4	   MOV   DPTR,#TMC126H
 5965:	  147D	F0		   MOVX  @DPTR,A
 5966:	  147E	A3		   INC   DPTR
 5967:	  147F	F0		   MOVX  @DPTR,A
 5968:
 5969:	  1480			   TM126_END:
 5970:				;-----------------------------------------------------------------
 5971:	  1480			   TM127_HANDLER:

ASEM-51 V1.3                                        Copyright (c) 2002 by W.W. Heinz                                        PAGE 108



 Line  I  Addr  Code            Source

 5972:
 5973:	  1480	90 5F CB	   MOV   DPTR,#TM124_ENABLE_1
 5974:	  1483	E0		   MOVX  A,@DPTR
 5975:	  1484	30 E6 4B	   JNB	TM127E,TMR127_NOT_ENABLED
 5976:	  1487	20 E7 56		JB	   TM127D,TM127_END
 5977:	  148A	30 03 53		JNB   TEN_MSEC_BIT,TM127_END
 5978:
 5979:	  148D	90 24 F7		MOV   DPTR,#TMC127L
 5980:	  1490	E0		   MOVX  A,@DPTR
 5981:	  1491	C3			CLR   C
 5982:	  1492	24 01			ADD	A,#01
 5983:	  1494	F0			MOVX	@DPTR,A
 5984:	  1495	90 24 F6	   MOV   DPTR,#TMC127H
 5985:	  1498	E0		   MOVX  A,@DPTR
 5986:	  1499	34 00		   ADDC 	A,#0
 5987:	  149B	F0			MOVX	@DPTR,A
 5988:
 5989:	  149C	90 24 F6		MOV   DPTR,#TMC127H
 5990:	  149F	E0			MOVX  A,@DPTR
 5991:	  14A0	F5 F0			MOV   B,A
 5992:	  14A2	90 10 2C	   MOV   DPTR,#TMS127H
 5993:	  14A5	E0		   MOVX  A,@DPTR
 5994:	  14A6	B5 F0 02	   CJNE  A,B,CHK_TMC127H
 5995:	  14A9	80 04			SJMP  CHK_TMC127L
 5996:
 5997:	  14AB			   CHK_TMC127H:
 5998:
 5999:	  14AB	40 1C		   JC	   SET_TMR127_DONE
 6000:	  14AD	50 11		   JNC   TMR127_NOT_DONE
 6001:
 6002:	  14AF			   CHK_TMC127L:
 6003:
 6004:	  14AF	90 24 F7	   MOV   DPTR,#TMC127L
 6005:	  14B2	E0		   MOVX	A,@DPTR
 6006:	  14B3	F5 F0			MOV   B,A
 6007:	  14B5	90 10 2D		MOV   DPTR,#TMS127L
 6008:	  14B8	E0			MOVX  A,@DPTR
 6009:	  14B9	B5 F0 02		CJNE  A,B,CHECK_CARRY_TM127
 6010:	  14BC	80 0B			SJMP  SET_TMR127_DONE
 6011:
 6012:	  14BE				CHECK_CARRY_TM127:
 6013:
 6014:	  14BE	40 09			JC	   SET_TMR127_DONE
 6015:
 6016:	  14C0			   TMR127_NOT_DONE:
 6017:
 6018:	  14C0	90 5F CB		MOV   DPTR,#TM124_ENABLE_1
 6019:	  14C3	E0		   MOVX  A,@DPTR
 6020:	  14C4	C2 E7			CLR	TM127D
 6021:	  14C6	F0			MOVX  @DPTR,A
 6022:	  14C7	80 17			SJMP	TM127_END
 6023:
 6024:	  14C9			   SET_TMR127_DONE:
 6025:
 6026:	  14C9	90 5F CB	   MOV   DPTR,#TM124_ENABLE_1
 6027:	  14CC	E0		   MOVX  A,@DPTR

ASEM-51 V1.3                                        Copyright (c) 2002 by W.W. Heinz                                        PAGE 109



 Line  I  Addr  Code            Source

 6028:	  14CD	D2 E7			SETB	TM127D
 6029:	  14CF	F0			MOVX  @DPTR,A
 6030:
 6031:	  14D0	80 0E			SJMP	TM127_END
 6032:
 6033:	  14D2			   TMR127_NOT_ENABLED:
 6034:
 6035:	  14D2	90 5F CB		MOV   DPTR,#TM124_ENABLE_1
 6036:	  14D5	E0		   MOVX  A,@DPTR
 6037:	  14D6	C2 E7			CLR	TM127D
 6038:	  14D8	F0			MOVX  @DPTR,A
 6039:
 6040:	  14D9	E4		   CLR   A
 6041:	  14DA	90 24 F6	   MOV   DPTR,#TMC127H
 6042:	  14DD	F0		   MOVX  @DPTR,A
 6043:	  14DE	A3		   INC   DPTR
 6044:	  14DF	F0		   MOVX  @DPTR,A
 6045:
 6046:	  14E0			   TM127_END:
 6047:				;-------------------------------------------------------------
 6048:	  14E0			   TM128_HANDLER:
 6049:				;-------------------------------------------------------------
 6050:
 6051:
 6052:	  14E0	E5 1C		   MOV   A,SECOND_CLK                              ;TIMECT
 6053:	  14E2	C3		   CLR   C
 6054:	  14E3	C2 08		   CLR   HUND_MSEC_BIT
 6055:	  14E5	B4 64 00	   CJNE  A,#100,TIME_LESS_HUND_MILLISEC
 6056:
 6057:	  14E8			   TIME_LESS_HUND_MILLISEC:
 6058:
 6059:	  14E8	40 07		   JC    NOT_100MSEC
 6060:	  14EA	D2 08		   SETB  HUND_MSEC_BIT
 6061:	  14EC	C3		  	CLR   C
 6062:	  14ED	94 64		  	SUBB  A,#100
 6063:	  14EF	F5 1C		  	MOV   SECOND_CLK,A
 6064:
 6065:	  14F1			   NOT_100MSEC:
 6066:
 6067:	  14F1	30 08 00	   JNB   HUND_MSEC_BIT,TM20_HANDLER
 6068:
 6069:
 6070:
 6071:	  14F4			   TM20_HANDLER:
 6072:
 6073:
 6074:	  14F4	90 5F C0	   MOV   DPTR,#TM20_ENABLE_1
 6075:	  14F7	E0		   MOVX  A,@DPTR
 6076:	  14F8	30 E0 3A	   JNB	TM20E,TMR20_NOT_ENABLED
 6077:	  14FB	20 E1 4E		JB	   TM20D,TM21_HANDLER
 6078:	  14FE	30 08 4B		JNB   HUND_MSEC_BIT,TM21_HANDLER
 6079:	  1501	C3		   CLR	C
 6080:	  1502	90 23 B1	   MOV   DPTR,#TMC20L
 6081:	  1505	E0			MOVX	A,@DPTR
 6082:	  1506	94 01			SUBB	A,#01
 6083:	  1508	F0			MOVX	@DPTR,A

ASEM-51 V1.3                                        Copyright (c) 2002 by W.W. Heinz                                        PAGE 110



 Line  I  Addr  Code            Source

 6084:	  1509	90 23 B0	   MOV   DPTR,#TMC20H
 6085:	  150C	E0			MOVX	A,@DPTR
 6086:	  150D	94 00			SUBB	A,#0
 6087:	  150F	F0			MOVX	@DPTR,A
 6088:	  1510	40 13			JC	   SET_TMR20_DONE
 6089:	  1512	60 02			JZ	   CHK_TMC20L
 6090:	  1514	80 06			SJMP	TMR20_NOT_DONE
 6091:
 6092:	  1516			   CHK_TMC20L:
 6093:
 6094:	  1516	90 23 B1	   MOV   DPTR,#TMC20L
 6095:	  1519	E0			MOVX	A,@DPTR
 6096:	  151A	60 09			JZ	   SET_TMR20_DONE
 6097:
 6098:	  151C			   TMR20_NOT_DONE:
 6099:
 6100:	  151C	90 5F C0		MOV   DPTR,#TM20_ENABLE_1
 6101:	  151F	E0		   MOVX  A,@DPTR
 6102:	  1520	C2 E1			CLR	TM20D
 6103:	  1522	F0			MOVX  @DPTR,A
 6104:	  1523	80 27			SJMP	TM21_HANDLER
 6105:
 6106:	  1525			   SET_TMR20_DONE:
 6107:
 6108:	  1525	90 5F C0	   MOV   DPTR,#TM20_ENABLE_1
 6109:	  1528	E0		   MOVX  A,@DPTR
 6110:	  1529	D2 E1		   SETB	TM20D
 6111:	  152B	F0		   MOVX  @DPTR,A
 6112:	  152C	E4		   CLR   A
 6113:	  152D	90 23 B0	   MOV   DPTR,#TMC20H
 6114:	  1530	F0			MOVX	@DPTR,A
 6115:	  1531	A3		   INC   DPTR
 6116:	  1532	F0		   MOVX	@DPTR,A
 6117:	  1533	80 17			SJMP	TM21_HANDLER
 6118:
 6119:	  1535			   TMR20_NOT_ENABLED:
 6120:
 6121:	  1535	90 5F C0		MOV   DPTR,#TM20_ENABLE_1
 6122:	  1538	E0		   MOVX  A,@DPTR
 6123:	  1539	C2 E1			CLR	TM20D
 6124:	  153B	F0			MOVX  @DPTR,A
 6125:
 6126:	  153C	90 24 80	   MOV   DPTR,#TMS20H
 6127:	  153F	E0		   MOVX  A,@DPTR
 6128:	  1540	FD		   MOV   R5,A
 6129:	  1541	A3		   INC   DPTR
 6130:	  1542	E0		   MOVX  A,@DPTR
 6131:	  1543	90 23 B1	   MOV   DPTR,#TMC20L
 6132:	  1546	F0			MOVX	@DPTR,A
 6133:	  1547	90 23 B0	   MOV   DPTR,#TMC20H
 6134:	  154A	ED		   MOV   A,R5
 6135:	  154B	F0			MOVX	@DPTR,A
 6136:				;---------------------------------------------------------
 6137:	  154C			   TM21_HANDLER:
 6138:
 6139:	  154C	90 5F C0	   MOV   DPTR,#TM20_ENABLE_1

ASEM-51 V1.3                                        Copyright (c) 2002 by W.W. Heinz                                        PAGE 111



 Line  I  Addr  Code            Source

 6140:	  154F	E0		   MOVX  A,@DPTR
 6141:	  1550	30 E2 3A	   JNB	TM21E,TMR21_NOT_ENABLED
 6142:	  1553	20 E3 4E		JB	   TM21D,TM22_HANDLER
 6143:	  1556	30 08 4B		JNB   HUND_MSEC_BIT,TM22_HANDLER
 6144:	  1559	C3		   CLR	C
 6145:	  155A	90 23 B3	   MOV   DPTR,#TMC21L
 6146:	  155D	E0			MOVX	A,@DPTR
 6147:	  155E	94 01			SUBB	A,#01
 6148:	  1560	F0			MOVX	@DPTR,A
 6149:	  1561	90 23 B2	   MOV   DPTR,#TMC21H
 6150:	  1564	E0			MOVX	A,@DPTR
 6151:	  1565	94 00			SUBB	A,#0
 6152:	  1567	F0			MOVX	@DPTR,A
 6153:	  1568	40 13			JC	   SET_TMR21_DONE
 6154:	  156A	60 02			JZ	   CHK_TMC21L
 6155:	  156C	80 06			SJMP	TMR21_NOT_DONE
 6156:
 6157:	  156E			   CHK_TMC21L:
 6158:
 6159:	  156E	90 23 B3	   MOV   DPTR,#TMC21L
 6160:	  1571	E0			MOVX	A,@DPTR
 6161:	  1572	60 09			JZ	   SET_TMR21_DONE
 6162:
 6163:	  1574			   TMR21_NOT_DONE:
 6164:
 6165:	  1574	90 5F C0		MOV   DPTR,#TM20_ENABLE_1
 6166:	  1577	E0		   MOVX  A,@DPTR
 6167:	  1578	C2 E3			CLR	TM21D
 6168:	  157A	F0			MOVX  @DPTR,A
 6169:	  157B	80 27			SJMP	TM22_HANDLER
 6170:
 6171:	  157D			   SET_TMR21_DONE:
 6172:
 6173:	  157D	90 5F C0	   MOV   DPTR,#TM20_ENABLE_1
 6174:	  1580	E0		   MOVX  A,@DPTR
 6175:	  1581	D2 E3		   SETB	TM21D
 6176:	  1583	F0		   MOVX  @DPTR,A
 6177:	  1584	E4		   CLR   A
 6178:	  1585	90 23 B2	   MOV   DPTR,#TMC21H
 6179:	  1588	F0			MOVX	@DPTR,A
 6180:	  1589	A3		   INC   DPTR
 6181:	  158A	F0		   MOVX	@DPTR,A
 6182:	  158B	80 17			SJMP	TM22_HANDLER
 6183:
 6184:	  158D			   TMR21_NOT_ENABLED:
 6185:
 6186:	  158D	90 5F C0		MOV   DPTR,#TM20_ENABLE_1
 6187:	  1590	E0		   MOVX  A,@DPTR
 6188:	  1591	C2 E3			CLR	TM21D
 6189:	  1593	F0			MOVX  @DPTR,A
 6190:
 6191:	  1594	90 24 82	   MOV   DPTR,#TMS21H
 6192:	  1597	E0		   MOVX  A,@DPTR
 6193:	  1598	FD		   MOV   R5,A
 6194:	  1599	A3		   INC   DPTR
 6195:	  159A	E0		   MOVX  A,@DPTR

ASEM-51 V1.3                                        Copyright (c) 2002 by W.W. Heinz                                        PAGE 112



 Line  I  Addr  Code            Source

 6196:	  159B	90 23 B3	   MOV   DPTR,#TMC21L
 6197:	  159E	F0			MOVX	@DPTR,A
 6198:	  159F	90 23 B2	   MOV   DPTR,#TMC21H
 6199:	  15A2	ED		   MOV   A,R5
 6200:	  15A3	F0			MOVX	@DPTR,A
 6201:				;----------------------------------------------------------------
 6202:	  15A4			   TM22_HANDLER:
 6203:
 6204:
 6205:	  15A4	90 5F C0	   MOV   DPTR,#TM20_ENABLE_1
 6206:	  15A7	E0		   MOVX  A,@DPTR
 6207:	  15A8	30 E4 3A	   JNB	TM22E,TMR22_NOT_ENABLED
 6208:	  15AB	20 E5 4E		JB	   TM22D,TM23_HANDLER
 6209:	  15AE	30 08 4B		JNB   HUND_MSEC_BIT,TM23_HANDLER
 6210:	  15B1	C3		   CLR	C
 6211:	  15B2	90 23 B5	   MOV   DPTR,#TMC22L
 6212:	  15B5	E0			MOVX	A,@DPTR
 6213:	  15B6	94 01			SUBB	A,#01
 6214:	  15B8	F0			MOVX	@DPTR,A
 6215:	  15B9	90 23 B4	   MOV   DPTR,#TMC22H
 6216:	  15BC	E0			MOVX	A,@DPTR
 6217:	  15BD	94 00			SUBB	A,#0
 6218:	  15BF	F0			MOVX	@DPTR,A
 6219:	  15C0	40 13			JC	   SET_TMR22_DONE
 6220:	  15C2	60 02			JZ	   CHK_TMC22L
 6221:	  15C4	80 06			SJMP	TMR22_NOT_DONE
 6222:
 6223:	  15C6			   CHK_TMC22L:
 6224:
 6225:	  15C6	90 23 B5	   MOV   DPTR,#TMC22L
 6226:	  15C9	E0			MOVX	A,@DPTR
 6227:	  15CA	60 09			JZ	   SET_TMR22_DONE
 6228:
 6229:	  15CC			   TMR22_NOT_DONE:
 6230:
 6231:	  15CC	90 5F C0		MOV   DPTR,#TM20_ENABLE_1
 6232:	  15CF	E0		   MOVX  A,@DPTR
 6233:	  15D0	C2 E5			CLR	TM22D
 6234:	  15D2	F0			MOVX  @DPTR,A
 6235:	  15D3	80 27			SJMP	TM23_HANDLER
 6236:
 6237:	  15D5			   SET_TMR22_DONE:
 6238:
 6239:	  15D5	90 5F C0	   MOV   DPTR,#TM20_ENABLE_1
 6240:	  15D8	E0		   MOVX  A,@DPTR
 6241:	  15D9	D2 E5		   SETB	TM22D
 6242:	  15DB	F0		   MOVX  @DPTR,A
 6243:	  15DC	E4		   CLR   A
 6244:	  15DD	90 23 B4	   MOV   DPTR,#TMC22H
 6245:	  15E0	F0			MOVX	@DPTR,A
 6246:	  15E1	A3		   INC   DPTR
 6247:	  15E2	F0		   MOVX	@DPTR,A
 6248:	  15E3	80 17			SJMP	TM23_HANDLER
 6249:
 6250:	  15E5			   TMR22_NOT_ENABLED:
 6251:

ASEM-51 V1.3                                        Copyright (c) 2002 by W.W. Heinz                                        PAGE 113



 Line  I  Addr  Code            Source

 6252:	  15E5	90 5F C0		MOV   DPTR,#TM20_ENABLE_1
 6253:	  15E8	E0		   MOVX  A,@DPTR
 6254:	  15E9	C2 E5			CLR	TM22D
 6255:	  15EB	F0			MOVX  @DPTR,A
 6256:
 6257:	  15EC	90 24 84	   MOV   DPTR,#TMS22H
 6258:	  15EF	E0		   MOVX  A,@DPTR
 6259:	  15F0	FD		   MOV   R5,A
 6260:	  15F1	A3		   INC   DPTR
 6261:	  15F2	E0		   MOVX  A,@DPTR
 6262:	  15F3	90 23 B5	   MOV   DPTR,#TMC22L
 6263:	  15F6	F0			MOVX	@DPTR,A
 6264:	  15F7	90 23 B4	   MOV   DPTR,#TMC22H
 6265:	  15FA	ED		   MOV   A,R5
 6266:	  15FB	F0			MOVX	@DPTR,A
 6267:				;----------------------------------------------------------
 6268:	  15FC			   TM23_HANDLER:
 6269:
 6270:
 6271:	  15FC	90 5F C0	   MOV   DPTR,#TM20_ENABLE_1
 6272:	  15FF	E0		   MOVX  A,@DPTR
 6273:	  1600	30 E6 3A	   JNB	TM23E,TMR23_NOT_ENABLED
 6274:	  1603	20 E7 4E		JB	   TM23D,TM24_HANDLER
 6275:	  1606	30 08 4B		JNB   HUND_MSEC_BIT,TM24_HANDLER
 6276:	  1609	C3		   CLR	C
 6277:	  160A	90 23 B7	   MOV   DPTR,#TMC23L
 6278:	  160D	E0			MOVX	A,@DPTR
 6279:	  160E	94 01			SUBB	A,#01
 6280:	  1610	F0			MOVX	@DPTR,A
 6281:	  1611	90 23 B6	   MOV   DPTR,#TMC23H
 6282:	  1614	E0			MOVX	A,@DPTR
 6283:	  1615	94 00			SUBB	A,#0
 6284:	  1617	F0			MOVX	@DPTR,A
 6285:	  1618	40 13			JC	   SET_TMR23_DONE
 6286:	  161A	60 02			JZ	   CHK_TMC23L
 6287:	  161C	80 06			SJMP	TMR23_NOT_DONE
 6288:
 6289:	  161E			   CHK_TMC23L:
 6290:
 6291:	  161E	90 23 B7	   MOV   DPTR,#TMC23L
 6292:	  1621	E0			MOVX	A,@DPTR
 6293:	  1622	60 09			JZ	   SET_TMR23_DONE
 6294:
 6295:	  1624			   TMR23_NOT_DONE:
 6296:
 6297:	  1624	90 5F C0		MOV   DPTR,#TM20_ENABLE_1
 6298:	  1627	E0		   MOVX  A,@DPTR
 6299:	  1628	C2 E7			CLR	TM23D
 6300:	  162A	F0			MOVX  @DPTR,A
 6301:	  162B	80 27			SJMP	TM24_HANDLER
 6302:
 6303:	  162D			   SET_TMR23_DONE:
 6304:
 6305:	  162D	90 5F C0	   MOV   DPTR,#TM20_ENABLE_1
 6306:	  1630	E0		   MOVX  A,@DPTR
 6307:	  1631	D2 E7		   SETB	TM23D

ASEM-51 V1.3                                        Copyright (c) 2002 by W.W. Heinz                                        PAGE 114



 Line  I  Addr  Code            Source

 6308:	  1633	F0		   MOVX  @DPTR,A
 6309:	  1634	E4		   CLR   A
 6310:	  1635	90 23 B6	   MOV   DPTR,#TMC23H
 6311:	  1638	F0			MOVX	@DPTR,A
 6312:	  1639	A3		   INC   DPTR
 6313:	  163A	F0		   MOVX	@DPTR,A
 6314:	  163B	80 17			SJMP	TM24_HANDLER
 6315:
 6316:	  163D			   TMR23_NOT_ENABLED:
 6317:
 6318:	  163D	90 5F C0		MOV   DPTR,#TM20_ENABLE_1
 6319:	  1640	E0		   MOVX  A,@DPTR
 6320:	  1641	C2 E7			CLR	TM23D
 6321:	  1643	F0			MOVX  @DPTR,A
 6322:
 6323:	  1644	90 24 86	   MOV   DPTR,#TMS23H
 6324:	  1647	E0		   MOVX  A,@DPTR
 6325:	  1648	FD		   MOV   R5,A
 6326:	  1649	A3		   INC   DPTR
 6327:	  164A	E0		   MOVX  A,@DPTR
 6328:	  164B	90 23 B7	   MOV   DPTR,#TMC23L
 6329:	  164E	F0			MOVX	@DPTR,A
 6330:	  164F	90 23 B6	   MOV   DPTR,#TMC23H
 6331:	  1652	ED		   MOV   A,R5
 6332:	  1653	F0			MOVX	@DPTR,A
 6333:				;----------------------------------------------------------
 6334:	  1654			   TM24_HANDLER:
 6335:
 6336:	  1654	90 5F C1	   MOV   DPTR,#TM24_ENABLE_1
 6337:	  1657	E0		   MOVX  A,@DPTR
 6338:	  1658	30 E0 3A	   JNB	TM24E,TMR24_NOT_ENABLED
 6339:	  165B	20 E1 4E		JB	   TM24D,TM25_HANDLER
 6340:	  165E	30 08 4B		JNB   HUND_MSEC_BIT,TM25_HANDLER
 6341:	  1661	C3		   CLR	C
 6342:	  1662	90 23 B9	   MOV   DPTR,#TMC24L
 6343:	  1665	E0			MOVX	A,@DPTR
 6344:	  1666	94 01			SUBB	A,#01
 6345:	  1668	F0			MOVX	@DPTR,A
 6346:	  1669	90 23 B8	   MOV   DPTR,#TMC24H
 6347:	  166C	E0			MOVX	A,@DPTR
 6348:	  166D	94 00			SUBB	A,#0
 6349:	  166F	F0			MOVX	@DPTR,A
 6350:	  1670	40 13			JC	   SET_TMR24_DONE
 6351:	  1672	60 02			JZ	   CHK_TMC24L
 6352:	  1674	80 06			SJMP	TMR24_NOT_DONE
 6353:
 6354:	  1676			   CHK_TMC24L:
 6355:
 6356:	  1676	90 23 B9	   MOV   DPTR,#TMC24L
 6357:	  1679	E0			MOVX	A,@DPTR
 6358:	  167A	60 09			JZ	   SET_TMR24_DONE
 6359:
 6360:	  167C			   TMR24_NOT_DONE:
 6361:
 6362:	  167C	90 5F C1		MOV   DPTR,#TM24_ENABLE_1
 6363:	  167F	E0		   MOVX  A,@DPTR

ASEM-51 V1.3                                        Copyright (c) 2002 by W.W. Heinz                                        PAGE 115



 Line  I  Addr  Code            Source

 6364:	  1680	C2 E1			CLR	TM24D
 6365:	  1682	F0			MOVX  @DPTR,A
 6366:	  1683	80 27			SJMP	TM25_HANDLER
 6367:
 6368:	  1685			   SET_TMR24_DONE:
 6369:
 6370:	  1685	90 5F C1	   MOV   DPTR,#TM24_ENABLE_1
 6371:	  1688	E0		   MOVX  A,@DPTR
 6372:	  1689	D2 E1		   SETB	TM24D
 6373:	  168B	F0		   MOVX  @DPTR,A
 6374:	  168C	E4		   CLR   A
 6375:	  168D	90 23 B8	   MOV   DPTR,#TMC24H
 6376:	  1690	F0			MOVX	@DPTR,A
 6377:	  1691	A3		   INC   DPTR
 6378:	  1692	F0		   MOVX	@DPTR,A
 6379:	  1693	80 17			SJMP	TM25_HANDLER
 6380:
 6381:	  1695			   TMR24_NOT_ENABLED:
 6382:
 6383:	  1695	90 5F C1		MOV   DPTR,#TM24_ENABLE_1
 6384:	  1698	E0		   MOVX  A,@DPTR
 6385:	  1699	C2 E1			CLR	TM24D
 6386:	  169B	F0			MOVX  @DPTR,A
 6387:
 6388:	  169C	90 24 88	   MOV   DPTR,#TMS24H
 6389:	  169F	E0		   MOVX  A,@DPTR
 6390:	  16A0	FD		   MOV   R5,A
 6391:	  16A1	A3		   INC   DPTR
 6392:	  16A2	E0		   MOVX  A,@DPTR
 6393:	  16A3	90 23 B9	   MOV   DPTR,#TMC24L
 6394:	  16A6	F0			MOVX	@DPTR,A
 6395:	  16A7	90 23 B8	   MOV   DPTR,#TMC24H
 6396:	  16AA	ED		   MOV   A,R5
 6397:	  16AB	F0			MOVX	@DPTR,A
 6398:				;--------------------------------------------------
 6399:	  16AC			   TM25_HANDLER:
 6400:
 6401:	  16AC	90 5F C1	   MOV   DPTR,#TM24_ENABLE_1
 6402:	  16AF	E0		   MOVX  A,@DPTR
 6403:	  16B0	30 E2 3A	   JNB	TM25E,TMR25_NOT_ENABLED
 6404:	  16B3	20 E3 4E		JB	   TM25D,TM26_HANDLER
 6405:	  16B6	30 08 4B		JNB   HUND_MSEC_BIT,TM26_HANDLER
 6406:	  16B9	C3		   CLR	C
 6407:	  16BA	90 23 BB	   MOV   DPTR,#TMC25L
 6408:	  16BD	E0			MOVX	A,@DPTR
 6409:	  16BE	94 01			SUBB	A,#01
 6410:	  16C0	F0			MOVX	@DPTR,A
 6411:	  16C1	90 23 BA	   MOV   DPTR,#TMC25H
 6412:	  16C4	E0			MOVX	A,@DPTR
 6413:	  16C5	94 00			SUBB	A,#0
 6414:	  16C7	F0			MOVX	@DPTR,A
 6415:	  16C8	40 13			JC	   SET_TMR25_DONE
 6416:	  16CA	60 02			JZ	   CHK_TMC25L
 6417:	  16CC	80 06			SJMP	TMR25_NOT_DONE
 6418:
 6419:	  16CE			   CHK_TMC25L:

ASEM-51 V1.3                                        Copyright (c) 2002 by W.W. Heinz                                        PAGE 116



 Line  I  Addr  Code            Source

 6420:
 6421:	  16CE	90 23 BB	   MOV   DPTR,#TMC25L
 6422:	  16D1	E0			MOVX	A,@DPTR
 6423:	  16D2	60 09			JZ	   SET_TMR25_DONE
 6424:
 6425:	  16D4			   TMR25_NOT_DONE:
 6426:
 6427:	  16D4	90 5F C1		MOV   DPTR,#TM24_ENABLE_1
 6428:	  16D7	E0		   MOVX  A,@DPTR
 6429:	  16D8	C2 E3			CLR	TM25D
 6430:	  16DA	F0			MOVX  @DPTR,A
 6431:	  16DB	80 27			SJMP	TM26_HANDLER
 6432:
 6433:	  16DD			   SET_TMR25_DONE:
 6434:
 6435:	  16DD	90 5F C1	   MOV   DPTR,#TM24_ENABLE_1
 6436:	  16E0	E0		   MOVX  A,@DPTR
 6437:	  16E1	D2 E3		   SETB	TM25D
 6438:	  16E3	F0		   MOVX  @DPTR,A
 6439:	  16E4	E4		   CLR   A
 6440:	  16E5	90 23 BA	   MOV   DPTR,#TMC25H
 6441:	  16E8	F0			MOVX	@DPTR,A
 6442:	  16E9	A3		   INC   DPTR
 6443:	  16EA	F0		   MOVX	@DPTR,A
 6444:	  16EB	80 17			SJMP	TM26_HANDLER
 6445:
 6446:	  16ED			   TMR25_NOT_ENABLED:
 6447:
 6448:	  16ED	90 5F C1		MOV   DPTR,#TM24_ENABLE_1
 6449:	  16F0	E0		   MOVX  A,@DPTR
 6450:	  16F1	C2 E3			CLR	TM25D
 6451:	  16F3	F0			MOVX  @DPTR,A
 6452:
 6453:	  16F4	90 24 8A	   MOV   DPTR,#TMS25H
 6454:	  16F7	E0		   MOVX  A,@DPTR
 6455:	  16F8	FD		   MOV   R5,A
 6456:	  16F9	A3		   INC   DPTR
 6457:	  16FA	E0		   MOVX  A,@DPTR
 6458:	  16FB	90 23 BB	   MOV   DPTR,#TMC25L
 6459:	  16FE	F0			MOVX	@DPTR,A
 6460:	  16FF	90 23 BA	   MOV   DPTR,#TMC25H
 6461:	  1702	ED		   MOV   A,R5
 6462:	  1703	F0			MOVX	@DPTR,A
 6463:				;---------------------------------------------------------
 6464:	  1704			   TM26_HANDLER:
 6465:
 6466:	  1704	90 5F C1	   MOV   DPTR,#TM24_ENABLE_1
 6467:	  1707	E0		   MOVX  A,@DPTR
 6468:	  1708	30 E4 3A	   JNB	TM26E,TMR26_NOT_ENABLED
 6469:	  170B	20 E5 4E		JB	   TM26D,TM27_HANDLER
 6470:	  170E	30 08 4B		JNB   HUND_MSEC_BIT,TM27_HANDLER
 6471:	  1711	C3		   CLR	C
 6472:	  1712	90 23 BD	   MOV   DPTR,#TMC26L
 6473:	  1715	E0			MOVX	A,@DPTR
 6474:	  1716	94 01			SUBB	A,#01
 6475:	  1718	F0			MOVX	@DPTR,A

ASEM-51 V1.3                                        Copyright (c) 2002 by W.W. Heinz                                        PAGE 117



 Line  I  Addr  Code            Source

 6476:	  1719	90 23 BC	   MOV   DPTR,#TMC26H
 6477:	  171C	E0			MOVX	A,@DPTR
 6478:	  171D	94 00			SUBB	A,#0
 6479:	  171F	F0			MOVX	@DPTR,A
 6480:	  1720	40 13			JC	   SET_TMR26_DONE
 6481:	  1722	60 02			JZ	   CHK_TMC26L
 6482:	  1724	80 06			SJMP	TMR26_NOT_DONE
 6483:
 6484:	  1726			   CHK_TMC26L:
 6485:
 6486:	  1726	90 23 BD	   MOV   DPTR,#TMC26L
 6487:	  1729	E0			MOVX	A,@DPTR
 6488:	  172A	60 09			JZ	   SET_TMR26_DONE
 6489:
 6490:	  172C			   TMR26_NOT_DONE:
 6491:
 6492:	  172C	90 5F C1		MOV   DPTR,#TM24_ENABLE_1
 6493:	  172F	E0		   MOVX  A,@DPTR
 6494:	  1730	C2 E5			CLR	TM26D
 6495:	  1732	F0			MOVX  @DPTR,A
 6496:	  1733	80 27			SJMP	TM27_HANDLER
 6497:
 6498:	  1735			   SET_TMR26_DONE:
 6499:
 6500:	  1735	90 5F C1	   MOV   DPTR,#TM24_ENABLE_1
 6501:	  1738	E0		   MOVX  A,@DPTR
 6502:	  1739	D2 E5		   SETB	TM26D
 6503:	  173B	F0		   MOVX  @DPTR,A
 6504:	  173C	E4		   CLR   A
 6505:	  173D	90 23 BC	   MOV   DPTR,#TMC26H
 6506:	  1740	F0			MOVX	@DPTR,A
 6507:	  1741	A3		   INC   DPTR
 6508:	  1742	F0		   MOVX	@DPTR,A
 6509:	  1743	80 17			SJMP	TM27_HANDLER
 6510:
 6511:	  1745			   TMR26_NOT_ENABLED:
 6512:
 6513:	  1745	90 5F C1		MOV   DPTR,#TM24_ENABLE_1
 6514:	  1748	E0		   MOVX  A,@DPTR
 6515:	  1749	C2 E5			CLR	TM26D
 6516:	  174B	F0			MOVX  @DPTR,A
 6517:
 6518:	  174C	90 24 8C	   MOV   DPTR,#TMS26H
 6519:	  174F	E0		   MOVX  A,@DPTR
 6520:	  1750	FD		   MOV   R5,A
 6521:	  1751	A3		   INC   DPTR
 6522:	  1752	E0		   MOVX  A,@DPTR
 6523:	  1753	90 23 BD	   MOV   DPTR,#TMC26L
 6524:	  1756	F0			MOVX	@DPTR,A
 6525:	  1757	90 23 BC	   MOV   DPTR,#TMC26H
 6526:	  175A	ED		   MOV   A,R5
 6527:	  175B	F0			MOVX	@DPTR,A
 6528:				;-----------------------------------------------------------
 6529:	  175C			   TM27_HANDLER:
 6530:
 6531:	  175C	90 5F C1	   MOV   DPTR,#TM24_ENABLE_1

ASEM-51 V1.3                                        Copyright (c) 2002 by W.W. Heinz                                        PAGE 118



 Line  I  Addr  Code            Source

 6532:	  175F	E0		   MOVX  A,@DPTR
 6533:	  1760	30 E6 3A	   JNB	TM27E,TMR27_NOT_ENABLED
 6534:	  1763	20 E7 4E		JB	   TM27D,TM28_HANDLER
 6535:	  1766	30 08 4B		JNB   HUND_MSEC_BIT,TM28_HANDLER
 6536:	  1769	C3		   CLR	C
 6537:	  176A	90 23 BF	   MOV   DPTR,#TMC27L
 6538:	  176D	E0			MOVX	A,@DPTR
 6539:	  176E	94 01			SUBB	A,#01
 6540:	  1770	F0			MOVX	@DPTR,A
 6541:	  1771	90 23 BE	   MOV   DPTR,#TMC27H
 6542:	  1774	E0			MOVX	A,@DPTR
 6543:	  1775	94 00			SUBB	A,#0
 6544:	  1777	F0			MOVX	@DPTR,A
 6545:	  1778	40 13			JC	   SET_TMR27_DONE
 6546:	  177A	60 02			JZ	   CHK_TMC27L
 6547:	  177C	80 06			SJMP	TMR27_NOT_DONE
 6548:
 6549:	  177E			   CHK_TMC27L:
 6550:
 6551:	  177E	90 23 BF	   MOV   DPTR,#TMC27L
 6552:	  1781	E0			MOVX	A,@DPTR
 6553:	  1782	60 09			JZ	   SET_TMR27_DONE
 6554:
 6555:	  1784			   TMR27_NOT_DONE:
 6556:
 6557:	  1784	90 5F C1		MOV   DPTR,#TM24_ENABLE_1
 6558:	  1787	E0		   MOVX  A,@DPTR
 6559:	  1788	C2 E7			CLR	TM27D
 6560:	  178A	F0			MOVX  @DPTR,A
 6561:	  178B	80 27			SJMP	TM28_HANDLER
 6562:
 6563:	  178D			   SET_TMR27_DONE:
 6564:
 6565:	  178D	90 5F C1	   MOV   DPTR,#TM24_ENABLE_1
 6566:	  1790	E0		   MOVX  A,@DPTR
 6567:	  1791	D2 E7		   SETB	TM27D
 6568:	  1793	F0		   MOVX  @DPTR,A
 6569:	  1794	E4		   CLR   A
 6570:	  1795	90 23 BE	   MOV   DPTR,#TMC27H
 6571:	  1798	F0			MOVX	@DPTR,A
 6572:	  1799	A3		   INC   DPTR
 6573:	  179A	F0		   MOVX	@DPTR,A
 6574:	  179B	80 17			SJMP	TM28_HANDLER
 6575:
 6576:	  179D			   TMR27_NOT_ENABLED:
 6577:
 6578:	  179D	90 5F C1		MOV   DPTR,#TM24_ENABLE_1
 6579:	  17A0	E0		   MOVX  A,@DPTR
 6580:	  17A1	C2 E7			CLR	TM27D
 6581:	  17A3	F0			MOVX  @DPTR,A
 6582:
 6583:	  17A4	90 24 8E	   MOV   DPTR,#TMS27H
 6584:	  17A7	E0		   MOVX  A,@DPTR
 6585:	  17A8	FD		   MOV   R5,A
 6586:	  17A9	A3		   INC   DPTR
 6587:	  17AA	E0		   MOVX  A,@DPTR

ASEM-51 V1.3                                        Copyright (c) 2002 by W.W. Heinz                                        PAGE 119



 Line  I  Addr  Code            Source

 6588:	  17AB	90 23 BF	   MOV   DPTR,#TMC27L
 6589:	  17AE	F0			MOVX	@DPTR,A
 6590:	  17AF	90 23 BE	   MOV   DPTR,#TMC27H
 6591:	  17B2	ED		   MOV   A,R5
 6592:	  17B3	F0			MOVX	@DPTR,A
 6593:
 6594:	  17B4			   TM28_HANDLER:
 6595:				;------------------------------------
 6596:
 6597:	  17B4	90 5F C2	   MOV   DPTR,#TM28_ENABLE_1
 6598:	  17B7	E0		   MOVX  A,@DPTR
 6599:	  17B8	30 E0 3A	   JNB	TM28E,TMR28_NOT_ENABLED
 6600:	  17BB	20 E1 4E		JB	   TM28D,TM29_HANDLER
 6601:	  17BE	30 08 4B		JNB   HUND_MSEC_BIT,TM29_HANDLER
 6602:	  17C1	C3		   CLR	C
 6603:	  17C2	90 24 AD	   MOV   DPTR,#TMC28L
 6604:	  17C5	E0			MOVX	A,@DPTR
 6605:	  17C6	94 01			SUBB	A,#01
 6606:	  17C8	F0			MOVX	@DPTR,A
 6607:	  17C9	90 24 AC	   MOV   DPTR,#TMC28H
 6608:	  17CC	E0			MOVX	A,@DPTR
 6609:	  17CD	94 00			SUBB	A,#0
 6610:	  17CF	F0			MOVX	@DPTR,A
 6611:	  17D0	40 13			JC	   SET_TMR28_DONE
 6612:	  17D2	60 02			JZ	   CHK_TMC28L
 6613:	  17D4	80 06			SJMP	TMR28_NOT_DONE
 6614:
 6615:	  17D6			   CHK_TMC28L:
 6616:
 6617:	  17D6	90 24 AD	   MOV   DPTR,#TMC28L
 6618:	  17D9	E0			MOVX	A,@DPTR
 6619:	  17DA	60 09			JZ	   SET_TMR28_DONE
 6620:
 6621:	  17DC			   TMR28_NOT_DONE:
 6622:
 6623:	  17DC	90 5F C2		MOV   DPTR,#TM28_ENABLE_1
 6624:	  17DF	E0		   MOVX  A,@DPTR
 6625:	  17E0	C2 E1			CLR	TM28D
 6626:	  17E2	F0			MOVX  @DPTR,A
 6627:	  17E3	80 27			SJMP	TM29_HANDLER
 6628:
 6629:	  17E5			   SET_TMR28_DONE:
 6630:
 6631:	  17E5	90 5F C2	   MOV   DPTR,#TM28_ENABLE_1
 6632:	  17E8	E0		   MOVX  A,@DPTR
 6633:	  17E9	D2 E1		   SETB	TM28D
 6634:	  17EB	F0		   MOVX  @DPTR,A
 6635:	  17EC	E4		   CLR   A
 6636:	  17ED	90 24 AC	   MOV   DPTR,#TMC28H
 6637:	  17F0	F0			MOVX	@DPTR,A
 6638:	  17F1	A3		   INC   DPTR
 6639:	  17F2	F0		   MOVX	@DPTR,A
 6640:	  17F3	80 17			SJMP	TM29_HANDLER
 6641:
 6642:	  17F5			   TMR28_NOT_ENABLED:
 6643:

ASEM-51 V1.3                                        Copyright (c) 2002 by W.W. Heinz                                        PAGE 120



 Line  I  Addr  Code            Source

 6644:	  17F5	90 5F C2		MOV   DPTR,#TM28_ENABLE_1
 6645:	  17F8	E0		   MOVX  A,@DPTR
 6646:	  17F9	C2 E1			CLR	TM28D
 6647:	  17FB	F0			MOVX  @DPTR,A
 6648:
 6649:	  17FC	90 24 A0	   MOV   DPTR,#TMS28H
 6650:	  17FF	E0		   MOVX  A,@DPTR
 6651:	  1800	FD		   MOV   R5,A
 6652:	  1801	A3		   INC   DPTR
 6653:	  1802	E0		   MOVX  A,@DPTR
 6654:	  1803	90 24 AD	   MOV   DPTR,#TMC28L
 6655:	  1806	F0			MOVX	@DPTR,A
 6656:	  1807	90 24 AC	   MOV   DPTR,#TMC28H
 6657:	  180A	ED		   MOV   A,R5
 6658:	  180B	F0			MOVX	@DPTR,A
 6659:				;--------------------------------------------------
 6660:	  180C			   TM29_HANDLER:
 6661:
 6662:	  180C	90 5F C2	   MOV   DPTR,#TM28_ENABLE_1
 6663:	  180F	E0		   MOVX  A,@DPTR
 6664:	  1810	30 E2 3A	   JNB	TM29E,TMR29_NOT_ENABLED
 6665:	  1813	20 E3 4E		JB	   TM29D,TM30_HANDLER
 6666:	  1816	30 08 4B		JNB   HUND_MSEC_BIT,TM30_HANDLER
 6667:	  1819	C3		   CLR	C
 6668:	  181A	90 24 AF	   MOV   DPTR,#TMC29L
 6669:	  181D	E0			MOVX	A,@DPTR
 6670:	  181E	94 01			SUBB	A,#01
 6671:	  1820	F0			MOVX	@DPTR,A
 6672:	  1821	90 24 AE	   MOV   DPTR,#TMC29H
 6673:	  1824	E0			MOVX	A,@DPTR
 6674:	  1825	94 00			SUBB	A,#0
 6675:	  1827	F0			MOVX	@DPTR,A
 6676:	  1828	40 13			JC	   SET_TMR29_DONE
 6677:	  182A	60 02			JZ	   CHK_TMC29L
 6678:	  182C	80 06			SJMP	TMR29_NOT_DONE
 6679:
 6680:	  182E			   CHK_TMC29L:
 6681:
 6682:	  182E	90 24 AF	   MOV   DPTR,#TMC29L
 6683:	  1831	E0			MOVX	A,@DPTR
 6684:	  1832	60 09			JZ	   SET_TMR29_DONE
 6685:
 6686:	  1834			   TMR29_NOT_DONE:
 6687:
 6688:	  1834	90 5F C2		MOV   DPTR,#TM28_ENABLE_1
 6689:	  1837	E0		   MOVX  A,@DPTR
 6690:	  1838	C2 E3			CLR	TM29D
 6691:	  183A	F0			MOVX  @DPTR,A
 6692:	  183B	80 27			SJMP	TM30_HANDLER
 6693:
 6694:	  183D			   SET_TMR29_DONE:
 6695:
 6696:	  183D	90 5F C2	   MOV   DPTR,#TM28_ENABLE_1
 6697:	  1840	E0		   MOVX  A,@DPTR
 6698:	  1841	D2 E3		   SETB	TM29D
 6699:	  1843	F0		   MOVX  @DPTR,A

ASEM-51 V1.3                                        Copyright (c) 2002 by W.W. Heinz                                        PAGE 121



 Line  I  Addr  Code            Source

 6700:	  1844	E4		   CLR   A
 6701:	  1845	90 24 AE	   MOV   DPTR,#TMC29H
 6702:	  1848	F0			MOVX	@DPTR,A
 6703:	  1849	A3		   INC   DPTR
 6704:	  184A	F0		   MOVX	@DPTR,A
 6705:	  184B	80 17			SJMP	TM30_HANDLER
 6706:
 6707:	  184D			   TMR29_NOT_ENABLED:
 6708:
 6709:	  184D	90 5F C2		MOV   DPTR,#TM28_ENABLE_1
 6710:	  1850	E0		   MOVX  A,@DPTR
 6711:	  1851	C2 E3			CLR	TM29D
 6712:	  1853	F0			MOVX  @DPTR,A
 6713:
 6714:	  1854	90 24 A2	   MOV   DPTR,#TMS29H
 6715:	  1857	E0		   MOVX  A,@DPTR
 6716:	  1858	FD		   MOV   R5,A
 6717:	  1859	A3		   INC   DPTR
 6718:	  185A	E0		   MOVX  A,@DPTR
 6719:	  185B	90 24 AF	   MOV   DPTR,#TMC29L
 6720:	  185E	F0			MOVX	@DPTR,A
 6721:	  185F	90 24 AE	   MOV   DPTR,#TMC29H
 6722:	  1862	ED		   MOV   A,R5
 6723:	  1863	F0			MOVX	@DPTR,A
 6724:				;---------------------------------------------------------
 6725:	  1864			   TM30_HANDLER:
 6726:
 6727:	  1864	90 5F C2	   MOV   DPTR,#TM28_ENABLE_1
 6728:	  1867	E0		   MOVX  A,@DPTR
 6729:	  1868	30 E4 3A	   JNB	TM30E,TMR30_NOT_ENABLED
 6730:	  186B	20 E5 4E		JB	   TM30D,TM31_HANDLER
 6731:	  186E	30 08 4B		JNB   HUND_MSEC_BIT,TM31_HANDLER
 6732:	  1871	C3		   CLR	C
 6733:	  1872	90 24 B1	   MOV   DPTR,#TMC30L
 6734:	  1875	E0			MOVX	A,@DPTR
 6735:	  1876	94 01			SUBB	A,#01
 6736:	  1878	F0			MOVX	@DPTR,A
 6737:	  1879	90 24 B0	   MOV   DPTR,#TMC30H
 6738:	  187C	E0			MOVX	A,@DPTR
 6739:	  187D	94 00			SUBB	A,#0
 6740:	  187F	F0			MOVX	@DPTR,A
 6741:	  1880	40 13			JC	   SET_TMR30_DONE
 6742:	  1882	60 02			JZ	   CHK_TMC30L
 6743:	  1884	80 06			SJMP	TMR30_NOT_DONE
 6744:
 6745:	  1886			   CHK_TMC30L:
 6746:
 6747:	  1886	90 24 B1	   MOV   DPTR,#TMC30L
 6748:	  1889	E0			MOVX	A,@DPTR
 6749:	  188A	60 09			JZ	   SET_TMR30_DONE
 6750:
 6751:	  188C			   TMR30_NOT_DONE:
 6752:
 6753:	  188C	90 5F C2		MOV   DPTR,#TM28_ENABLE_1
 6754:	  188F	E0		   MOVX  A,@DPTR
 6755:	  1890	C2 E5			CLR	TM30D

ASEM-51 V1.3                                        Copyright (c) 2002 by W.W. Heinz                                        PAGE 122



 Line  I  Addr  Code            Source

 6756:	  1892	F0			MOVX  @DPTR,A
 6757:	  1893	80 27			SJMP	TM31_HANDLER
 6758:
 6759:	  1895			   SET_TMR30_DONE:
 6760:
 6761:	  1895	90 5F C2	   MOV   DPTR,#TM28_ENABLE_1
 6762:	  1898	E0		   MOVX  A,@DPTR
 6763:	  1899	D2 E5		   SETB	TM30D
 6764:	  189B	F0		   MOVX  @DPTR,A
 6765:	  189C	E4		   CLR   A
 6766:	  189D	90 24 B0	   MOV   DPTR,#TMC30H
 6767:	  18A0	F0			MOVX	@DPTR,A
 6768:	  18A1	A3		   INC   DPTR
 6769:	  18A2	F0		   MOVX	@DPTR,A
 6770:	  18A3	80 17			SJMP	TM31_HANDLER
 6771:
 6772:	  18A5			   TMR30_NOT_ENABLED:
 6773:
 6774:	  18A5	90 5F C2		MOV   DPTR,#TM28_ENABLE_1
 6775:	  18A8	E0		   MOVX  A,@DPTR
 6776:	  18A9	C2 E5			CLR	TM30D
 6777:	  18AB	F0			MOVX  @DPTR,A
 6778:
 6779:	  18AC	90 24 A4	   MOV   DPTR,#TMS30H
 6780:	  18AF	E0		   MOVX  A,@DPTR
 6781:	  18B0	FD		   MOV   R5,A
 6782:	  18B1	A3		   INC   DPTR
 6783:	  18B2	E0		   MOVX  A,@DPTR
 6784:	  18B3	90 24 B1	   MOV   DPTR,#TMC30L
 6785:	  18B6	F0			MOVX	@DPTR,A
 6786:	  18B7	90 24 B0	   MOV   DPTR,#TMC30H
 6787:	  18BA	ED		   MOV   A,R5
 6788:	  18BB	F0			MOVX	@DPTR,A
 6789:				;-----------------------------------------------------------
 6790:	  18BC			   TM31_HANDLER:
 6791:
 6792:	  18BC	90 5F C2	   MOV   DPTR,#TM28_ENABLE_1
 6793:	  18BF	E0		   MOVX  A,@DPTR
 6794:	  18C0	30 E6 3A	   JNB	TM31E,TMR31_NOT_ENABLED
 6795:	  18C3	20 E7 4E		JB	   TM31D,TM32_HANDLER
 6796:	  18C6	30 08 4B		JNB   HUND_MSEC_BIT,TM32_HANDLER
 6797:	  18C9	C3		   CLR	C
 6798:	  18CA	90 24 B3	   MOV   DPTR,#TMC31L
 6799:	  18CD	E0			MOVX	A,@DPTR
 6800:	  18CE	94 01			SUBB	A,#01
 6801:	  18D0	F0			MOVX	@DPTR,A
 6802:	  18D1	90 24 B2	   MOV   DPTR,#TMC31H
 6803:	  18D4	E0			MOVX	A,@DPTR
 6804:	  18D5	94 00			SUBB	A,#0
 6805:	  18D7	F0			MOVX	@DPTR,A
 6806:	  18D8	40 13			JC	   SET_TMR31_DONE
 6807:	  18DA	60 02			JZ	   CHK_TMC31L
 6808:	  18DC	80 06			SJMP	TMR31_NOT_DONE
 6809:
 6810:	  18DE			   CHK_TMC31L:
 6811:

ASEM-51 V1.3                                        Copyright (c) 2002 by W.W. Heinz                                        PAGE 123



 Line  I  Addr  Code            Source

 6812:	  18DE	90 24 B3	   MOV   DPTR,#TMC31L
 6813:	  18E1	E0			MOVX	A,@DPTR
 6814:	  18E2	60 09			JZ	   SET_TMR31_DONE
 6815:
 6816:	  18E4			   TMR31_NOT_DONE:
 6817:
 6818:	  18E4	90 5F C2		MOV   DPTR,#TM28_ENABLE_1
 6819:	  18E7	E0		   MOVX  A,@DPTR
 6820:	  18E8	C2 E7			CLR	TM31D
 6821:	  18EA	F0			MOVX  @DPTR,A
 6822:	  18EB	80 27			SJMP	TM32_HANDLER
 6823:
 6824:	  18ED			   SET_TMR31_DONE:
 6825:
 6826:	  18ED	90 5F C2	   MOV   DPTR,#TM28_ENABLE_1
 6827:	  18F0	E0		   MOVX  A,@DPTR
 6828:	  18F1	D2 E7		   SETB	TM31D
 6829:	  18F3	F0		   MOVX  @DPTR,A
 6830:	  18F4	E4		   CLR   A
 6831:	  18F5	90 24 B2	   MOV   DPTR,#TMC31H
 6832:	  18F8	F0			MOVX	@DPTR,A
 6833:	  18F9	A3		   INC   DPTR
 6834:	  18FA	F0		   MOVX	@DPTR,A
 6835:	  18FB	80 17			SJMP	TM32_HANDLER
 6836:
 6837:	  18FD			   TMR31_NOT_ENABLED:
 6838:
 6839:	  18FD	90 5F C2		MOV   DPTR,#TM28_ENABLE_1
 6840:	  1900	E0		   MOVX  A,@DPTR
 6841:	  1901	C2 E7			CLR	TM31D
 6842:	  1903	F0			MOVX  @DPTR,A
 6843:
 6844:	  1904	90 24 A6	   MOV   DPTR,#TMS31H
 6845:	  1907	E0		   MOVX  A,@DPTR
 6846:	  1908	FD		   MOV   R5,A
 6847:	  1909	A3		   INC   DPTR
 6848:	  190A	E0		   MOVX  A,@DPTR
 6849:	  190B	90 24 B3	   MOV   DPTR,#TMC31L
 6850:	  190E	F0			MOVX	@DPTR,A
 6851:	  190F	90 24 B2	   MOV   DPTR,#TMC31H
 6852:	  1912	ED		   MOV   A,R5
 6853:	  1913	F0			MOVX	@DPTR,A
 6854:				;--------------------------------
 6855:	  1914			   TM32_HANDLER:
 6856:
 6857:	  1914	90 5F C7	   MOV   DPTR,#TM32_ENABLE_1
 6858:	  1917	E0		   MOVX  A,@DPTR
 6859:	  1918	30 E0 3A	   JNB	TM32E,TMR32_NOT_ENABLED
 6860:	  191B	20 E1 4E		JB	   TM32D,TM33_HANDLER
 6861:	  191E	30 08 4B		JNB   HUND_MSEC_BIT,TM33_HANDLER
 6862:	  1921	C3		   CLR	C
 6863:	  1922	90 24 B5	   MOV   DPTR,#TMC32L
 6864:	  1925	E0			MOVX	A,@DPTR
 6865:	  1926	94 01			SUBB	A,#01
 6866:	  1928	F0			MOVX	@DPTR,A
 6867:	  1929	90 24 B4	   MOV   DPTR,#TMC32H

ASEM-51 V1.3                                        Copyright (c) 2002 by W.W. Heinz                                        PAGE 124



 Line  I  Addr  Code            Source

 6868:	  192C	E0			MOVX	A,@DPTR
 6869:	  192D	94 00			SUBB	A,#0
 6870:	  192F	F0			MOVX	@DPTR,A
 6871:	  1930	40 13			JC	   SET_TMR32_DONE
 6872:	  1932	60 02			JZ	   CHK_TMC32L
 6873:	  1934	80 06			SJMP	TMR32_NOT_DONE
 6874:
 6875:	  1936			   CHK_TMC32L:
 6876:
 6877:	  1936	90 24 B5	   MOV   DPTR,#TMC32L
 6878:	  1939	E0			MOVX	A,@DPTR
 6879:	  193A	60 09			JZ	   SET_TMR32_DONE
 6880:
 6881:	  193C			   TMR32_NOT_DONE:
 6882:
 6883:	  193C	90 5F C7		MOV   DPTR,#TM32_ENABLE_1
 6884:	  193F	E0		   MOVX  A,@DPTR
 6885:	  1940	C2 E1			CLR	TM32D
 6886:	  1942	F0			MOVX  @DPTR,A
 6887:	  1943	80 27			SJMP	TM33_HANDLER
 6888:
 6889:	  1945			   SET_TMR32_DONE:
 6890:
 6891:	  1945	90 5F C7	   MOV   DPTR,#TM32_ENABLE_1
 6892:	  1948	E0		   MOVX  A,@DPTR
 6893:	  1949	D2 E1		   SETB	TM32D
 6894:	  194B	F0		   MOVX  @DPTR,A
 6895:	  194C	E4		   CLR   A
 6896:	  194D	90 24 B4	   MOV   DPTR,#TMC32H
 6897:	  1950	F0			MOVX	@DPTR,A
 6898:	  1951	A3		   INC   DPTR
 6899:	  1952	F0		   MOVX	@DPTR,A
 6900:	  1953	80 17			SJMP	TM33_HANDLER
 6901:
 6902:	  1955			   TMR32_NOT_ENABLED:
 6903:
 6904:	  1955	90 5F C7		MOV   DPTR,#TM32_ENABLE_1
 6905:	  1958	E0		   MOVX  A,@DPTR
 6906:	  1959	C2 E1			CLR	TM32D
 6907:	  195B	F0			MOVX  @DPTR,A
 6908:
 6909:	  195C	90 24 A8	   MOV   DPTR,#TMS32H
 6910:	  195F	E0		   MOVX  A,@DPTR
 6911:	  1960	FD		   MOV   R5,A
 6912:	  1961	A3		   INC   DPTR
 6913:	  1962	E0		   MOVX  A,@DPTR
 6914:	  1963	90 24 B5	   MOV   DPTR,#TMC32L
 6915:	  1966	F0			MOVX	@DPTR,A
 6916:	  1967	90 24 B4	   MOV   DPTR,#TMC32H
 6917:	  196A	ED		   MOV   A,R5
 6918:	  196B	F0			MOVX	@DPTR,A
 6919:				;----------------------------------------------
 6920:	  196C			   TM33_HANDLER:
 6921:
 6922:	  196C	90 5F C7	   MOV   DPTR,#TM32_ENABLE_1
 6923:	  196F	E0		   MOVX  A,@DPTR

ASEM-51 V1.3                                        Copyright (c) 2002 by W.W. Heinz                                        PAGE 125



 Line  I  Addr  Code            Source

 6924:	  1970	30 E2 3A	   JNB	TM33E,TMR33_NOT_ENABLED
 6925:	  1973	20 E3 4E		JB	   TM33D,TM34_HANDLER
 6926:	  1976	30 08 4B		JNB   HUND_MSEC_BIT,TM34_HANDLER
 6927:	  1979	C3		   CLR	C
 6928:	  197A	90 24 C7	   MOV   DPTR,#TMC33L
 6929:	  197D	E0			MOVX	A,@DPTR
 6930:	  197E	94 01			SUBB	A,#01
 6931:	  1980	F0			MOVX	@DPTR,A
 6932:	  1981	90 24 C6	   MOV   DPTR,#TMC33H
 6933:	  1984	E0			MOVX	A,@DPTR
 6934:	  1985	94 00			SUBB	A,#0
 6935:	  1987	F0			MOVX	@DPTR,A
 6936:	  1988	40 13			JC	   SET_TMR33_DONE
 6937:	  198A	60 02			JZ	   CHK_TMC33L
 6938:	  198C	80 06			SJMP	TMR33_NOT_DONE
 6939:
 6940:	  198E			   CHK_TMC33L:
 6941:
 6942:	  198E	90 24 C7	   MOV   DPTR,#TMC33L
 6943:	  1991	E0			MOVX	A,@DPTR
 6944:	  1992	60 09			JZ	   SET_TMR33_DONE
 6945:
 6946:	  1994			   TMR33_NOT_DONE:
 6947:
 6948:	  1994	90 5F C7		MOV   DPTR,#TM32_ENABLE_1
 6949:	  1997	E0		   MOVX  A,@DPTR
 6950:	  1998	C2 E3			CLR	TM33D
 6951:	  199A	F0			MOVX  @DPTR,A
 6952:	  199B	80 27			SJMP	TM34_HANDLER
 6953:
 6954:	  199D			   SET_TMR33_DONE:
 6955:
 6956:	  199D	90 5F C7	   MOV   DPTR,#TM32_ENABLE_1
 6957:	  19A0	E0		   MOVX  A,@DPTR
 6958:	  19A1	D2 E3		   SETB	TM33D
 6959:	  19A3	F0		   MOVX  @DPTR,A
 6960:	  19A4	E4		   CLR   A
 6961:	  19A5	90 24 C6	   MOV   DPTR,#TMC33H
 6962:	  19A8	F0			MOVX	@DPTR,A
 6963:	  19A9	A3		   INC   DPTR
 6964:	  19AA	F0		   MOVX	@DPTR,A
 6965:	  19AB	80 17			SJMP	TM34_HANDLER
 6966:
 6967:	  19AD			   TMR33_NOT_ENABLED:
 6968:
 6969:	  19AD	90 5F C7		MOV   DPTR,#TM32_ENABLE_1
 6970:	  19B0	E0		   MOVX  A,@DPTR
 6971:	  19B1	C2 E3			CLR	TM33D
 6972:	  19B3	F0			MOVX  @DPTR,A
 6973:
 6974:	  19B4	90 24 AA	   MOV   DPTR,#TMS33H
 6975:	  19B7	E0		   MOVX  A,@DPTR
 6976:	  19B8	FD		   MOV   R5,A
 6977:	  19B9	A3		   INC   DPTR
 6978:	  19BA	E0		   MOVX  A,@DPTR
 6979:	  19BB	90 24 C7	   MOV   DPTR,#TMC33L

ASEM-51 V1.3                                        Copyright (c) 2002 by W.W. Heinz                                        PAGE 126



 Line  I  Addr  Code            Source

 6980:	  19BE	F0			MOVX	@DPTR,A
 6981:	  19BF	90 24 C6	   MOV   DPTR,#TMC33H
 6982:	  19C2	ED		   MOV   A,R5
 6983:	  19C3	F0			MOVX	@DPTR,A
 6984:				;----------------------------------------------
 6985:	  19C4			   TM34_HANDLER:
 6986:				;---------------------------------------------------------------------------------
 6987:				;   ERROR TIMER STARS FROM HERE
 6988:				;---------------------------------------------------------------------------------
 6989:	  19C4			   TM40_HANDLER:
 6990:
 6991:	  19C4	90 5F C3	   MOV   DPTR,#TM40_ENABLE_1
 6992:	  19C7	E0		   MOVX  A,@DPTR
 6993:	  19C8	30 E0 3A	   JNB	TM40E,TMR40_NOT_ENABLED
 6994:	  19CB	20 E1 4E		JB	   TM40D,TM41_HANDLER
 6995:	  19CE	30 03 4B		JNB   TEN_MSEC_BIT,TM41_HANDLER
 6996:	  19D1	C3		   CLR	C
 6997:	  19D2	90 23 C3	   MOV   DPTR,#TMC40L
 6998:	  19D5	E0			MOVX	A,@DPTR
 6999:	  19D6	94 01			SUBB	A,#01
 7000:	  19D8	F0			MOVX	@DPTR,A
 7001:	  19D9	90 23 C2	   MOV   DPTR,#TMC40H
 7002:	  19DC	E0			MOVX	A,@DPTR
 7003:	  19DD	94 00			SUBB	A,#0
 7004:	  19DF	F0			MOVX	@DPTR,A
 7005:	  19E0	40 13			JC	   SET_TMR40_DONE
 7006:	  19E2	60 02			JZ	   CHK_TMC40L
 7007:	  19E4	80 06			SJMP	TMR40_NOT_DONE
 7008:
 7009:	  19E6			   CHK_TMC40L:
 7010:
 7011:	  19E6	90 23 C3	   MOV   DPTR,#TMC40L
 7012:	  19E9	E0			MOVX	A,@DPTR
 7013:	  19EA	60 09			JZ	   SET_TMR40_DONE
 7014:
 7015:	  19EC			   TMR40_NOT_DONE:
 7016:
 7017:	  19EC	90 5F C3		MOV   DPTR,#TM40_ENABLE_1
 7018:	  19EF	E0			MOVX  A,@DPTR
 7019:	  19F0	C2 E1			CLR	TM40D
 7020:	  19F2	F0		   MOVX  @DPTR,A
 7021:	  19F3	80 27			SJMP	TM41_HANDLER
 7022:
 7023:	  19F5			   SET_TMR40_DONE:
 7024:
 7025:	  19F5	90 5F C3	   MOV   DPTR,#TM40_ENABLE_1
 7026:	  19F8	E0		   MOVX  A,@DPTR
 7027:	  19F9	D2 E1		   SETB	TM40D
 7028:	  19FB	F0		   MOVX  @DPTR,A
 7029:	  19FC	E4		   CLR   A
 7030:	  19FD	90 23 C2	   MOV   DPTR,#TMC40H
 7031:	  1A00	F0			MOVX	@DPTR,A
 7032:	  1A01	A3		   INC   DPTR
 7033:	  1A02	F0		   MOVX	@DPTR,A
 7034:	  1A03	80 17			SJMP	TM41_HANDLER
 7035:

ASEM-51 V1.3                                        Copyright (c) 2002 by W.W. Heinz                                        PAGE 127



 Line  I  Addr  Code            Source

 7036:	  1A05			   TMR40_NOT_ENABLED:
 7037:
 7038:	  1A05	90 5F C3		MOV   DPTR,#TM40_ENABLE_1
 7039:	  1A08	E0		   MOVX  A,@DPTR
 7040:	  1A09	C2 E1			CLR	TM40D
 7041:	  1A0B	F0		   MOVX  @DPTR,A
 7042:
 7043:	  1A0C	90 24 90	   MOV   DPTR,#TMS40H
 7044:	  1A0F	E0		   MOVX  A,@DPTR
 7045:	  1A10	FD		   MOV   R5,A
 7046:	  1A11	A3		   INC   DPTR
 7047:	  1A12	E0		   MOVX  A,@DPTR
 7048:	  1A13	90 23 C3	   MOV   DPTR,#TMC40L
 7049:	  1A16	F0			MOVX	@DPTR,A
 7050:	  1A17	90 23 C2	   MOV   DPTR,#TMC40H
 7051:	  1A1A	ED		   MOV   A,R5
 7052:	  1A1B	F0			MOVX	@DPTR,A
 7053:
 7054:				;--------------------------------------------------------------------------------
 7055:
 7056:	  1A1C			   TM41_HANDLER:
 7057:
 7058:	  1A1C	90 5F C3	   MOV   DPTR,#TM40_ENABLE_1
 7059:	  1A1F	E0		   MOVX  A,@DPTR
 7060:	  1A20	30 E2 3A	   JNB	TM41E,TMR41_NOT_ENABLED
 7061:	  1A23	20 E3 4E		JB	   TM41D,TM42_HANDLER
 7062:	  1A26	30 03 4B		JNB   TEN_MSEC_BIT,TM42_HANDLER
 7063:	  1A29	C3		   CLR	C
 7064:	  1A2A	90 23 C5	   MOV   DPTR,#TMC41L
 7065:	  1A2D	E0			MOVX	A,@DPTR
 7066:	  1A2E	94 01			SUBB	A,#01
 7067:	  1A30	F0			MOVX	@DPTR,A
 7068:	  1A31	90 23 C4	   MOV   DPTR,#TMC41H
 7069:	  1A34	E0			MOVX	A,@DPTR
 7070:	  1A35	94 00			SUBB	A,#0
 7071:	  1A37	F0			MOVX	@DPTR,A
 7072:	  1A38	40 13			JC	   SET_TMR41_DONE
 7073:	  1A3A	60 02			JZ	   CHK_TMC41L
 7074:	  1A3C	80 06			SJMP	TMR41_NOT_DONE
 7075:
 7076:	  1A3E			   CHK_TMC41L:
 7077:
 7078:	  1A3E	90 23 C5	   MOV   DPTR,#TMC41L
 7079:	  1A41	E0			MOVX	A,@DPTR
 7080:	  1A42	60 09			JZ	   SET_TMR41_DONE
 7081:
 7082:	  1A44			   TMR41_NOT_DONE:
 7083:
 7084:	  1A44	90 5F C3		MOV   DPTR,#TM40_ENABLE_1
 7085:	  1A47	E0			MOVX  A,@DPTR
 7086:	  1A48	C2 E3			CLR	TM41D
 7087:	  1A4A	F0			MOVX  @DPTR,A
 7088:	  1A4B	80 27			SJMP	TM42_HANDLER
 7089:
 7090:	  1A4D			   SET_TMR41_DONE:
 7091:

ASEM-51 V1.3                                        Copyright (c) 2002 by W.W. Heinz                                        PAGE 128



 Line  I  Addr  Code            Source

 7092:	  1A4D	90 5F C3	   MOV   DPTR,#TM40_ENABLE_1
 7093:	  1A50	E0			MOVX  A,@DPTR
 7094:	  1A51	D2 E3			SETB	TM41D
 7095:	  1A53	F0			MOVX  @DPTR,A
 7096:
 7097:	  1A54	E4		   CLR   A
 7098:	  1A55	90 23 C4	   MOV   DPTR,#TMC41H
 7099:	  1A58	F0			MOVX	@DPTR,A
 7100:	  1A59	A3		   INC   DPTR
 7101:	  1A5A	F0		   MOVX	@DPTR,A
 7102:	  1A5B	80 17			SJMP	TM42_HANDLER
 7103:
 7104:	  1A5D			   TMR41_NOT_ENABLED:
 7105:
 7106:	  1A5D	90 5F C3		MOV   DPTR,#TM40_ENABLE_1
 7107:	  1A60	E0			MOVX  A,@DPTR
 7108:	  1A61	C2 E3			CLR	TM41D
 7109:	  1A63	F0			MOVX  @DPTR,A
 7110:
 7111:	  1A64	90 24 92	   MOV   DPTR,#TMS41H
 7112:	  1A67	E0		   MOVX  A,@DPTR
 7113:	  1A68	FD		   MOV   R5,A
 7114:	  1A69	A3		   INC   DPTR
 7115:	  1A6A	E0		   MOVX  A,@DPTR
 7116:	  1A6B	90 23 C5	   MOV   DPTR,#TMC41L
 7117:	  1A6E	F0			MOVX	@DPTR,A
 7118:	  1A6F	90 23 C4	   MOV   DPTR,#TMC41H
 7119:	  1A72	ED		   MOV   A,R5
 7120:	  1A73	F0			MOVX	@DPTR,A
 7121:				;---------------------------------------------------------------
 7122:	  1A74			   TM42_HANDLER:
 7123:
 7124:	  1A74	90 5F C3	   MOV   DPTR,#TM40_ENABLE_1
 7125:	  1A77	E0		   MOVX  A,@DPTR
 7126:	  1A78	30 E4 3A	   JNB	TM42E,TMR42_NOT_ENABLED
 7127:	  1A7B	20 E5 4E		JB	   TM42D,TM43_HANDLER
 7128:	  1A7E	30 03 4B		JNB   TEN_MSEC_BIT,TM43_HANDLER
 7129:	  1A81	C3		   CLR	C
 7130:	  1A82	90 23 C7	   MOV   DPTR,#TMC42L
 7131:	  1A85	E0			MOVX	A,@DPTR
 7132:	  1A86	94 01			SUBB	A,#01
 7133:	  1A88	F0			MOVX	@DPTR,A
 7134:	  1A89	90 23 C6	   MOV   DPTR,#TMC42H
 7135:	  1A8C	E0			MOVX	A,@DPTR
 7136:	  1A8D	94 00			SUBB	A,#0
 7137:	  1A8F	F0			MOVX	@DPTR,A
 7138:	  1A90	40 13			JC	   SET_TMR42_DONE
 7139:	  1A92	60 02			JZ	   CHK_TMC42L
 7140:	  1A94	80 06			SJMP	TMR42_NOT_DONE
 7141:
 7142:	  1A96			   CHK_TMC42L:
 7143:
 7144:	  1A96	90 23 C7	   MOV   DPTR,#TMC42L
 7145:	  1A99	E0			MOVX	A,@DPTR
 7146:	  1A9A	60 09			JZ	   SET_TMR42_DONE
 7147:

ASEM-51 V1.3                                        Copyright (c) 2002 by W.W. Heinz                                        PAGE 129



 Line  I  Addr  Code            Source

 7148:	  1A9C			   TMR42_NOT_DONE:
 7149:
 7150:	  1A9C	90 5F C3	   MOV   DPTR,#TM40_ENABLE_1
 7151:	  1A9F	E0			MOVX  A,@DPTR
 7152:	  1AA0	C2 E5			CLR	TM42D
 7153:	  1AA2	F0			MOVX  @DPTR,A
 7154:	  1AA3	80 27			SJMP	TM43_HANDLER
 7155:
 7156:	  1AA5			   SET_TMR42_DONE:
 7157:
 7158:	  1AA5	90 5F C3	   MOV   DPTR,#TM40_ENABLE_1
 7159:	  1AA8	E0		   MOVX  A,@DPTR
 7160:	  1AA9	D2 E5		   SETB	TM42D
 7161:	  1AAB	F0		   MOVX  @DPTR,A
 7162:	  1AAC	E4		   CLR   A
 7163:	  1AAD	90 23 C6	   MOV   DPTR,#TMC42H
 7164:	  1AB0	F0			MOVX	@DPTR,A
 7165:	  1AB1	A3		   INC   DPTR
 7166:	  1AB2	F0		   MOVX	@DPTR,A
 7167:	  1AB3	80 17			SJMP	TM43_HANDLER
 7168:
 7169:	  1AB5			   TMR42_NOT_ENABLED:
 7170:
 7171:	  1AB5	90 5F C3		MOV   DPTR,#TM40_ENABLE_1
 7172:	  1AB8	E0			MOVX  A,@DPTR
 7173:	  1AB9	C2 E5			CLR	TM42D
 7174:	  1ABB	F0			MOVX  @DPTR,A
 7175:	  1ABC	90 24 94	   MOV   DPTR,#TMS42H
 7176:	  1ABF	E0		   MOVX  A,@DPTR
 7177:	  1AC0	FD		   MOV   R5,A
 7178:	  1AC1	A3		   INC   DPTR
 7179:	  1AC2	E0		   MOVX  A,@DPTR
 7180:	  1AC3	90 23 C7	   MOV   DPTR,#TMC42L
 7181:	  1AC6	F0			MOVX	@DPTR,A
 7182:	  1AC7	90 23 C6	   MOV   DPTR,#TMC42H
 7183:	  1ACA	ED		   MOV   A,R5
 7184:	  1ACB	F0			MOVX	@DPTR,A
 7185:				;-----------------------------------------------------------
 7186:	  1ACC			   TM43_HANDLER:
 7187:
 7188:	  1ACC	90 5F C3	   MOV   DPTR,#TM40_ENABLE_1
 7189:	  1ACF	E0		   MOVX  A,@DPTR
 7190:	  1AD0	30 E6 3A	   JNB	TM43E,TMR43_NOT_ENABLED
 7191:	  1AD3	20 E7 4E		JB	   TM43D,TM44_HANDLER
 7192:	  1AD6	30 03 4B		JNB   TEN_MSEC_BIT,TM44_HANDLER
 7193:	  1AD9	C3		   CLR	C
 7194:	  1ADA	90 23 C9	   MOV   DPTR,#TMC43L
 7195:	  1ADD	E0			MOVX	A,@DPTR
 7196:	  1ADE	94 01			SUBB	A,#01
 7197:	  1AE0	F0			MOVX	@DPTR,A
 7198:	  1AE1	90 23 C8	   MOV   DPTR,#TMC43H
 7199:	  1AE4	E0			MOVX	A,@DPTR
 7200:	  1AE5	94 00			SUBB	A,#0
 7201:	  1AE7	F0			MOVX	@DPTR,A
 7202:	  1AE8	40 13			JC	   SET_TMR43_DONE
 7203:	  1AEA	60 02			JZ	   CHK_TMC43L

ASEM-51 V1.3                                        Copyright (c) 2002 by W.W. Heinz                                        PAGE 130



 Line  I  Addr  Code            Source

 7204:	  1AEC	80 06			SJMP	TMR43_NOT_DONE
 7205:
 7206:	  1AEE			   CHK_TMC43L:
 7207:
 7208:	  1AEE	90 23 C9	   MOV   DPTR,#TMC43L
 7209:	  1AF1	E0			MOVX	A,@DPTR
 7210:	  1AF2	60 09			JZ	   SET_TMR43_DONE
 7211:
 7212:	  1AF4			   TMR43_NOT_DONE:
 7213:
 7214:	  1AF4	90 5F C3		MOV   DPTR,#TM40_ENABLE_1
 7215:	  1AF7	E0			MOVX  A,@DPTR
 7216:	  1AF8	C2 E7			CLR	TM43D
 7217:	  1AFA	F0			MOVX  @DPTR,A
 7218:	  1AFB	80 27			SJMP	TM44_HANDLER
 7219:
 7220:	  1AFD			   SET_TMR43_DONE:
 7221:
 7222:	  1AFD	90 5F C3	   MOV   DPTR,#TM40_ENABLE_1
 7223:	  1B00	E0			MOVX  A,@DPTR
 7224:	  1B01	D2 E7		   SETB	TM43D
 7225:	  1B03	F0		   MOVX  @DPTR,A
 7226:	  1B04	E4		   CLR   A
 7227:	  1B05	90 23 C8	   MOV   DPTR,#TMC43H
 7228:	  1B08	F0			MOVX	@DPTR,A
 7229:	  1B09	A3		   INC   DPTR
 7230:	  1B0A	F0		   MOVX	@DPTR,A
 7231:	  1B0B	80 17			SJMP	TM44_HANDLER
 7232:
 7233:	  1B0D			   TMR43_NOT_ENABLED:
 7234:
 7235:	  1B0D	90 5F C3		MOV   DPTR,#TM40_ENABLE_1
 7236:	  1B10	E0			MOVX  A,@DPTR
 7237:	  1B11	C2 E7			CLR	TM43D
 7238:	  1B13	F0			MOVX  @DPTR,A
 7239:
 7240:
 7241:	  1B14	90 24 96	   MOV   DPTR,#TMS43H
 7242:	  1B17	E0		   MOVX  A,@DPTR
 7243:	  1B18	FD		   MOV   R5,A
 7244:	  1B19	A3		   INC   DPTR
 7245:	  1B1A	E0		   MOVX  A,@DPTR
 7246:	  1B1B	90 23 C9	   MOV   DPTR,#TMC43L
 7247:	  1B1E	F0			MOVX	@DPTR,A
 7248:	  1B1F	90 23 C8	   MOV   DPTR,#TMC43H
 7249:	  1B22	ED		   MOV   A,R5
 7250:	  1B23	F0			MOVX	@DPTR,A
 7251:
 7252:	  1B24			   TM44_HANDLER:
 7253:
 7254:	  1B24	22		   RET
 7255:				;--------------------------------------------------------------
 7256:	  1B25			   LADDER_INIT_2:
 7257:
 7258:	  1B25	90 24 97	   MOV   DPTR,#TMS43L      ;TIMER 18 IS USED FOR TEMP LOW LIMIT DEBOUNCING
 7259:	  1B28	74 64		   MOV   A,#100

ASEM-51 V1.3                                        Copyright (c) 2002 by W.W. Heinz                                        PAGE 131



 Line  I  Addr  Code            Source

 7260:	  1B2A	F0		   MOVX  @DPTR,A
 7261:	  1B2B	90 24 96	   MOV   DPTR,#TMS43H
 7262:	  1B2E	E4		   CLR   A
 7263:	  1B2F	F0		   MOVX  @DPTR,A
 7264:
 7265:	  1B30	90 24 90	   MOV   DPTR,#TMS40H      ;TMS40H IS BLOW PIN UP ERR TIMER
 7266:	  1B33	F0		   MOVX  @DPTR,A
 7267:	  1B34	90 24 91	   MOV   DPTR,#TMS40L
 7268:	  1B37	74 32		   MOV   A,#50
 7269:	  1B39	F0		   MOVX  @DPTR,A
 7270:
 7271:	  1B3A	E4		   CLR   A
 7272:	  1B3B	90 24 92	   MOV   DPTR,#TMS41H      ;TMS41H IS MOULD OPEN ERR TIMER
 7273:	  1B3E	F0		   MOVX  @DPTR,A
 7274:	  1B3F	90 24 93	   MOV   DPTR,#TMS41L
 7275:	  1B42	74 32		   MOV   A,#50
 7276:	  1B44	F0		   MOVX  @DPTR,A
 7277:
 7278:	  1B45	E4		   CLR   A
 7279:	  1B46	90 24 94	   MOV   DPTR,#TMS42H      ;TMS42H IS MOULD OUT ERR TIMER
 7280:	  1B49	F0		   MOVX  @DPTR,A
 7281:	  1B4A	90 24 95	   MOV   DPTR,#TMS42L
 7282:	  1B4D	74 32		   MOV   A,#50
 7283:	  1B4F	F0		   MOVX  @DPTR,A
 7284:
 7285:
 7286:	  1B50	90 10 90	   MOV   DPTR,#CTS00H
 7287:	  1B53	74 27		   MOV   A,#27H
 7288:	  1B55	F0		   MOVX  @DPTR,A
 7289:	  1B56	90 10 92	   MOV   DPTR,#CTS01H
 7290:	  1B59	F0		   MOVX  @DPTR,A
 7291:	  1B5A	90 10 94	   MOV   DPTR,#CTS02H
 7292:	  1B5D	F0		   MOVX  @DPTR,A
 7293:	  1B5E	74 10		   MOV   A,#10H
 7294:	  1B60	90 10 91	   MOV   DPTR,#CTS00L
 7295:	  1B63	F0		   MOVX  @DPTR,A
 7296:	  1B64	90 10 93	   MOV   DPTR,#CTS01L
 7297:	  1B67	F0		   MOVX  @DPTR,A
 7298:	  1B68	90 10 95	   MOV   DPTR,#CTS02L
 7299:	  1B6B	F0		   MOVX  @DPTR,A
 7300:	  1B6C	22		   RET
 7301:
 7302:	  1B6D			   LADDER:
 7303:				;-------------------------------------------------------------
 7304:				;LADDER STARTS FROM HERE
 7305:				;-------------------------------------------------------------
 7306:	  1B6D	90 5F 44		 MOV   DPTR,#RLY544_551
 7307:	  1B70	E0		    MOVX  A,@DPTR
 7308:	  1B71	A2 E6		    MOV   C,PARISON_SEL_BIT
 7309:	  1B73	92 6D		    MOV   PARISON_SEL,C
 7310:
 7311:	  1B75	90 5F 43	    MOV   DPTR,#RLY536_543
 7312:	  1B78	E0		    MOVX  A,@DPTR
 7313:	  1B79	A2 E3		    MOV   C,LOCKING_SEL_BIT
 7314:	  1B7B	92 58		    MOV   LOCKING_SEL,C
 7315:

ASEM-51 V1.3                                        Copyright (c) 2002 by W.W. Heinz                                        PAGE 132



 Line  I  Addr  Code            Source

 7316:	  1B7D	E0		    MOVX  A,@DPTR
 7317:	  1B7E	A2 E1		    MOV   C,HEATER_ON_OFF_BIT
 7318:	  1B80	92 59		    MOV   HEATER_ON_OFF,C
 7319:
 7320:	  1B82	E0		    MOVX  A,@DPTR
 7321:	  1B83	A2 E0		    MOV   C,AUTO_MAN_SEL_BIT
 7322:	  1B85	92 5A		    MOV   AUTO_MAN_SEL,C
 7323:
 7324:	  1B87	E0		    MOVX  A,@DPTR
 7325:	  1B88	A2 E2		    MOV   C,DOUBLE_CUT_SEL_BIT
 7326:	  1B8A	92 5D		    MOV   DOUBLE_CUT_SEL,C
 7327:				;-----------------------------------------------------------
 7328:				;THIS PROGRAM IS FOR DOUBLE CUT IT WILL TAKE THE SAME TIME
 7329:				;-----------------------------------------------------------
 7330:	  1B8C	90 10 56	    MOV   DPTR,#TMS03H
 7331:	  1B8F	E0		    MOVX  A,@DPTR
 7332:	  1B90	F5 F0		    MOV   B,A
 7333:	  1B92	A3		    INC   DPTR
 7334:	  1B93	E0		    MOVX  A,@DPTR
 7335:	  1B94	90 10 6F	    MOV   DPTR,#TMS15L
 7336:	  1B97	F0		    MOVX  @DPTR,A
 7337:	  1B98	E5 F0		    MOV   A,B
 7338:	  1B9A	90 10 6E	    MOV   DPTR,#TMS15H
 7339:	  1B9D	F0		    MOVX  @DPTR,A
 7340:
 7341:
 7342:
 7343:	  1B9E			    START_SEQUENCE:
 7344:
 7345:				;----------------------------------------------------------------------------
 7346:				;BLOW MOULDING PROGRAM STARTS HERE
 7347:				;----------------------------------------------------------------------------
 7348:	  1B9E	A2 5A		   MOV    C,AUTO_MAN_SEL
 7349:	  1BA0	82 48		   ANL    C,MOULD_OPEN_IP
 7350:	  1BA2	82 49		   ANL    C,BLOW_PINUP_IP
 7351:				  ; ANL    C,MOULD_OUT_IP
 7352:	  1BA4	50 02		   JNC    HOME_POSN_NOT_ACHIEVED
 7353:	  1BA6	D2 5C		   SETB   B_HOME_POSN
 7354:
 7355:
 7356:	  1BA8			  HOME_POSN_NOT_ACHIEVED:
 7357:
 7358:
 7359:
 7360:	  1BA8	A2 48		  MOV    C,MOULD_OPEN_IP
 7361:	  1BAA	82 49		  ANL    C,BLOW_PINUP_IP
 7362:				 ; ANL    C,MOULD_OUT_IP
 7363:	  1BAC	82 5A		  ANL    C,AUTO_MAN_SEL
 7364:				 ; ANL    C,B_HOME_POSN
 7365:	  1BAE	82 4A		  ANL    C,EMERGENCY_IP
 7366:	  1BB0	A0 4A		  ORL    C,/EMERGENCY_IP
 7367:	  1BB2	50 02		  JNC    MOULD_IN_DLY_NOT_STARTED
 7368:	  1BB4	D2 2C		  SETB   MOULDIN_DLY_TM14E       ;TM14E IS MOULD IN DELAY
 7369:
 7370:	  1BB6			  MOULD_IN_DLY_NOT_STARTED:
 7371:				;---------------------------------------------------------------------

ASEM-51 V1.3                                        Copyright (c) 2002 by W.W. Heinz                                        PAGE 133



 Line  I  Addr  Code            Source

 7372:	  1BB6	A2 5A		  MOV    C,AUTO_MAN_SEL
 7373:	  1BB8	B0 68		  ANL    C,/MOULD_IN_OVER
 7374:	  1BBA	82 5C		  ANL    C,B_HOME_POSN
 7375:	  1BBC	82 2D		  ANL    C,MOULDIN_DLY_TM14D
 7376:	  1BBE	92 7E		  MOV    RLY39,C
 7377:
 7378:	  1BC0	90 5F 42	  MOV    DPTR,#RLY528_535
 7379:	  1BC3	E0		  MOVX   A,@DPTR
 7380:	  1BC4	A2 E3		  MOV    C,MOULD_IN_PB
 7381:	  1BC6	72 52		  ORL    C,MOULD_IN_PB_IP
 7382:	  1BC8	B0 5A		  ANL    C,/AUTO_MAN_SEL
 7383:	  1BCA	B0 4C		  ANL    C,/MOULD_IN_IP
 7384:	  1BCC	72 7E		  ORL    C,RLY39
 7385:
 7386:	  1BCE	82 4A		  ANL    C,EMERGENCY_IP
 7387:	  1BD0	82 49		  ANL    C,BLOW_PINUP_IP
 7388:	  1BD2	92 3B		  MOV    MOULD_IN_OP,C
 7389:				;-----------------------------------------------------------------------------
 7390:				;MOULD IN SLOW TIMER
 7391:				;-----------------------------------------------------------------------------
 7392:	  1BD4	A2 3B		  MOV    C,MOULD_IN_OP      ;MOULD IN IS OP2
 7393:	  1BD6	92 22		  MOV    MOULDIN_SLOW_TM09E,C      ;TM09 IS MOULD IN SLOW TIMER
 7394:
 7395:				;----------------------------------------------------------------------------
 7396:				;MOULD IN TIMER START
 7397:				;----------------------------------------------------------------------------
 7398:
 7399:
 7400:	  1BD8	A2 38		  MOV    C,MOULD_CLOSE_OP
 7401:	  1BDA	82 5A		  ANL    C,AUTO_MAN_SEL
 7402:	  1BDC	50 04		  JNC    CHK_MOULD_CLOSE
 7403:	  1BDE	D2 10		  SETB   MOULD_IN_TM00E
 7404:	  1BE0	C2 2C		  CLR    MOULDIN_DLY_TM14E
 7405:
 7406:	  1BE2			  CHK_MOULD_CLOSE:
 7407:				;--------------------------------
 7408:	  1BE2	A2 3B		  MOV    C,MOULD_IN_OP
 7409:	  1BE4	82 5A		  ANL    C,AUTO_MAN_SEL
 7410:	  1BE6	82 4C		  ANL    C,MOULD_IN_IP
 7411:	  1BE8	50 02		  JNC    MOULD_IN_NOT_OVER
 7412:	  1BEA	D2 68		  SETB   MOULD_IN_OVER
 7413:
 7414:	  1BEC			  MOULD_IN_NOT_OVER:
 7415:
 7416:
 7417:	  1BEC	A2 68		  MOV   C,MOULD_IN_OVER
 7418:	  1BEE	82 49		  ANL   C,BLOW_PINUP_IP
 7419:	  1BF0	82 48		  ANL   C,MOULD_OPEN_IP
 7420:	  1BF2	82 5A		  ANL   C,AUTO_MAN_SEL
 7421:	  1BF4	82 5C		  ANL   C,B_HOME_POSN
 7422:	  1BF6	50 02		  JNC   MLD_CLS_DLY_NOT_STARTED
 7423:	  1BF8	D2 12		  SETB  MOULD_CLOSE_DLY_TM01E
 7424:				;-----------------------------------------------------------------
 7425:
 7426:	  1BFA			  MLD_CLS_DLY_NOT_STARTED:
 7427:

ASEM-51 V1.3                                        Copyright (c) 2002 by W.W. Heinz                                        PAGE 134



 Line  I  Addr  Code            Source

 7428:	  1BFA	A2 13		  MOV    C,MOULD_CLOSE_DLY_TM01D
 7429:	  1BFC	82 5A		  ANL    C,AUTO_MAN_SEL
 7430:	  1BFE	B0 58		  ANL    C,/LOCKING_SEL
 7431:	  1C00	B0 69		  ANL    C,/MOULD_CLOSE_OVER
 7432:	  1C02	92 7E		  MOV    RLY39,C
 7433:
 7434:
 7435:	  1C04	A2 13		  MOV    C,MOULD_CLOSE_DLY_TM01D
 7436:	  1C06	82 5A		  ANL    C,AUTO_MAN_SEL
 7437:	  1C08	82 58		  ANL    C,LOCKING_SEL
 7438:	  1C0A	B0 20		  ANL    C,/EXHAUST_TM08E
 7439:	  1C0C	72 7E		  ORL    C,RLY39
 7440:	  1C0E	92 7E		  MOV    RLY39,C
 7441:
 7442:	  1C10	90 5F 42	  MOV    DPTR,#RLY528_535
 7443:	  1C13	E0		  MOVX   A,@DPTR
 7444:	  1C14	A2 E0		  MOV    C,MOULD_CLOSE_PB
 7445:	  1C16	72 50		  ORL    C,MOULD_CLOSE_PB_IP
 7446:	  1C18	B0 5A		  ANL    C,/AUTO_MAN_SEL
 7447:	  1C1A	B0 57		  ANL    C,/MOULD_CLOSE_IP
 7448:	  1C1C	72 7E		  ORL    C,RLY39
 7449:	  1C1E	82 4A		  ANL    C,EMERGENCY_IP    ;EMERGENCY
 7450:
 7451:	  1C20	92 38		  MOV    MOULD_CLOSE_OP,C
 7452:				;-----------------------------------------------------------------------------
 7453:				;MOULD CLOSE SLOW TIMER
 7454:				;-----------------------------------------------------------------------------
 7455:	  1C22	A2 38		  MOV    C,MOULD_CLOSE_OP
 7456:	  1C24	92 24		  MOV    MOULDCLOSE_SLOW_TM10E,C      ;TM10 IS MOULD CLOSE SLOW TIMER
 7457:
 7458:	  1C26	A2 13		  MOV    C,MOULD_CLOSE_DLY_TM01D
 7459:	  1C28	82 5A		  ANL    C,AUTO_MAN_SEL
 7460:	  1C2A	82 4A		  ANL    C,EMERGENCY_IP
 7461:	  1C2C	92 40		  MOV    MLD_CLS_TM_E,C
 7462:
 7463:	  1C2E	A2 41		  MOV    C,MLD_CLS_TM_D
 7464:	  1C30	82 5A		  ANL    C,AUTO_MAN_SEL
 7465:	  1C32	82 13		  ANL    C,MOULD_CLOSE_DLY_TM01D
 7466:	  1C34	50 02		  JNC    MOULD_CLOSE_NOT_OVER
 7467:	  1C36	D2 69		  SETB   MOULD_CLOSE_OVER
 7468:
 7469:	  1C38			  MOULD_CLOSE_NOT_OVER:
 7470:
 7471:
 7472:
 7473:				;----------------------------------------------------------------------------
 7474:				;CUTTER DELAY
 7475:				;----------------------------------------------------------------------------
 7476:	  1C38	A2 13		  MOV    C,MOULD_CLOSE_DLY_TM01D            ;TM01 IS MOULD CLOSE DELAY
 7477:	  1C3A	82 5A		  ANL    C,AUTO_MAN_SEL
 7478:	  1C3C	82 4A		  ANL    C,EMERGENCY_IP
 7479:	  1C3E	50 02		  JNC    CUTTER_DELAY_NOT_STARTED
 7480:	  1C40	D2 14		  SETB   CUTTER_DLY_TM02E
 7481:
 7482:	  1C42			  CUTTER_DELAY_NOT_STARTED:
 7483:

ASEM-51 V1.3                                        Copyright (c) 2002 by W.W. Heinz                                        PAGE 135



 Line  I  Addr  Code            Source

 7484:
 7485:	  1C42	A2 14		  MOV    C,TM02E
 7486:	  1C44	B0 15		  ANL    C,/TM02D
 7487:	  1C46	50 15		  JNC    DO_NOT_LOAD_CYCLE_TIME
 7488:
 7489:	  1C48	30 30 12	  JNB    TM16E,DO_NOT_LOAD_CYCLE_TIME
 7490:	  1C4B	90 23 A8	  MOV    DPTR,#TMC16H
 7491:	  1C4E	E0		  MOVX   A,@DPTR
 7492:	  1C4F	90 23 C0	  MOV	   DPTR,#CYCLE_TIME_H
 7493:	  1C52	F0		  MOVX	@DPTR,A
 7494:	  1C53	90 23 A9	  MOV    DPTR,#TMC16L
 7495:	  1C56	E0		  MOVX   A,@DPTR
 7496:	  1C57	90 23 C1	  MOV	   DPTR,#CYCLE_TIME_L
 7497:	  1C5A	F0		  MOVX	@DPTR,A
 7498:
 7499:	  1C5B	C2 30		  CLR    TM16E
 7500:
 7501:	  1C5D			  DO_NOT_LOAD_CYCLE_TIME:
 7502:
 7503:
 7504:				;---------------------------------------------------------------------------
 7505:				;CUTTER ON TIME START
 7506:				;---------------------------------------------------------------------------
 7507:
 7508:	  1C5D			  CHK_CUTTER_ONTIME:
 7509:
 7510:	  1C5D	A2 15		  MOV    C,CUTTER_DLY_TM02D
 7511:	  1C5F	92 16		  MOV    CUTTER_ON_TM03E,C          ;TM03 IS CUTTER ON TIME
 7512:	  1C61	50 04		  JNC    CUTTER_TIME_NOT_ON
 7513:	  1C63	D2 28		  SETB   PARISON_DLY_TM12E
 7514:	  1C65	D2 30		  SETB   TM16E    ;TM16E IS CYCLE TIME
 7515:
 7516:	  1C67			  CUTTER_TIME_NOT_ON:
 7517:				;--------------------------------------------------------------------------
 7518:				;RESET TIMER 12
 7519:				;---------------------------------------------------------------------------
 7520:
 7521:	  1C67	A2 14		   MOV   C,CUTTER_DLY_TM02E
 7522:	  1C69	B0 15		   ANL   C,/CUTTER_DLY_TM02D
 7523:	  1C6B	50 02		   JNC   CUTTER_DELAY_OVER                                        ;DO_NOT_RESET_EXTRUDER_TIMER
 7524:	  1C6D	C2 28		   CLR   PARISON_DLY_TM12E
 7525:				;----------------------------------------------------------------------
 7526:	  1C6F			   CUTTER_DELAY_OVER:
 7527:
 7528:				;-----------------------------------------------------------------------
 7529:				;BELOW PROGRAM IS FOR SINGLE CUT
 7530:				;-----------------------------------------------------------------------
 7531:	  1C6F	A2 16		  MOV   C,CUTTER_ON_TM03E
 7532:	  1C71	82 5A		  ANL   C,AUTO_MAN_SEL
 7533:	  1C73	82 5D		  ANL   C,DOUBLE_CUT_SEL
 7534:	  1C75	B0 17		  ANL   C,/CUTTER_ON_TM03D
 7535:	  1C77	92 7E		  MOV   RLY39,C
 7536:
 7537:	  1C79	20 5D 16	  JB    DOUBLE_CUT_SEL,BYPASS_SINGLE_CUT
 7538:
 7539:	  1C7C	A2 16		  MOV   C,CUTTER_ON_TM03E

ASEM-51 V1.3                                        Copyright (c) 2002 by W.W. Heinz                                        PAGE 136



 Line  I  Addr  Code            Source

 7540:	  1C7E	82 5A		  ANL   C,AUTO_MAN_SEL
 7541:	  1C80	B0 5D		  ANL   C,/DOUBLE_CUT_SEL
 7542:	  1C82	B0 17		  ANL   C,/CUTTER_ON_TM03D
 7543:	  1C84	B0 5F		  ANL   C,/RLY08
 7544:	  1C86	50 04		  JNC   SINGLE_CUT_NOT_SEL
 7545:	  1C88	B2 5E		  CPL   RLY07
 7546:	  1C8A	D2 5F		  SETB  RLY08
 7547:
 7548:
 7549:	  1C8C			  SINGLE_CUT_NOT_SEL:
 7550:
 7551:	  1C8C	A2 5E		  MOV   C,RLY07
 7552:	  1C8E	72 7E		  ORL   C,RLY39
 7553:	  1C90	92 7E		  MOV   RLY39,C
 7554:
 7555:	  1C92			  BYPASS_SINGLE_CUT:
 7556:
 7557:	  1C92	90 5F 42	  MOV    DPTR,#RLY528_535
 7558:	  1C95	E0		  MOVX   A,@DPTR
 7559:	  1C96	A2 E7		  MOV    C,CUTTER2_PB
 7560:	  1C98	B0 5A		  ANL    C,/AUTO_MAN_SEL
 7561:	  1C9A	72 7E		  ORL    C,RLY39
 7562:
 7563:	  1C9C	92 3E		  MOV   CUTTER2_OP,C       ;CUTTER 2
 7564:
 7565:
 7566:				;-----------------------------------------------------------------------
 7567:	  1C9E	A2 15		  MOV    C,CUTTER_DLY_TM02D
 7568:	  1CA0	82 5A		  ANL    C,AUTO_MAN_SEL
 7569:	  1CA2	82 69		  ANL    C,MOULD_CLOSE_OVER                              ;MLD_CLS_TM_D
 7570:	  1CA4	92 36		  MOV    MOULDOUT_DLY_TM19E,C
 7571:
 7572:	  1CA6	A2 37		  MOV    C,MOULDOUT_DLY_TM19D
 7573:	  1CA8	82 49		  ANL    C,BLOW_PINUP_IP
 7574:	  1CAA	82 5A		  ANL    C,AUTO_MAN_SEL
 7575:	  1CAC	B0 6A		  ANL    C,/MOULD_OUT_OVER                            ;MOULD_OUT_IP
 7576:	  1CAE	92 7E		  MOV    RLY39,C
 7577:
 7578:
 7579:	  1CB0	A2 5A		  MOV    C,AUTO_MAN_SEL
 7580:	  1CB2	82 48		  ANL    C,MOULD_OPEN_IP
 7581:	  1CB4	82 49		  ANL    C,BLOW_PINUP_IP
 7582:	  1CB6	B0 4D		  ANL    C,/MOULD_OUT_IP
 7583:	  1CB8	B0 5C		  ANL    C,/B_HOME_POSN
 7584:	  1CBA	72 7E		  ORL    C,RLY39
 7585:	  1CBC	92 7E		  MOV    RLY39,C
 7586:
 7587:	  1CBE	90 5F 42	  MOV    DPTR,#RLY528_535
 7588:	  1CC1	E0		  MOVX   A,@DPTR
 7589:	  1CC2	A2 E4		  MOV    C,MOULD_OUT_PB
 7590:	  1CC4	72 53		  ORL    C,MOULD_OUT_PB_IP
 7591:	  1CC6	B0 5A		  ANL    C,/AUTO_MAN_SEL
 7592:	  1CC8	82 49		  ANL    C,BLOW_PINUP_IP
 7593:	  1CCA	B0 4D		  ANL    C,/MOULD_OUT_IP
 7594:	  1CCC	72 7E		  ORL    C,RLY39
 7595:

ASEM-51 V1.3                                        Copyright (c) 2002 by W.W. Heinz                                        PAGE 137



 Line  I  Addr  Code            Source

 7596:	  1CCE	82 4A		  ANL    C,EMERGENCY_IP
 7597:	  1CD0	92 3C		  MOV    MOULD_OUT_OP,C
 7598:				;--------------------------------------------------------------------------
 7599:				;MOULD OUT SLOW TIMER
 7600:				;--------------------------------------------------------------------------
 7601:	  1CD2	A2 3C		  MOV    C,MOULD_OUT_OP
 7602:	  1CD4	92 26		  MOV    MOULDOUT_SLOW_TM11E,C
 7603:				;--------------------------------------------------------------------------
 7604:	  1CD6	A2 5A		  MOV    C,AUTO_MAN_SEL
 7605:	  1CD8	82 3C		  ANL    C,MOULD_OUT_OP
 7606:	  1CDA	82 4D		  ANL    C,MOULD_OUT_IP
 7607:	  1CDC	82 5C		  ANL    C,B_HOME_POSN
 7608:	  1CDE	50 02		  JNC    MOULD_OUT_NOT_OVER
 7609:	  1CE0	D2 6A		  SETB   MOULD_OUT_OVER
 7610:
 7611:	  1CE2			  MOULD_OUT_NOT_OVER:
 7612:				;--------------------------------------------------------------------------
 7613:				;BLOW PIN DOWN DELAY START
 7614:				;--------------------------------------------------------------------------
 7615:	  1CE2	A2 6A		  MOV    C,MOULD_OUT_OVER
 7616:	  1CE4	82 17		  ANL    C,CUTTER_ON_TM03D
 7617:	  1CE6	82 5A		  ANL    C,AUTO_MAN_SEL
 7618:	  1CE8	92 18		  MOV    BLOW_PIN_DN_DLY_TM04E,C
 7619:
 7620:				;-------------------------------------------------------------------------
 7621:				;BLOW PIN DN START
 7622:				;-------------------------------------------------------------------------
 7623:
 7624:	  1CEA	A2 6A		  MOV    C,MOULD_OUT_OVER
 7625:	  1CEC	82 19		  ANL    C,BLOW_PIN_DN_DLY_TM04D
 7626:	  1CEE	82 5A		  ANL    C,AUTO_MAN_SEL
 7627:	  1CF0	B0 43		  ANL    C,/PINDN_TM101D
 7628:	  1CF2	90 5F 40	  MOV    DPTR,#RLY512_519
 7629:	  1CF5	E0		  MOVX   A,@DPTR
 7630:	  1CF6	82 E0		  ANL    C,BLOW_PIN_HYDRA
 7631:	  1CF8	92 7E		  MOV    RLY39,C
 7632:
 7633:
 7634:	  1CFA	A2 6A		  MOV    C,MOULD_OUT_OVER
 7635:	  1CFC	82 19		  ANL    C,BLOW_PIN_DN_DLY_TM04D
 7636:	  1CFE	82 5A		  ANL    C,AUTO_MAN_SEL
 7637:	  1D00	90 5F C6	  MOV    DPTR,#TM104_ENABLE
 7638:	  1D03	E0		  MOVX   A,@DPTR
 7639:	  1D04	B0 E1		  ANL    C,/BLOWPINUP_DELAY_TM104D
 7640:	  1D06	90 5F 40	  MOV    DPTR,#RLY512_519
 7641:	  1D09	E0		  MOVX   A,@DPTR
 7642:	  1D0A	B0 E0		  ANL    C,/BLOW_PIN_HYDRA
 7643:	  1D0C	72 7E		  ORL    C,RLY39
 7644:	  1D0E	92 7E		  MOV    RLY39,C
 7645:
 7646:	  1D10	90 5F 42	  MOV    DPTR,#RLY528_535
 7647:	  1D13	E0		  MOVX   A,@DPTR
 7648:	  1D14	A2 E2		  MOV    C,BLOW_PIN_DN_PB
 7649:	  1D16	72 55		  ORL    C,BLOW_PINDN_PB_IP
 7650:	  1D18	B0 5A		  ANL    C,/AUTO_MAN_SEL
 7651:	  1D1A	72 7E		  ORL    C,RLY39

ASEM-51 V1.3                                        Copyright (c) 2002 by W.W. Heinz                                        PAGE 138



 Line  I  Addr  Code            Source

 7652:
 7653:	  1D1C	82 4A		  ANL    C,EMERGENCY_IP
 7654:	  1D1E	92 3A		  MOV    BLOW_PINDN_OP,C
 7655:				;----------------------------------------------------------------------------
 7656:				;PIN DN ON TIME STARTS FROM HERE
 7657:				;----------------------------------------------------------------------------
 7658:	  1D20	A2 5A		  MOV    C,AUTO_MAN_SEL
 7659:	  1D22	82 19		  ANL    C,BLOW_PIN_DN_DLY_TM04D
 7660:	  1D24	92 42		  MOV    PINDN_TM101E,C
 7661:				;---------------------------------
 7662:				;PIN DN SLOW TIMER START FROM HERE
 7663:				;--------------------------------
 7664:	  1D26	A2 3A		  MOV    C,BLOW_PINDN_OP
 7665:	  1D28	92 44		  MOV    PINDN_SLOW_TM102E,C
 7666:
 7667:
 7668:				;--------------------------------------------------------------------------
 7669:				;PRE BLOW TIMER START
 7670:				;--------------------------------------------------------------------------
 7671:	  1D2A	A2 19		  MOV    C,BLOW_PIN_DN_DLY_TM04D
 7672:	  1D2C	82 5A		  ANL    C,AUTO_MAN_SEL
 7673:	  1D2E	92 1A		  MOV    PREBLOW_TM05E,C
 7674:				;-------------------------------------------------------------------------
 7675:				;BLOW DELAY START
 7676:				;-------------------------------------------------------------------------
 7677:
 7678:	  1D30	A2 1B		  MOV    C,PREBLOW_TM05D
 7679:	  1D32	82 5A		  ANL    C,AUTO_MAN_SEL
 7680:	  1D34	82 6A		  ANL    C,MOULD_OUT_OVER
 7681:	  1D36	92 1C		  MOV    BLOW_DELAY_TM06E,C
 7682:				;-----------------------------------------------------------------
 7683:				;BLOWING START
 7684:				;-----------------------------------------------------------------
 7685:
 7686:	  1D38	A2 1A		  MOV    C,PREBLOW_TM05E
 7687:	  1D3A	82 5A		  ANL    C,AUTO_MAN_SEL
 7688:	  1D3C	B0 1B		  ANL    C,/PREBLOW_TM05D
 7689:				;  ANL    C,BLOW_PINDN_PB_IP
 7690:	  1D3E	92 7E		  MOV    RLY39,C
 7691:	  1D40	A2 1E		  MOV    C,BLOWING_TM07E
 7692:	  1D42	82 5A		  ANL    C,AUTO_MAN_SEL
 7693:	  1D44	B0 1F		  ANL    C,/BLOWING_TM07D
 7694:				 ; ANL    C,BLOW_PINDN_PB_IP
 7695:	  1D46	72 7E		  ORL    C,RLY39
 7696:	  1D48	92 7E		  MOV    RLY39,C
 7697:
 7698:	  1D4A	90 5F 42	  MOV    DPTR,#RLY528_535
 7699:	  1D4D	E0		  MOVX   A,@DPTR
 7700:	  1D4E	A2 E6		  MOV    C,BLOWING_PB
 7701:	  1D50	B0 5A		  ANL    C,/AUTO_MAN_SEL
 7702:	  1D52	72 7E		  ORL    C,RLY39
 7703:	  1D54	82 4A		  ANL    C,EMERGENCY_IP
 7704:	  1D56	92 3F		  MOV    BLOWING_OP,C
 7705:				;--------------------------------------------------------------------------
 7706:				;EXHAUST TIMER START
 7707:				;--------------------------------------------------------------------------

ASEM-51 V1.3                                        Copyright (c) 2002 by W.W. Heinz                                        PAGE 139



 Line  I  Addr  Code            Source

 7708:	  1D58	A2 1D		  MOV    C,BLOW_DELAY_TM06D
 7709:	  1D5A	82 5A		  ANL    C,AUTO_MAN_SEL
 7710:	  1D5C	92 1E		  MOV    BLOWING_TM07E,C    ;TM07 IS BLOWING TIME
 7711:				;--------------------------------------------------------------------------
 7712:				;EXHAUST TIMER
 7713:				;-------------------------------------------------------------------------
 7714:
 7715:	  1D5E	A2 1F		  MOV    C,BLOWING_TM07D
 7716:	  1D60	82 5A		  ANL    C,AUTO_MAN_SEL
 7717:	  1D62	92 20		  MOV    EXHAUST_TM08E,C    ;TM08 IS EXHAUST TIME
 7718:				;-------------------------------------------------------------------------
 7719:				;BLOW PIN UP DELAY STARTS FROM HERE
 7720:				;-------------------------------------------------------------------------
 7721:	  1D64	A2 5A		  MOV    C,AUTO_MAN_SEL
 7722:	  1D66	82 21		  ANL    C,EXHAUST_TM08D
 7723:	  1D68	82 48		  ANL    C,MOULD_OPEN_IP
 7724:	  1D6A	90 5F C6	  MOV    DPTR,#TM104_ENABLE
 7725:	  1D6D	E0		  MOVX   A,@DPTR
 7726:	  1D6E	92 E0		  MOV    BLOWPINUP_DELAY_TM104E,C
 7727:	  1D70	F0		  MOVX   @DPTR,A
 7728:
 7729:				;--------------------------------------------------------------------------
 7730:				;SEALING TIMER
 7731:				;--------------------------------------------------------------------------
 7732:	  1D71	90 5F 43	  MOV    DPTR,#RLY536_543
 7733:	  1D74	E0		  MOVX   A,@DPTR
 7734:	  1D75	A2 E5		  MOV    C,SEALING_SEL
 7735:	  1D77	82 5A		  ANL    C,AUTO_MAN_SEL
 7736:	  1D79	82 1F		  ANL    C,TM07D
 7737:	  1D7B	92 32		  MOV    SEALING_DELAY_TM17E,C
 7738:
 7739:	  1D7D	A2 33		  MOV    C,SEALING_DELAY_TM17D
 7740:	  1D7F	82 5A		  ANL    C,AUTO_MAN_SEL
 7741:	  1D81	92 34		  MOV    SEALING_TIME_TM18E,C
 7742:
 7743:	  1D83	A2 34		  MOV    C,SEALING_TIME_TM18E
 7744:	  1D85	B0 35		  ANL    C,/SEALING_TIME_TM18D
 7745:	  1D87	92 7E		  MOV    RLY39,C
 7746:
 7747:	  1D89	90 5F 44	  MOV    DPTR,#RLY544_551
 7748:	  1D8C	A2 E0		  MOV    C,SEALING_PB
 7749:	  1D8E	B0 5A		  ANL    C,/AUTO_MAN_SEL
 7750:	  1D90	72 7E		  ORL    C,RLY39
 7751:
 7752:	  1D92	92 91		  MOV    P1.1,C
 7753:				;----------------------------------
 7754:				;BLOW PIN UP O/P
 7755:				;----------------------------------
 7756:	  1D94	A2 5A		  MOV    C,AUTO_MAN_SEL
 7757:	  1D96	82 21		  ANL    C,EXHAUST_TM08D
 7758:	  1D98	82 48		  ANL    C,MOULD_OPEN_IP
 7759:	  1D9A	90 5F C6	  MOV    DPTR,#TM104_ENABLE
 7760:	  1D9D	E0		  MOVX   A,@DPTR
 7761:	  1D9E	82 E1		  ANL    C,BLOWPINUP_DELAY_TM104D
 7762:	  1DA0	92 7E		  MOV    RLY39,C
 7763:

ASEM-51 V1.3                                        Copyright (c) 2002 by W.W. Heinz                                        PAGE 140



 Line  I  Addr  Code            Source

 7764:	  1DA2	A2 3D		  MOV    C,BLOW_PINUP_OP
 7765:	  1DA4	82 5A		  ANL    C,AUTO_MAN_SEL
 7766:	  1DA6	72 7E		  ORL    C,RLY39
 7767:	  1DA8	92 7E		  MOV    RLY39,C
 7768:
 7769:	  1DAA	A2 5A		  MOV    C,AUTO_MAN_SEL
 7770:	  1DAC	82 48		  ANL    C,MOULD_OPEN_IP
 7771:	  1DAE	B0 4A		  ANL    C,/EMERGENCY_IP
 7772:	  1DB0	72 7E		  ORL    C,RLY39
 7773:	  1DB2	92 7E		  MOV    RLY39,C
 7774:
 7775:	  1DB4	90 5F 44	  MOV    DPTR,#RLY544_551
 7776:	  1DB7	E0		  MOVX   A,@DPTR
 7777:	  1DB8	A2 E1		  MOV    C,BLOW_PINUP_PB
 7778:	  1DBA	72 54		  ORL    C,BLOW_PINUP_PB_IP
 7779:	  1DBC	B0 5A		  ANL    C,/AUTO_MAN_SEL
 7780:	  1DBE	72 7E		  ORL    C,RLY39
 7781:
 7782:	  1DC0	B0 49		  ANL    C,/BLOW_PINUP_IP
 7783:	  1DC2	90 5F 40	  MOV    DPTR,#RLY512_519
 7784:	  1DC5	E0		  MOVX   A,@DPTR
 7785:	  1DC6	82 E0		  ANL    C,BLOW_PIN_HYDRA
 7786:
 7787:	  1DC8	92 3D		  MOV    BLOW_PINUP_OP,C
 7788:				;-----------------------------------------
 7789:				;PIN UP SLOW DN TIMER START
 7790:				;-----------------------------------------
 7791:	  1DCA	A2 3D		  MOV    C,BLOW_PINUP_OP
 7792:	  1DCC	92 46		  MOV    PINUP_SLOW_TM103E,C
 7793:
 7794:				;--------------------------------------------------------------------------
 7795:				;START MOULD OPEN
 7796:				;--------------------------------------------------------------------------
 7797:
 7798:	  1DCE	A2 48		  MOV    C,MOULD_OPEN_IP
 7799:				 ; ANL    C,MOULD_OPEN_OP
 7800:	  1DD0	82 49		  ANL    C,BLOW_PINUP_IP
 7801:	  1DD2	82 4A		  ANL    C,EMERGENCY_IP
 7802:	  1DD4	82 21		  ANL    C,EXHAUST_TM08D
 7803:	  1DD6	82 5A		  ANL    C,AUTO_MAN_SEL
 7804:	  1DD8	82 5C		  ANL    C,B_HOME_POSN
 7805:	  1DDA	A0 4A		  ORL    C,/EMERGENCY_IP
 7806:
 7807:	  1DDC	50 0E		  JNC    DO_NOT_RESET_TM_ENABLE
 7808:
 7809:	  1DDE	C2 10		  CLR    MOULD_IN_TM00E
 7810:	  1DE0	C2 14		  CLR    CUTTER_DLY_TM02E
 7811:	  1DE2	C2 12		  CLR    MOULD_CLOSE_DLY_TM01E
 7812:	  1DE4	C2 68		  CLR    MOULD_IN_OVER
 7813:	  1DE6	C2 69		  CLR    MOULD_CLOSE_OVER
 7814:	  1DE8	C2 6A		  CLR    MOULD_OUT_OVER
 7815:	  1DEA	C2 12		  CLR    MOULD_CLOSE_DLY_TM01E
 7816:
 7817:	  1DEC			  DO_NOT_RESET_TM_ENABLE:
 7818:
 7819:

ASEM-51 V1.3                                        Copyright (c) 2002 by W.W. Heinz                                        PAGE 141



 Line  I  Addr  Code            Source

 7820:
 7821:	  1DEC	A2 21		  MOV    C,EXHAUST_TM08D
 7822:	  1DEE	82 5A		  ANL    C,AUTO_MAN_SEL
 7823:	  1DF0	90 5F 43	  MOV    DPTR,#RLY536_543
 7824:	  1DF3	E0		  MOVX   A,@DPTR
 7825:	  1DF4	B0 E5		  ANL    C,/SEALING_SEL
 7826:	  1DF6	92 7E		  MOV    RLY39,C
 7827:
 7828:	  1DF8	A2 21		  MOV    C,EXHAUST_TM08D
 7829:	  1DFA	82 5A		  ANL    C,AUTO_MAN_SEL
 7830:	  1DFC	90 5F 43	  MOV    DPTR,#RLY536_543
 7831:	  1DFF	E0		  MOVX   A,@DPTR
 7832:	  1E00	82 E5		  ANL    C,SEALING_SEL
 7833:	  1E02	82 35		  ANL    C,SEALING_TIME_TM18D
 7834:	  1E04	72 7E		  ORL    C,RLY39
 7835:
 7836:	  1E06	A0 4A		  ORL    C,/EMERGENCY_IP
 7837:	  1E08	92 7E		  MOV    RLY39,C
 7838:				;--------------------------------------
 7839:	  1E0A	A2 5A		  MOV    C,AUTO_MAN_SEL
 7840:	  1E0C	B0 48		  ANL    C,/MOULD_OPEN_IP                      ;  AUTO HOME POSN
 7841:	  1E0E	B0 5C		  ANL    C,/B_HOME_POSN
 7842:				;--------------------------------------
 7843:	  1E10	72 7E		  ORL    C,RLY39
 7844:	  1E12	92 7E		  MOV    RLY39,C
 7845:
 7846:	  1E14	A2 39		  MOV    C,MOULD_OPEN_OP
 7847:	  1E16	82 5A		  ANL    C,AUTO_MAN_SEL
 7848:	  1E18	82 4A		  ANL    C,EMERGENCY_IP
 7849:	  1E1A	72 7E		  ORL    C,RLY39
 7850:	  1E1C	92 7E		  MOV    RLY39,C
 7851:
 7852:	  1E1E	90 5F 42	  MOV    DPTR,#RLY528_535
 7853:	  1E21	E0		  MOVX   A,@DPTR
 7854:	  1E22	A2 E1		  MOV    C,MOULD_OPEN_PB
 7855:	  1E24	72 51		  ORL    C,MOULD_OPEN_PB_IP
 7856:	  1E26	B0 5A		  ANL    C,/AUTO_MAN_SEL
 7857:	  1E28	72 7E		  ORL    C,RLY39
 7858:	  1E2A	B0 48		  ANL    C,/MOULD_OPEN_IP
 7859:
 7860:	  1E2C	92 39		  MOV    MOULD_OPEN_OP,C      ;OUT6 IS MOULD OPEN
 7861:
 7862:				;-----------------------------------------
 7863:				 ;MOULD OPEN SLOW DOWN
 7864:				;------------------------------------------
 7865:	  1E2E	A2 39		 MOV    C,MOULD_OPEN_OP
 7866:	  1E30	90 5F C6	 MOV    DPTR,#TM104_ENABLE
 7867:	  1E33	E0		 MOVX   A,@DPTR
 7868:	  1E34	92 E2		 MOV    MOULD_OPEN_SLOW_TM105E,C
 7869:	  1E36	F0		 MOVX   @DPTR,A
 7870:
 7871:				;--------------------------------------------------------------------------
 7872:				;    BIG PUMP O/P
 7873:				;--------------------------------------------------------------------------
 7874:				;  DO_NOT_RESET_TM_ENABLE:
 7875:

ASEM-51 V1.3                                        Copyright (c) 2002 by W.W. Heinz                                        PAGE 142



 Line  I  Addr  Code            Source

 7876:	  1E37	A2 3B		  MOV    C,MOULD_IN_OP
 7877:	  1E39	B0 23		  ANL    C,/MOULDIN_SLOW_TM09D      ;TM09D IS MOULD IN SLOW TIMER
 7878:	  1E3B	B0 4E		  ANL    C,/MOULD_IN_SLOW_IP
 7879:	  1E3D	92 7E		  MOV    RLY39,C
 7880:
 7881:	  1E3F	A2 38		  MOV    C,MOULD_CLOSE_OP        ;TM10D IS MOULD CLOSE SLOW TIMER
 7882:	  1E41	B0 25		  ANL    C,/MOULDCLOSE_SLOW_TM10D
 7883:	  1E43	B0 56		  ANL    C,/CLS_SLWDN_IP
 7884:	  1E45	72 7E		  ORL    C,RLY39
 7885:	  1E47	92 7E		  MOV    RLY39,C
 7886:
 7887:	  1E49	A2 3C		  MOV    C,MOULD_OUT_OP
 7888:	  1E4B	B0 27		  ANL    C,/MOULDOUT_SLOW_TM11D      ;RLY18 IS MOULD OUT SLOW
 7889:	  1E4D	B0 4F		  ANL    C,/MOULD_OUT_SLOW_IP
 7890:	  1E4F	72 7E		  ORL    C,RLY39
 7891:				;  ORL    C,MOULD_OPEN_OP
 7892:	  1E51	92 7E		  MOV    RLY39,C
 7893:
 7894:	  1E53	A2 39		  MOV    C,MOULD_OPEN_OP
 7895:	  1E55	90 5F C6	  MOV    DPTR,#TM104_ENABLE
 7896:	  1E58	E0		  MOVX   A,@DPTR
 7897:	  1E59	B0 E3		  ANL    C,/MOULD_OPEN_SLOW_TM105D
 7898:	  1E5B	72 7E		  ORL    C,RLY39
 7899:	  1E5D	92 7E		  MOV    RLY39,C
 7900:
 7901:
 7902:
 7903:	  1E5F	A2 3A		  MOV    C,BLOW_PINDN_OP
 7904:	  1E61	B0 45		  ANL    C,/PINDN_SLOW_TM102D
 7905:	  1E63	90 5F 40	  MOV    DPTR,#RLY512_519
 7906:	  1E66	E0		  MOVX   A,@DPTR
 7907:	  1E67	82 E0		  ANL    C,BLOW_PIN_HYDRA
 7908:	  1E69	72 7E		  ORL    C,RLY39
 7909:	  1E6B	92 7E		  MOV    RLY39,C
 7910:				 ;------------------------------------------VINAYAK
 7911:	  1E6D	90 5F 44	  MOV    DPTR,#RLY544_551
 7912:	  1E70	E0		  MOVX   A,@DPTR
 7913:	  1E71	A2 E3		  MOV    C,BIG_PUMP_PB
 7914:	  1E73	B0 5A		  ANL    C,/AUTO_MAN_SEL
 7915:	  1E75	72 7E		  ORL    C,RLY39
 7916:	  1E77	92 7E		  MOV    RLY39,C
 7917:				 ;--------------------------------------------VINAYAK
 7918:
 7919:	  1E79	A2 3D		  MOV    C,BLOW_PINUP_OP
 7920:	  1E7B	B0 47		  ANL    C,/PINUP_SLOW_TM103D
 7921:	  1E7D	90 5F 40	  MOV    DPTR,#RLY512_519
 7922:	  1E80	E0		  MOVX   A,@DPTR
 7923:	  1E81	82 E0		  ANL    C,BLOW_PIN_HYDRA
 7924:	  1E83	72 7E		  ORL    C,RLY39
 7925:
 7926:	  1E85	92 61		  MOV    BIGPUMP_OP,C         ;OUT14 IS BIG PUMP
 7927:
 7928:				;---------------------------------------------------------------------------
 7929:				;  SMALL  PUMP
 7930:				;---------------------------------------------------------------------------
 7931:	  1E87	A2 38		  MOV    C,MOULD_CLOSE_OP

ASEM-51 V1.3                                        Copyright (c) 2002 by W.W. Heinz                                        PAGE 143



 Line  I  Addr  Code            Source

 7932:	  1E89	B0 41		  ANL    C,/MLD_CLS_TM_D
 7933:	  1E8B	72 39		  ORL    C,MOULD_OPEN_OP
 7934:	  1E8D	72 3C		  ORL    C,MOULD_OUT_OP
 7935:	  1E8F	72 3B		  ORL    C,MOULD_IN_OP
 7936:	  1E91	92 7E		  MOV    RLY39,C
 7937:				;--------------------------------------------- VINAYAK
 7938:	  1E93	90 5F 44	  MOV    DPTR,#RLY544_551
 7939:	  1E96	E0		  MOVX   A,@DPTR
 7940:	  1E97	A2 E2		  MOV    C,SMALL_PUMP_PB
 7941:	  1E99	B0 5A		  ANL    C,/AUTO_MAN_SEL
 7942:	  1E9B	72 7E		  ORL    C,RLY39
 7943:	  1E9D	92 7E		  MOV    RLY39,C
 7944:				;---------------------------------------------- VINAYAK
 7945:	  1E9F	A2 3D		  MOV    C,BLOW_PINUP_OP
 7946:	  1EA1	72 3A		  ORL    C,BLOW_PINDN_OP
 7947:	  1EA3	90 5F 40	  MOV    DPTR,#RLY512_519
 7948:	  1EA6	E0		  MOVX   A,@DPTR
 7949:	  1EA7	82 E0		  ANL    C,BLOW_PIN_HYDRA
 7950:	  1EA9	72 7E		  ORL    C,RLY39
 7951:
 7952:	  1EAB	E5 30		  MOV    A,OUT16_23
 7953:	  1EAD	72 E6		  ORL    C,THIN_OP
 7954:	  1EAF	72 E7		  ORL    C,THICK_OP
 7955:
 7956:	  1EB1	92 60		  MOV	   SMALLPUMP_OP,C	                 ;OUT13 IS SMALL PUMP
 7957:				;------------------------------------------------------------------------
 7958:				;PARISON PROGRAM STARTS FROM HERE
 7959:				;------------------------------------------------------------------------
 7960:
 7961:	  1EB3	A2 16		  MOV     C,CUTTER_ON_TM03E
 7962:	  1EB5	B0 17		  ANL     C,/CUTTER_ON_TM03D
 7963:	  1EB7	50 04		  JNC     DONT_CLEAR_PARISON_R
 7964:	  1EB9	C2 6C		  CLR     PARISON_START
 7965:	  1EBB	80 08		  SJMP    START_PARISON_TIMERS
 7966:
 7967:	  1EBD			  DONT_CLEAR_PARISON_R:
 7968:
 7969:	  1EBD	A2 17		  MOV     C,CUTTER_ON_TM03D
 7970:	  1EBF	B0 4D		  ANL     C,/MOULD_OUT_IP
 7971:	  1EC1	50 02		  JNC     DONT_SET_PARISON_R
 7972:	  1EC3	D2 6C		  SETB    PARISON_START
 7973:
 7974:	  1EC5			  DONT_SET_PARISON_R:
 7975:
 7976:				;-----------------------------------
 7977:	  1EC5			  START_PARISON_TIMERS:
 7978:
 7979:	  1EC5	A2 6C		  MOV     C,PARISON_START
 7980:	  1EC7	82 5A		  ANL     C,AUTO_MAN_SEL
 7981:	  1EC9	82 6D		  ANL     C,PARISON_SEL
 7982:	  1ECB	90 5F CA	  MOV     DPTR,#TM120_ENABLE_1
 7983:	  1ECE	E0		  MOVX    A,@DPTR
 7984:	  1ECF	92 E0		  MOV     PARISON1_DLY_E,C
 7985:	  1ED1	F0		  MOVX    @DPTR,A
 7986:
 7987:	  1ED2	A2 6C		  MOV     C,PARISON_START

ASEM-51 V1.3                                        Copyright (c) 2002 by W.W. Heinz                                        PAGE 144



 Line  I  Addr  Code            Source

 7988:	  1ED4	82 5A		  ANL     C,AUTO_MAN_SEL
 7989:	  1ED6	82 6D		  ANL     C,PARISON_SEL
 7990:	  1ED8	90 5F CA	  MOV     DPTR,#TM120_ENABLE_1
 7991:	  1EDB	E0		  MOVX    A,@DPTR
 7992:	  1EDC	82 E1		  ANL     C,PARISON1_DLY_D
 7993:	  1EDE	92 E2		  MOV     PARISON1_TIM_E,C
 7994:	  1EE0	F0		  MOVX    @DPTR,A
 7995:				;-------------------------
 7996:	  1EE1	90 5F CA	  MOV     DPTR,#TM120_ENABLE_1
 7997:	  1EE4	E0		  MOVX    A,@DPTR
 7998:	  1EE5	A2 E3		  MOV     C,PARISON1_TIM_D
 7999:	  1EE7	82 5A		  ANL     C,AUTO_MAN_SEL
 8000:	  1EE9	82 6D		  ANL     C,PARISON_SEL
 8001:	  1EEB	92 E4		  MOV     PARISON2_DLY_E,C
 8002:	  1EED	F0		  MOVX    @DPTR,A
 8003:
 8004:	  1EEE	A2 5A		  MOV     C,AUTO_MAN_SEL
 8005:	  1EF0	82 6D		  ANL     C,PARISON_SEL
 8006:	  1EF2	90 5F CA	  MOV     DPTR,#TM120_ENABLE_1
 8007:	  1EF5	E0		  MOVX    A,@DPTR
 8008:	  1EF6	82 E5		  ANL     C,PARISON2_DLY_D
 8009:	  1EF8	92 E6		  MOV     PARISON2_TIM_E,C
 8010:	  1EFA	F0		  MOVX    @DPTR,A
 8011:				;--------------------------
 8012:	  1EFB	90 5F CA	  MOV     DPTR,#TM120_ENABLE_1
 8013:	  1EFE	E0		  MOVX    A,@DPTR
 8014:	  1EFF	A2 E7		  MOV     C,PARISON2_TIM_D
 8015:	  1F01	82 5A		  ANL     C,AUTO_MAN_SEL
 8016:	  1F03	82 6D		  ANL     C,PARISON_SEL
 8017:	  1F05	90 5F CB	  MOV     DPTR,#TM124_ENABLE_1
 8018:	  1F08	E0		  MOVX    A,@DPTR
 8019:	  1F09	92 E0		  MOV     PARISON3_DLY_E,C
 8020:	  1F0B	F0		  MOVX    @DPTR,A
 8021:
 8022:
 8023:	  1F0C	A2 5A		  MOV     C,AUTO_MAN_SEL
 8024:	  1F0E	82 6D		  ANL     C,PARISON_SEL
 8025:	  1F10	90 5F CB	  MOV     DPTR,#TM124_ENABLE_1
 8026:	  1F13	E0		  MOVX    A,@DPTR
 8027:	  1F14	82 E1		  ANL     C,PARISON3_DLY_D
 8028:	  1F16	92 E2		  MOV     PARISON3_TIM_E,C
 8029:	  1F18	F0		  MOVX    @DPTR,A
 8030:				;------------------------------------
 8031:	  1F19	90 5F CB	  MOV     DPTR,#TM124_ENABLE_1
 8032:	  1F1C	E0		  MOVX    A,@DPTR
 8033:	  1F1D	A2 E3		  MOV     C,PARISON3_TIM_D
 8034:	  1F1F	82 5A		  ANL     C,AUTO_MAN_SEL
 8035:	  1F21	82 6D		  ANL     C,PARISON_SEL
 8036:	  1F23	90 5F CB	  MOV     DPTR,#TM124_ENABLE_1
 8037:	  1F26	E0		  MOVX    A,@DPTR
 8038:	  1F27	92 E4		  MOV     PARISON4_DLY_E,C
 8039:	  1F29	F0		  MOVX    @DPTR,A
 8040:
 8041:
 8042:	  1F2A	A2 5A		  MOV     C,AUTO_MAN_SEL
 8043:	  1F2C	82 6D		  ANL     C,PARISON_SEL

ASEM-51 V1.3                                        Copyright (c) 2002 by W.W. Heinz                                        PAGE 145



 Line  I  Addr  Code            Source

 8044:	  1F2E	90 5F CB	  MOV     DPTR,#TM124_ENABLE_1
 8045:	  1F31	E0		  MOVX    A,@DPTR
 8046:	  1F32	82 E5		  ANL     C,PARISON4_DLY_D
 8047:	  1F34	92 E6		  MOV     PARISON4_TIM_E,C
 8048:	  1F36	F0		  MOVX    @DPTR,A
 8049:				;------------------------------------
 8050:	  1F37	90 5F CA	  MOV     DPTR,#TM120_ENABLE_1
 8051:	  1F3A	E0		  MOVX    A,@DPTR
 8052:	  1F3B	A2 E1		  MOV     C,PARISON1_DLY_D
 8053:	  1F3D	B0 E3		  ANL     C,/PARISON1_TIM_D
 8054:	  1F3F	82 5A		  ANL     C,AUTO_MAN_SEL
 8055:	  1F41	82 6D		  ANL     C,PARISON_SEL
 8056:	  1F43	92 7E		  MOV     RLY39,C
 8057:
 8058:	  1F45	90 5F CB	  MOV     DPTR,#TM124_ENABLE_1
 8059:	  1F48	E0		  MOVX    A,@DPTR
 8060:	  1F49	A2 E1		  MOV     C,PARISON3_DLY_D
 8061:	  1F4B	B0 E3		  ANL     C,/PARISON3_TIM_D
 8062:	  1F4D	82 5A		  ANL     C,AUTO_MAN_SEL
 8063:	  1F4F	82 6D		  ANL     C,PARISON_SEL
 8064:	  1F51	72 7E		  ORL     C,RLY39
 8065:	  1F53	92 7E		  MOV     RLY39,C
 8066:
 8067:	  1F55	90 5F 44	  MOV     DPTR,#RLY544_551
 8068:	  1F58	E0		  MOVX    A,@DPTR
 8069:	  1F59	A2 E5		  MOV     C,PARISON_THICK_PB
 8070:	  1F5B	B0 5A		  ANL     C,/AUTO_MAN_SEL
 8071:	  1F5D	72 7E		  ORL     C,RLY39
 8072:
 8073:	  1F5F	E5 30		  MOV     A,OUT16_23
 8074:	  1F61	92 E7		  MOV     THICK_OP,C
 8075:	  1F63	F5 30		  MOV     OUT16_23,A                                 ;PARISON_THICK_OP,C
 8076:
 8077:				;-----------------------------------
 8078:
 8079:	  1F65	90 5F CA	  MOV     DPTR,#TM120_ENABLE_1
 8080:	  1F68	E0		  MOVX    A,@DPTR
 8081:	  1F69	A2 E5		  MOV     C,PARISON2_DLY_D
 8082:	  1F6B	B0 E7		  ANL     C,/PARISON2_TIM_D
 8083:	  1F6D	82 5A		  ANL     C,AUTO_MAN_SEL
 8084:	  1F6F	82 6D		  ANL     C,PARISON_SEL
 8085:	  1F71	92 7E		  MOV     RLY39,C
 8086:
 8087:	  1F73	90 5F CB	  MOV     DPTR,#TM124_ENABLE_1
 8088:	  1F76	E0		  MOVX    A,@DPTR
 8089:	  1F77	A2 E5		  MOV     C,PARISON4_DLY_D
 8090:	  1F79	B0 E7		  ANL     C,/PARISON4_TIM_D
 8091:	  1F7B	82 5A		  ANL     C,AUTO_MAN_SEL
 8092:	  1F7D	82 6D		  ANL     C,PARISON_SEL
 8093:	  1F7F	72 7E		  ORL     C,RLY39
 8094:	  1F81	92 7E		  MOV     RLY39,C
 8095:
 8096:	  1F83	90 5F 44	  MOV     DPTR,#RLY544_551
 8097:	  1F86	E0		  MOVX    A,@DPTR
 8098:	  1F87	A2 E4		  MOV     C,PARISON_THIN_PB
 8099:	  1F89	B0 5A		  ANL     C,/AUTO_MAN_SEL

ASEM-51 V1.3                                        Copyright (c) 2002 by W.W. Heinz                                        PAGE 146



 Line  I  Addr  Code            Source

 8100:	  1F8B	72 7E		  ORL     C,RLY39
 8101:
 8102:	  1F8D	E5 30		  MOV     A,OUT16_23
 8103:	  1F8F	92 E6		  MOV     THIN_OP,C
 8104:	  1F91	F5 30		  MOV     OUT16_23,A
 8105:
 8106:				;  RET
 8107:
 8108:
 8109:
 8110:				;-------------------------------------------------------------------------
 8111:				;EXTRUDER MOTOR ON / OFF
 8112:				;--------------------------------------------------------------------------
 8113:				 ; MOV    DPTR,#RLY536_543
 8114:				;  MOVX   A,@DPTR
 8115:				 ; MOV    C,EXTRUDER_ON                      ;RLY17
 8116:	  1F93	90 5F C3	  MOV    DPTR,#TM40_ENABLE_1
 8117:	  1F96	E0		  MOVX   A,@DPTR
 8118:	  1F97	A2 E7		  MOV    C,TM43D
 8119:	  1F99	B3		  CPL    C
 8120:	  1F9A	92 67		  MOV    EXTRUDER_OP,C
 8121:				  ;JNC    CHK_EXTRUDER_OFF
 8122:				  ;
 8123:				 ; SETB   EXTRUDER_OP
 8124:				 ; SJMP   SET_EXTRUDER_DONE                                               ;MOV	   EXTRUDER_OP,C
					;;OUT10 IS EXTRUDER MOTOR O/P
 8125:
 8126:				;  CHK_EXTRUDER_OFF:
 8127:
 8128:				;  MOV    DPTR,#RLY536_543
 8129:				;  MOVX   A,@DPTR
 8130:				;  JNB    EXTRUDER_OFF,SET_EXTRUDER_DONE
 8131:				;  CLR    EXTRUDER_OP
 8132:
 8133:	  1F9C			  SET_EXTRUDER_DONE:
 8134:
 8135:				;----------------------------------------------------------------------
 8136:	  1F9C	20 16 02	  JB    CUTTER_ON_TM03E,CHECK_AUTO_MAN_RESET
 8137:	  1F9F	C2 5F		  CLR   RLY08
 8138:
 8139:				;----------------------------------------------------------------------
 8140:				;REST FLAGS IN MANUAL MODE
 8141:				;----------------------------------------------------------------------
 8142:	  1FA1			   CHECK_AUTO_MAN_RESET:
 8143:
 8144:	  1FA1	20 5A 14	   JB    AUTO_MAN_SEL,CHECK_EMERGENCY
 8145:	  1FA4	C2 10		   CLR   MOULD_IN_TM00E
 8146:	  1FA6	C2 5E		   CLR   RLY07
 8147:	  1FA8	C2 5C		   CLR   B_HOME_POSN
 8148:	  1FAA	C2 14		   CLR   CUTTER_DLY_TM02E
 8149:	  1FAC	C2 12		   CLR   MOULD_CLOSE_DLY_TM01E
 8150:	  1FAE	C2 30		   CLR   TM16E
 8151:	  1FB0	C2 68		   CLR   MOULD_IN_OVER
 8152:	  1FB2	C2 69		   CLR   MOULD_CLOSE_OVER
 8153:	  1FB4	C2 6A		   CLR   MOULD_OUT_OVER
 8154:	  1FB6	C2 2C		   CLR   MOULDIN_DLY_TM14E

ASEM-51 V1.3                                        Copyright (c) 2002 by W.W. Heinz                                        PAGE 147



 Line  I  Addr  Code            Source

 8155:
 8156:
 8157:				;------------------------------------------------------------------------
 8158:				;RESET AUTO_MANUAL WHEN EMERGENCY IS ON
 8159:				;------------------------------------------------------------------------
 8160:	  1FB8			  CHECK_EMERGENCY:
 8161:	  1FB8			  CHK_LOW_LIMIT:
 8162:
 8163:	  1FB8	22		  RET
 8164:				;----------------------------------------------------------------------------
 8165:				;LADDER ENDS HERE
 8166:				;---------------------------------------------------------------------------
 8167:
 8168:				; END
 8169:
 8170:				;-----------------------------------------------------------------
 8171:				;TEMPERATUR DISPLAY & CONTROLLING STARTS HERE
 8172:				;-----------------------------------------------------------------
 8173:	  1FB9			    ZONE_DISPLAY:
 8174:
 8175:				;-----------------------------------------------------------------------------------------
 8176:				;  ZONE 8   CALCULATION
 8177:				;-----------------------------------------------------------------------------------------
 8178:	  1FB9	E5 31		   MOV   A,A2D_CHANNEL
 8179:	  1FBB	B4 00 1E	   CJNE  A,#0,CHECK_ZONE1
 8180:
 8181:	  1FBE	90 24 21		MOV   DPTR,#ZONE1_COUNTS_L
 8182:	  1FC1	E0			MOVX	A,@DPTR
 8183:	  1FC2	FA			MOV	R2,A
 8184:	  1FC3	90 24 20	   MOV   DPTR,#ZONE1_COUNTS_H
 8185:	  1FC6	E0			MOVX	A,@DPTR
 8186:	  1FC7	54 0F			ANL	A,#0FH	;TC OPEN & TC NEG. MADE ZERO
 8187:	  1FC9	FB			MOV	R3,A
 8188:	  1FCA	78 A0			MOV	R0,#TEMP_CAL_FACTOR_LO                            ;0A0H	; * BY 14417
 8189:	  1FCC	79 18			MOV	R1,#TEMP_CAL_FACTOR_HI                                              ;24
 8190:	  1FCE	12 08 FC		LCALL	MULTIPLICATION
 8191:
 8192:	  1FD1	90 24 41	   MOV   DPTR,#ZONE8_ACT_TEMP_L                      ;CH19L
 8193:	  1FD4	EE			MOV   A,R6
 8194:	  1FD5	F0			MOVX	@DPTR,A
 8195:
 8196:	  1FD6	90 24 40		MOV   DPTR,#ZONE8_ACT_TEMP_H
 8197:	  1FD9	EF			MOV	A,R7
 8198:	  1FDA	F0			MOVX  @DPTR,A
 8199:	  1FDB	22			RET
 8200:				;------------------------------------------------------------------------------------
 8201:				;ZONE 1 TEMP. CALCULATION
 8202:				;------------------------------------------------------------------------------------
 8203:	  1FDC			   CHECK_ZONE1:
 8204:
 8205:	  1FDC	B4 01 1E	   CJNE  A,#1,CHECK_ZONE2
 8206:
 8207:	  1FDF	90 24 23		MOV   DPTR,#ZONE2_COUNTS_L           ;CH01L
 8208:	  1FE2	E0			MOVX	A,@DPTR
 8209:	  1FE3	FA			MOV	R2,A
 8210:	  1FE4	90 24 22	   MOV   DPTR,#ZONE2_COUNTS_H                                 ; CH01H

ASEM-51 V1.3                                        Copyright (c) 2002 by W.W. Heinz                                        PAGE 148



 Line  I  Addr  Code            Source

 8211:	  1FE7	E0			MOVX	A,@DPTR
 8212:	  1FE8	54 0F			ANL	A,#0FH	;TC OPEN & TC NEG. MADE ZERO
 8213:	  1FEA	FB			MOV	R3,A
 8214:	  1FEB	78 A0			MOV	R0,#TEMP_CAL_FACTOR_LO                            ;0A0H	; * BY 14417
 8215:	  1FED	79 18			MOV	R1,#TEMP_CAL_FACTOR_HI                                              ;24
 8216:	  1FEF	12 08 FC		LCALL	MULTIPLICATION
 8217:	  1FF2	90 24 43	   MOV   DPTR,#ZONE1_ACT_TEMP_L           ;CH20L
 8218:	  1FF5	EE			MOV   A,R6
 8219:	  1FF6	F0			MOVX	@DPTR,A
 8220:	  1FF7	90 24 42		MOV   DPTR,#ZONE1_ACT_TEMP_H         ;CH20H
 8221:	  1FFA	EF		   MOV	A,R7
 8222:	  1FFB	F0			MOVX  @DPTR,A
 8223:	  1FFC	22			RET
 8224:				;---------------------------------------------------------------------------------------
 8225:				;ZONE 2 TEMP. CALCULATION
 8226:				;---------------------------------------------------------------------------------------
 8227:	  1FFD			   CHECK_ZONE2:
 8228:
 8229:	  1FFD	B4 02 1E	   CJNE  A,#2,CHECK_ZONE3
 8230:
 8231:	  2000	90 24 25		MOV   DPTR,#ZONE3_COUNTS_L                  ;CH02L
 8232:	  2003	E0			MOVX	A,@DPTR
 8233:	  2004	FA			MOV	R2,A
 8234:	  2005	90 24 24	   MOV   DPTR,#ZONE3_COUNTS_H                      ;CH02H
 8235:	  2008	E0			MOVX	A,@DPTR
 8236:	  2009	54 0F			ANL	A,#0FH	;TC OPEN & TC NEG. MADE ZERO
 8237:	  200B	FB			MOV	R3,A
 8238:	  200C	78 A0			MOV	R0,#TEMP_CAL_FACTOR_LO                            ;0A0H	; * BY 14417
 8239:	  200E	79 18			MOV	R1,#TEMP_CAL_FACTOR_HI                                              ;24
 8240:	  2010	12 08 FC		LCALL	MULTIPLICATION
 8241:	  2013	90 24 45	   MOV   DPTR,#ZONE2_ACT_TEMP_L               ;CH21L
 8242:	  2016	EE			MOV   A,R6
 8243:	  2017	F0			MOVX	@DPTR,A
 8244:
 8245:	  2018	EF			MOV	A,R7
 8246:	  2019	90 24 44		MOV   DPTR,#ZONE2_ACT_TEMP_H               ;CH21H
 8247:	  201C	F0			MOVX  @DPTR,A
 8248:	  201D	22		   RET
 8249:				;--------------------------------------------------------------------------------------------
 8250:				; ZONE 3 TEMP. CALCULATION
 8251:				;--------------------------------------------------------------------------------------------
 8252:	  201E			   CHECK_ZONE3:
 8253:
 8254:	  201E	B4 03 1E	   CJNE  A,#3,CHECK_ZONE4
 8255:	  2021	90 24 27		MOV   DPTR,#ZONE4_COUNTS_L                  ;CH03L
 8256:	  2024	E0			MOVX	A,@DPTR
 8257:	  2025	FA			MOV	R2,A
 8258:	  2026	90 24 26	   MOV   DPTR,#ZONE4_COUNTS_H                    ;CH03H
 8259:	  2029	E0			MOVX	A,@DPTR
 8260:	  202A	54 0F			ANL	A,#0FH	;TC OPEN & TC NEG. MADE ZERO
 8261:	  202C	FB			MOV	R3,A
 8262:	  202D	78 A0			MOV	R0,#TEMP_CAL_FACTOR_LO                            ;0A0H	; * BY 14417
 8263:	  202F	79 18			MOV	R1,#TEMP_CAL_FACTOR_HI                                              ;24
 8264:	  2031	12 08 FC		LCALL	MULTIPLICATION
 8265:	  2034	90 24 47	   MOV   DPTR,#ZONE3_ACT_TEMP_L                 ;CH22L
 8266:	  2037	EE			MOV   A,R6

ASEM-51 V1.3                                        Copyright (c) 2002 by W.W. Heinz                                        PAGE 149



 Line  I  Addr  Code            Source

 8267:	  2038	F0			MOVX	@DPTR,A
 8268:
 8269:	  2039	EF			MOV	A,R7
 8270:	  203A	90 24 46		MOV   DPTR,#ZONE3_ACT_TEMP_H                   ;CH22H
 8271:	  203D	F0			MOVX  @DPTR,A
 8272:	  203E	22			RET
 8273:				;----------------------------------------------------------------------------
 8274:				;ZONE 4 TEMP CALCULATION
 8275:				;---------------------------------------------------------------------------
 8276:	  203F				CHECK_ZONE4:
 8277:
 8278:	  203F	B4 04 1E	   CJNE  A,#4,CHECK_ZONE5
 8279:	  2042	90 24 29		MOV   DPTR,#ZONE5_COUNTS_L                    ;CH04L
 8280:	  2045	E0			MOVX	A,@DPTR
 8281:	  2046	FA			MOV	R2,A
 8282:	  2047	90 24 28	   MOV   DPTR,#ZONE5_COUNTS_H                                  ;CH04H
 8283:	  204A	E0			MOVX	A,@DPTR
 8284:	  204B	54 0F			ANL	A,#0FH	;TC OPEN & TC NEG. MADE ZERO
 8285:	  204D	FB			MOV	R3,A
 8286:	  204E	78 A0			MOV	R0,#TEMP_CAL_FACTOR_LO                            ;0A0H	; * BY 14417
 8287:	  2050	79 18			MOV	R1,#TEMP_CAL_FACTOR_HI                                              ;24
 8288:	  2052	12 08 FC		LCALL	MULTIPLICATION
 8289:	  2055	90 24 49	   MOV   DPTR,#ZONE4_ACT_TEMP_L         ;CH23L
 8290:	  2058	EE			MOV   A,R6
 8291:	  2059	F0			MOVX	@DPTR,A
 8292:	  205A	EF			MOV	A,R7
 8293:	  205B	90 24 48		MOV   DPTR,#ZONE4_ACT_TEMP_H
 8294:	  205E	F0			MOVX  @DPTR,A
 8295:	  205F	22			RET
 8296:
 8297:				;-------------------------------------------------------------------------------------------------
 8298:				;ZONE 5 TEM. CALCULATION
 8299:				;-------------------------------------------------------------------------------------------------
 8300:	  2060			   CHECK_ZONE5:
 8301:
 8302:	  2060	B4 05 1E	   CJNE  A,#5,CHECK_ZONE6
 8303:	  2063	90 24 2B		MOV   DPTR,#ZONE6_COUNTS_L
 8304:	  2066	E0			MOVX	A,@DPTR
 8305:	  2067	FA			MOV	R2,A
 8306:	  2068	90 24 2A	   MOV   DPTR,#ZONE6_COUNTS_H
 8307:	  206B	E0			MOVX	A,@DPTR
 8308:	  206C	54 0F			ANL	A,#0FH
 8309:	  206E	FB			MOV	R3,A
 8310:	  206F	78 A0			MOV	R0,#TEMP_CAL_FACTOR_LO
 8311:	  2071	79 18			MOV	R1,#TEMP_CAL_FACTOR_HI
 8312:	  2073	12 08 FC		LCALL	MULTIPLICATION
 8313:	  2076	90 24 4B	   MOV   DPTR,#ZONE5_ACT_TEMP_L
 8314:	  2079	EE			MOV   A,R6
 8315:	  207A	F0			MOVX	@DPTR,A
 8316:	  207B	EF			MOV	A,R7
 8317:	  207C	90 24 4A		MOV   DPTR,#ZONE5_ACT_TEMP_H
 8318:	  207F	F0			MOVX  @DPTR,A
 8319:	  2080	22			RET
 8320:
 8321:				;-----------------------------------------------------------------------
 8322:				;ZONE 6 TEMP. CALCULATION

ASEM-51 V1.3                                        Copyright (c) 2002 by W.W. Heinz                                        PAGE 150



 Line  I  Addr  Code            Source

 8323:				;--------------------------------------------------------------------------------------------------
 8324:	  2081			  	CHECK_ZONE6:
 8325:
 8326:	  2081	B4 06 1E	   CJNE  A,#6,CHECK_ZONE7
 8327:
 8328:	  2084	90 24 2D	  	MOV   DPTR,#ZONE7_COUNTS_L
 8329:	  2087	E0			MOVX	A,@DPTR
 8330:	  2088	FA			MOV	R2,A
 8331:	  2089	90 24 2C	   MOV   DPTR,#ZONE7_COUNTS_H
 8332:	  208C	E0			MOVX	A,@DPTR
 8333:	  208D	54 0F			ANL	A,#0FH
 8334:	  208F	FB			MOV	R3,A
 8335:	  2090	78 A0			MOV	R0,#TEMP_CAL_FACTOR_LO
 8336:	  2092	79 18			MOV	R1,#TEMP_CAL_FACTOR_HI
 8337:	  2094	12 08 FC		LCALL	MULTIPLICATION
 8338:	  2097	90 24 4D	   MOV   DPTR,#ZONE6_ACT_TEMP_L
 8339:	  209A	EE			MOV   A,R6
 8340:	  209B	F0			MOVX	@DPTR,A
 8341:	  209C	EF			MOV	A,R7
 8342:	  209D	90 24 4C		MOV   DPTR,#ZONE6_ACT_TEMP_H
 8343:	  20A0	F0			MOVX  @DPTR,A
 8344:	  20A1	22		   RET
 8345:				;------------------------------------------------------------------------
 8346:	  20A2			   CHECK_ZONE7:
 8347:
 8348:	  20A2	90 24 2F	   MOV   DPTR,#ZONE8_COUNTS_L
 8349:	  20A5	E0			MOVX	A,@DPTR
 8350:	  20A6	FA			MOV	R2,A
 8351:	  20A7	90 24 2E	   MOV   DPTR,#ZONE8_COUNTS_H
 8352:	  20AA	E0			MOVX	A,@DPTR
 8353:	  20AB	54 0F			ANL	A,#0FH
 8354:	  20AD	FB			MOV	R3,A
 8355:	  20AE	78 A0			MOV	R0,#TEMP_CAL_FACTOR_LO
 8356:	  20B0	79 18			MOV	R1,#TEMP_CAL_FACTOR_HI
 8357:	  20B2	12 08 FC		LCALL	MULTIPLICATION
 8358:	  20B5	90 24 4F	   MOV   DPTR,#ZONE7_ACT_TEMP_L
 8359:	  20B8	EE			MOV   A,R6
 8360:	  20B9	F0			MOVX	@DPTR,A
 8361:	  20BA	EF			MOV	A,R7
 8362:	  20BB	90 24 4E		MOV   DPTR,#ZONE7_ACT_TEMP_H
 8363:	  20BE	F0			MOVX  @DPTR,A
 8364:	  20BF	22		   RET
 8365:
 8366:				;-----------------------------------------------------------------------------
 8367:
 8368:
 8369:
 8370:	  20C0			   CONTROL_TEMP:
 8371:
 8372:		N      00C8	   HEATER_CYCLE_TIME  EQU  200
 8373:		N      0004	   TEMP_DIFF_5_TO_10  EQU  04H
 8374:
 8375:	  20C0	90 10 3D	   MOV   DPTR,#BAND_L
 8376:	  20C3	E0		   MOVX  A,@DPTR
 8377:	  20C4	F5 3B		   MOV   BAND,A
 8378:

ASEM-51 V1.3                                        Copyright (c) 2002 by W.W. Heinz                                        PAGE 151



 Line  I  Addr  Code            Source

 8379:				;----------------------------------------------------------------------
 8380:				;HERE IN THIS LOGIC TOTAL CYCLE TIME IS SET BY HEATER_CYCLE_TIME
 8381:				;ACTUAL IS SUBSTRACTED FROM SET & THE RESULT IS STORED IN R6
 8382:				;R6 IS MULTIPLIED BY 40 TO GET THE ON TIME
 8383:				;OFF TIME IS CALCULATED BY SUBSTRACTING THE
 8384:				;ON TIME FROM THE TOTAL CYCLE TIME IN TMR HANDLER ROUTINE
 8385:				;IF THE TEMP DIFF IS BETWEEN 5 & 10 DEG  THE ON TIME =12SEC & OFF TIME =8 SEC
 8386:				;HENCE #3 IS LOADED DURING THE COMPARISON IN THE ROUTINE
 8387:				;----------------------------------------------------------------------
 8388:
 8389:	  20C6	90 24 42		MOV	DPTR,#ZONE1_ACT_TEMP_H
 8390:	  20C9	E0			MOVX  A,@DPTR
 8391:	  20CA	FB			MOV	R3,A
 8392:	  20CB	A3			INC	DPTR
 8393:	  20CC	E0		   MOVX  A,@DPTR
 8394:	  20CD	FA			MOV	R2,A
 8395:
 8396:	  20CE	90 10 41	   MOV   DPTR,#ZONE1_SET_L
 8397:	  20D1	E0		   MOVX  A,@DPTR
 8398:	  20D2	C3			CLR   C
 8399:	  20D3	9A			SUBB  A,R2       ;SET-ACTUAL
 8400:	  20D4	FE			MOV   R6,A
 8401:	  20D5	90 10 40	   MOV   DPTR,#ZONE1_SET_H
 8402:	  20D8	E0			MOVX  A,@DPTR
 8403:	  20D9	9B			SUBB	A,R3
 8404:
 8405:	  20DA	50 03		   JNC   TEMP_LESS_THAN_SET  ;ACTUAL TEMP IS LESS THAN SET HENCE ON TIME =0
 8406:	  20DC	C3			CLR   C
 8407:	  20DD	80 56			SJMP  HEATER1_OFF
 8408:
 8409:	  20DF				TEMP_LESS_THAN_SET:
 8410:
 8411:	  20DF	EE			MOV   A,R6
 8412:	  20E0	B5 3B 03		CJNE  A,BAND,CHECK_LESS_THAN_TEN_Z1
 8413:	  20E3	D3		   SETB  C
 8414:	  20E4	80 4F			SJMP  HEATER1_ON                       ;MULTIPLY_Z1
 8415:
 8416:	  20E6				CHECK_LESS_THAN_TEN_Z1:
 8417:
 8418:	  20E6	40 03			JC    ON_OFF_BAND_Z1
 8419:	  20E8	D3			SETB  C
 8420:	  20E9	80 4A			SJMP  HEATER1_ON
 8421:
 8422:	  20EB				ON_OFF_BAND_Z1:
 8423:				;---------------------------------------
 8424:	  20EB	90 5F C0		MOV   DPTR,#TM20_ENABLE_1
 8425:	  20EE	E0		   MOVX  A,@DPTR
 8426:	  20EF	A2 E1		   MOV   C,TM20D
 8427:	  20F1	B3		   CPL   C
 8428:	  20F2	92 E0		   MOV   TM20E,C
 8429:	  20F4	F0		   MOVX  @DPTR,A
 8430:	  20F5	30 E1 41	   JNB   TM20D,CONTROL_TEMP2
 8431:	  20F8	90 24 42	   MOV   DPTR,#ZONE1_ACT_TEMP_H
 8432:	  20FB	E0		   MOVX  A,@DPTR
 8433:	  20FC	FB		   MOV   R3,A
 8434:	  20FD	A3		   INC   DPTR

ASEM-51 V1.3                                        Copyright (c) 2002 by W.W. Heinz                                        PAGE 152



 Line  I  Addr  Code            Source

 8435:	  20FE	E0		   MOVX  A,@DPTR
 8436:	  20FF	FA		   MOV   R2,A
 8437:	  2100	90 24 CA	   MOV   DPTR,#ZONE1_PREV_H
 8438:	  2103	E0		   MOVX  A,@DPTR
 8439:	  2104	FD		   MOV   R5,A
 8440:	  2105	A3		   INC   DPTR
 8441:	  2106	E0		   MOVX  A,@DPTR
 8442:	  2107	FC		   MOV   R4,A
 8443:	  2108	12 08 61	   LCALL COMPARE
 8444:
 8445:	  210B	30 78 13	   JNB   RLY33,CHECK_INCREASING_TREND
 8446:
 8447:	  210E	90 24 42	   MOV   DPTR,#ZONE1_ACT_TEMP_H
 8448:	  2111	E0		   MOVX  A,@DPTR
 8449:	  2112	90 24 CA	   MOV   DPTR,#ZONE1_PREV_H
 8450:	  2115	F0		   MOVX  @DPTR,A
 8451:	  2116	90 24 43	   MOV   DPTR,#ZONE1_ACT_TEMP_L
 8452:	  2119	E0		   MOVX  A,@DPTR
 8453:	  211A	90 24 CB	   MOV   DPTR,#ZONE1_PREV_L
 8454:	  211D	F0		   MOVX  @DPTR,A
 8455:	  211E	D3		   SETB  C
 8456:	  211F	80 14		   SJMP  HEATER1_OFF
 8457:
 8458:	  2121			   CHECK_INCREASING_TREND:
 8459:
 8460:	  2121	30 7A 15	   JNB   RLY35,CONTROL_TEMP2
 8461:
 8462:	  2124	90 24 42	   MOV   DPTR,#ZONE1_ACT_TEMP_H
 8463:	  2127	E0		   MOVX  A,@DPTR
 8464:	  2128	90 24 CA	   MOV   DPTR,#ZONE1_PREV_H
 8465:	  212B	F0		   MOVX  @DPTR,A
 8466:	  212C	90 24 43	   MOV   DPTR,#ZONE1_ACT_TEMP_L
 8467:	  212F	E0		   MOVX  A,@DPTR
 8468:	  2130	90 24 CB	   MOV   DPTR,#ZONE1_PREV_L
 8469:	  2133	F0		   MOVX  @DPTR,A
 8470:	  2134	C3		   CLR   C
 8471:				;---------------------------------------
 8472:	  2135				HEATER1_ON:
 8473:	  2135				HEATER1_OFF:
 8474:
 8475:
 8476:	  2135	82 59			ANL   C,HEATER_ON_OFF
 8477:	  2137	92 62			MOV	HEATER1,C
 8478:
 8479:				;------------------------------------------------------------
 8480:				;TEMP CONTROL OF ZONE 2 STARTS HERE
 8481:				;------------------------------------------------------------
 8482:	  2139			   CONTROL_TEMP2:
 8483:
 8484:
 8485:	  2139	90 24 44		MOV	DPTR,#ZONE2_ACT_TEMP_H                   ;CH21H
 8486:	  213C	E0			MOVX  A,@DPTR
 8487:	  213D	F5 03			MOV	NUM2H,A
 8488:	  213F	A3			INC	DPTR
 8489:	  2140	E0		   MOVX  A,@DPTR
 8490:	  2141	F5 02			MOV	NUM2L,A

ASEM-51 V1.3                                        Copyright (c) 2002 by W.W. Heinz                                        PAGE 153



 Line  I  Addr  Code            Source

 8491:
 8492:	  2143	90 10 43	   MOV   DPTR,#ZONE2_SET_L
 8493:	  2146	E0		   MOVX  A,@DPTR
 8494:	  2147	C3			CLR   C
 8495:	  2148	9A			SUBB  A,R2
 8496:	  2149	FE			MOV   R6,A
 8497:	  214A	90 10 42	   MOV   DPTR,#ZONE2_SET_H
 8498:	  214D	E0			MOVX  A,@DPTR
 8499:	  214E	9B			SUBB	A,R3
 8500:
 8501:	  214F	50 03		   JNC   TEMP_LESS_THAN_SET_Z2  ;ACTUAL TEMP IS LESS THAN SET HENCE ON TIME =0
 8502:	  2151	C3			CLR   C
 8503:	  2152	80 3C			SJMP  HEATER2_OFF
 8504:
 8505:	  2154				TEMP_LESS_THAN_SET_Z2:
 8506:
 8507:	  2154	EE			MOV   A,R6
 8508:	  2155	B4 05 03		CJNE  A,#5,CHECK_LESS_THAN_TEN_Z2
 8509:	  2158	D3		   SETB  C
 8510:	  2159	80 35			SJMP  HEATER2_ON                       ;MULTIPLY_Z1
 8511:
 8512:	  215B				CHECK_LESS_THAN_TEN_Z2:
 8513:
 8514:	  215B	40 03			JC    ON_OFF_BAND_Z2
 8515:	  215D	D3			SETB  C
 8516:	  215E	80 30			SJMP  HEATER2_ON
 8517:
 8518:	  2160				ON_OFF_BAND_Z2:
 8519:
 8520:	  2160	12 09 31		LCALL LOOK_UP_TABLE
 8521:
 8522:
 8523:	  2163	90 24 85		MOV   DPTR,#TMS22L
 8524:	  2166	F0		   MOVX  @DPTR,A
 8525:	  2167	C3		   CLR   C
 8526:	  2168	FD		   MOV   R5,A
 8527:	  2169	74 C8		   MOV   A,#HEATER_CYCLE_TIME
 8528:	  216B	9D		   SUBB  A,R5
 8529:	  216C	90 24 87	   MOV   DPTR,#TMS23L
 8530:	  216F	F0		   MOVX  @DPTR,A
 8531:	  2170	E4		   CLR   A
 8532:	  2171	90 24 84	   MOV   DPTR,#TMS22H
 8533:	  2174	F0		   MOVX  @DPTR,A
 8534:	  2175	90 24 86	   MOV   DPTR,#TMS23H
 8535:	  2178	F0		   MOVX  @DPTR,A
 8536:
 8537:	  2179			   DO_NOT_LOAD_DATA_Z2:
 8538:
 8539:	  2179	90 5F C0	   MOV   DPTR,#TM20_ENABLE_1
 8540:	  217C	E0		   MOVX  A,@DPTR
 8541:
 8542:	  217D	A2 59		   MOV   C,HEATER_ON_OFF
 8543:	  217F	B0 E7		   ANL   C,/TM23D
 8544:	  2181	92 E4		   MOV   TM22E,C
 8545:
 8546:	  2183	A2 E5		   MOV   C,TM22D

ASEM-51 V1.3                                        Copyright (c) 2002 by W.W. Heinz                                        PAGE 154



 Line  I  Addr  Code            Source

 8547:	  2185	92 E6		   MOV   TM23E,C
 8548:	  2187	F0		   MOVX  @DPTR,A
 8549:
 8550:	  2188			   CTRL2_ZONE2:
 8551:
 8552:	  2188	90 5F C0	   MOV   DPTR,#TM20_ENABLE_1
 8553:	  218B	E0		   MOVX  A,@DPTR
 8554:
 8555:	  218C	A2 E4		   MOV	C,TM22E
 8556:	  218E	B0 E5			ANL   C,/TM22D
 8557:				;	ANL   C,HEATER_ON_OFF
 8558:
 8559:	  2190				HEATER2_ON:
 8560:	  2190				HEATER2_OFF:
 8561:
 8562:
 8563:	  2190	82 59			ANL   C,HEATER_ON_OFF
 8564:	  2192	92 63			MOV	HEATER2,C
 8565:
 8566:				;--------------------------------------------------------
 8567:				;HEATER CONTROL ZONE 3
 8568:				;--------------------------------------------------------
 8569:
 8570:	  2194	90 24 46		MOV	DPTR,#ZONE3_ACT_TEMP_H                     ;CH22H
 8571:	  2197	E0			MOVX  A,@DPTR
 8572:	  2198	F5 03			MOV	NUM2H,A
 8573:	  219A	A3			INC	DPTR
 8574:	  219B	E0		   MOVX  A,@DPTR
 8575:	  219C	F5 02			MOV	NUM2L,A
 8576:
 8577:	  219E	90 10 45	   MOV   DPTR,#ZONE3_SET_L
 8578:	  21A1	E0		   MOVX  A,@DPTR
 8579:	  21A2	C3			CLR   C
 8580:	  21A3	9A			SUBB  A,R2
 8581:	  21A4	FE			MOV   R6,A
 8582:	  21A5	90 10 44	   MOV   DPTR,#ZONE3_SET_H
 8583:	  21A8	E0			MOVX  A,@DPTR
 8584:	  21A9	9B			SUBB	A,R3
 8585:
 8586:	  21AA	50 03		   JNC   TEMP_LESS_THAN_SET_Z3  ;ACTUAL TEMP IS LESS THAN SET HENCE ON TIME =0
 8587:	  21AC	C3			CLR   C
 8588:	  21AD	80 3C			SJMP  HEATER3_OFF
 8589:
 8590:	  21AF				TEMP_LESS_THAN_SET_Z3:
 8591:
 8592:	  21AF	EE			MOV   A,R6
 8593:	  21B0	B4 05 03		CJNE  A,#5,CHECK_LESS_THAN_TEN_Z3
 8594:	  21B3	D3		   SETB  C
 8595:	  21B4	80 35			SJMP  HEATER3_ON                       ;MULTIPLY_Z1
 8596:
 8597:	  21B6				CHECK_LESS_THAN_TEN_Z3:
 8598:
 8599:	  21B6	40 03			JC    ON_OFF_BAND_Z3
 8600:	  21B8	D3			SETB  C
 8601:	  21B9	80 30			SJMP  HEATER3_ON
 8602:

ASEM-51 V1.3                                        Copyright (c) 2002 by W.W. Heinz                                        PAGE 155



 Line  I  Addr  Code            Source

 8603:	  21BB				ON_OFF_BAND_Z3:
 8604:
 8605:	  21BB	12 09 31		LCALL LOOK_UP_TABLE
 8606:
 8607:
 8608:	  21BE	90 24 89		MOV   DPTR,#TMS24L
 8609:	  21C1	F0		   MOVX  @DPTR,A
 8610:	  21C2	C3		   CLR   C
 8611:	  21C3	FD		   MOV   R5,A
 8612:	  21C4	74 C8		   MOV   A,#HEATER_CYCLE_TIME
 8613:	  21C6	9D		   SUBB  A,R5
 8614:	  21C7	90 24 8B	   MOV   DPTR,#TMS25L
 8615:	  21CA	F0		   MOVX  @DPTR,A
 8616:	  21CB	E4		   CLR   A
 8617:	  21CC	90 24 88	   MOV   DPTR,#TMS24H
 8618:	  21CF	F0		   MOVX  @DPTR,A
 8619:	  21D0	90 24 8A	   MOV   DPTR,#TMS25H
 8620:	  21D3	F0		   MOVX  @DPTR,A
 8621:
 8622:	  21D4			   DO_NOT_LOAD_DATA_Z3:
 8623:
 8624:	  21D4	90 5F C1	   MOV   DPTR,#TM24_ENABLE_1
 8625:	  21D7	E0		   MOVX  A,@DPTR
 8626:
 8627:	  21D8	A2 59		   MOV   C,HEATER_ON_OFF
 8628:	  21DA	B0 E3		   ANL   C,/TM25D
 8629:	  21DC	92 E0		   MOV   TM24E,C
 8630:
 8631:	  21DE	A2 E1		   MOV   C,TM24D
 8632:	  21E0	92 E2		   MOV   TM25E,C
 8633:	  21E2	F0		   MOVX  @DPTR,A
 8634:
 8635:
 8636:	  21E3			   CTRL2_ZONE3:
 8637:
 8638:	  21E3	90 5F C1	   MOV   DPTR,#TM24_ENABLE_1
 8639:	  21E6	E0		   MOVX  A,@DPTR
 8640:
 8641:	  21E7	A2 E0		   MOV	C,TM24E
 8642:	  21E9	B0 E1			ANL   C,/TM24D
 8643:				;	ANL   C,HEATER_ON_OFF
 8644:
 8645:	  21EB				HEATER3_ON:
 8646:	  21EB				HEATER3_OFF:
 8647:
 8648:
 8649:	  21EB	82 59		   ANL   C,HEATER_ON_OFF
 8650:	  21ED	92 64			MOV	HEATER3,C
 8651:
 8652:				;-----------------------------------------------------------------
 8653:				;ZONE 4 TEMP. CONTROL
 8654:				;-----------------------------------------------------------------
 8655:
 8656:	  21EF	90 24 48	   MOV	DPTR,#ZONE4_ACT_TEMP_H                      ;CH23H
 8657:	  21F2	E0			MOVX  A,@DPTR
 8658:	  21F3	F5 03			MOV	NUM2H,A

ASEM-51 V1.3                                        Copyright (c) 2002 by W.W. Heinz                                        PAGE 156



 Line  I  Addr  Code            Source

 8659:	  21F5	A3			INC	DPTR
 8660:	  21F6	E0		   MOVX  A,@DPTR
 8661:	  21F7	F5 02			MOV	NUM2L,A
 8662:
 8663:	  21F9	90 10 47	   MOV   DPTR,#ZONE4_SET_L
 8664:	  21FC	E0		   MOVX  A,@DPTR
 8665:	  21FD	C3			CLR   C
 8666:	  21FE	9A			SUBB  A,R2
 8667:	  21FF	FE			MOV   R6,A
 8668:	  2200	90 10 46	   MOV   DPTR,#ZONE4_SET_H
 8669:	  2203	E0			MOVX  A,@DPTR
 8670:	  2204	9B			SUBB	A,R3
 8671:
 8672:	  2205	50 03		   JNC   TEMP_LESS_THAN_SET_Z4  ;ACTUAL TEMP IS LESS THAN SET HENCE ON TIME =0
 8673:	  2207	C3			CLR   C
 8674:	  2208	80 3C			SJMP  HEATER4_OFF
 8675:
 8676:	  220A				TEMP_LESS_THAN_SET_Z4:
 8677:
 8678:	  220A	EE			MOV   A,R6
 8679:	  220B	B4 05 03		CJNE  A,#5,CHECK_LESS_THAN_TEN_Z4
 8680:	  220E	D3		   SETB  C
 8681:	  220F	80 35			SJMP  HEATER4_ON                       ;MULTIPLY_Z1
 8682:
 8683:	  2211				CHECK_LESS_THAN_TEN_Z4:
 8684:
 8685:	  2211	40 03			JC    ON_OFF_BAND_Z4
 8686:	  2213	D3			SETB  C
 8687:	  2214	80 30			SJMP  HEATER4_ON
 8688:
 8689:	  2216				ON_OFF_BAND_Z4:
 8690:
 8691:	  2216	12 09 31		LCALL LOOK_UP_TABLE
 8692:
 8693:
 8694:	  2219	90 24 8D		MOV   DPTR,#TMS26L
 8695:	  221C	F0		   MOVX  @DPTR,A
 8696:	  221D	C3		   CLR   C
 8697:	  221E	FD		   MOV   R5,A
 8698:	  221F	74 C8		   MOV   A,#HEATER_CYCLE_TIME
 8699:	  2221	9D		   SUBB  A,R5
 8700:	  2222	90 24 8F	   MOV   DPTR,#TMS27L
 8701:	  2225	F0		   MOVX  @DPTR,A
 8702:	  2226	E4		   CLR   A
 8703:	  2227	90 24 8C	   MOV   DPTR,#TMS26H
 8704:	  222A	F0		   MOVX  @DPTR,A
 8705:	  222B	90 24 8E	   MOV   DPTR,#TMS27H
 8706:	  222E	F0		   MOVX  @DPTR,A
 8707:
 8708:	  222F			   DO_NOT_LOAD_DATA_Z4:
 8709:
 8710:	  222F	90 5F C1	   MOV   DPTR,#TM24_ENABLE_1
 8711:	  2232	E0		   MOVX  A,@DPTR
 8712:
 8713:	  2233	A2 59		   MOV   C,HEATER_ON_OFF
 8714:	  2235	B0 E7		   ANL   C,/TM27D

ASEM-51 V1.3                                        Copyright (c) 2002 by W.W. Heinz                                        PAGE 157



 Line  I  Addr  Code            Source

 8715:	  2237	92 E4		   MOV   TM26E,C
 8716:
 8717:	  2239	A2 E5		   MOV   C,TM26D
 8718:	  223B	92 E6		   MOV   TM27E,C
 8719:	  223D	F0		   MOVX  @DPTR,A
 8720:
 8721:
 8722:	  223E			   CTRL2_ZONE4:
 8723:
 8724:	  223E	90 5F C1	   MOV   DPTR,#TM24_ENABLE_1
 8725:	  2241	E0		   MOVX  A,@DPTR
 8726:
 8727:	  2242	A2 E4		   MOV	C,TM26E
 8728:	  2244	B0 E5			ANL   C,/TM26D
 8729:					;
 8730:
 8731:	  2246				HEATER4_ON:
 8732:	  2246				HEATER4_OFF:
 8733:
 8734:
 8735:	  2246	82 59			ANL   C,HEATER_ON_OFF
 8736:
 8737:	  2248	92 65			MOV	HEATER4,C
 8738:
 8739:
 8740:				;--------------------------------------------------------------------------
 8741:				;ZONE 5 TEMP. CONTROL
 8742:				;---------------------------------------------------------------------------
 8743:
 8744:	  224A			   COMPARE_TEMP5:
 8745:
 8746:	  224A	90 24 4A	   MOV	DPTR,#ZONE5_ACT_TEMP_H                      ;CH23H
 8747:	  224D	E0			MOVX  A,@DPTR
 8748:	  224E	F5 03			MOV	NUM2H,A
 8749:	  2250	A3			INC	DPTR
 8750:	  2251	E0		   MOVX  A,@DPTR
 8751:	  2252	F5 02			MOV	NUM2L,A
 8752:
 8753:	  2254	90 10 49	   MOV   DPTR,#ZONE5_SET_L
 8754:	  2257	E0		   MOVX  A,@DPTR
 8755:	  2258	C3			CLR   C
 8756:	  2259	9A			SUBB  A,R2
 8757:	  225A	FE			MOV   R6,A
 8758:	  225B	90 10 48	   MOV   DPTR,#ZONE5_SET_H
 8759:	  225E	E0			MOVX  A,@DPTR
 8760:	  225F	9B			SUBB	A,R3
 8761:
 8762:	  2260	50 03		   JNC   TEMP_LESS_THAN_SET_Z5  ;ACTUAL TEMP IS LESS THAN SET HENCE ON TIME =0
 8763:	  2262	C3			CLR   C
 8764:	  2263	80 3C			SJMP  HEATER5_OFF
 8765:
 8766:	  2265				TEMP_LESS_THAN_SET_Z5:
 8767:
 8768:	  2265	EE			MOV   A,R6
 8769:	  2266	B4 05 03		CJNE  A,#5,CHECK_LESS_THAN_TEN_Z5
 8770:	  2269	D3		   SETB  C

ASEM-51 V1.3                                        Copyright (c) 2002 by W.W. Heinz                                        PAGE 158



 Line  I  Addr  Code            Source

 8771:	  226A	80 35			SJMP  HEATER5_ON                       ;MULTIPLY_Z1
 8772:
 8773:	  226C				CHECK_LESS_THAN_TEN_Z5:
 8774:
 8775:	  226C	40 03			JC    ON_OFF_BAND_Z5
 8776:	  226E	D3			SETB  C
 8777:	  226F	80 30			SJMP  HEATER5_ON
 8778:
 8779:	  2271				ON_OFF_BAND_Z5:
 8780:
 8781:	  2271	12 09 31		LCALL LOOK_UP_TABLE
 8782:
 8783:
 8784:	  2274	90 24 A1		MOV   DPTR,#TMS28L
 8785:	  2277	F0		   MOVX  @DPTR,A
 8786:	  2278	C3		   CLR   C
 8787:	  2279	FD		   MOV   R5,A
 8788:	  227A	74 C8		   MOV   A,#HEATER_CYCLE_TIME
 8789:	  227C	9D		   SUBB  A,R5
 8790:	  227D	90 24 A3	   MOV   DPTR,#TMS29L
 8791:	  2280	F0		   MOVX  @DPTR,A
 8792:	  2281	E4		   CLR   A
 8793:	  2282	90 24 A0	   MOV   DPTR,#TMS28H
 8794:	  2285	F0		   MOVX  @DPTR,A
 8795:	  2286	90 24 A2	   MOV   DPTR,#TMS29H
 8796:	  2289	F0		   MOVX  @DPTR,A
 8797:
 8798:	  228A			   DO_NOT_LOAD_DATA_Z5:
 8799:
 8800:	  228A	90 5F C2	   MOV   DPTR,#TM28_ENABLE_1
 8801:	  228D	E0		   MOVX  A,@DPTR
 8802:
 8803:	  228E	A2 59		   MOV   C,HEATER_ON_OFF
 8804:	  2290	B0 E3		   ANL   C,/TM29D
 8805:	  2292	92 E0		   MOV   TM28E,C
 8806:
 8807:	  2294	A2 E1		   MOV   C,TM28D
 8808:	  2296	92 E2		   MOV   TM29E,C
 8809:	  2298	F0		   MOVX  @DPTR,A
 8810:
 8811:
 8812:	  2299			   CTRL2_ZONE5:
 8813:
 8814:	  2299	90 5F C2	   MOV   DPTR,#TM28_ENABLE_1
 8815:	  229C	E0		   MOVX  A,@DPTR
 8816:
 8817:	  229D	A2 E0		   MOV	C,TM28E
 8818:	  229F	B0 E1			ANL   C,/TM28D
 8819:
 8820:	  22A1				HEATER5_ON:
 8821:	  22A1				HEATER5_OFF:
 8822:
 8823:
 8824:	  22A1	82 59			ANL   C,HEATER_ON_OFF
 8825:	  22A3	92 66			MOV	HEATER5,C
 8826:				;-----------------------------------------------------------

ASEM-51 V1.3                                        Copyright (c) 2002 by W.W. Heinz                                        PAGE 159



 Line  I  Addr  Code            Source

 8827:				;ZONE6 TEMP. CONTROL
 8828:				;-----------------------------------------------------------
 8829:
 8830:	  22A5	90 24 4C	   MOV	DPTR,#ZONE6_ACT_TEMP_H
 8831:	  22A8	E0			MOVX  A,@DPTR
 8832:	  22A9	F5 03			MOV	NUM2H,A
 8833:	  22AB	A3			INC	DPTR
 8834:	  22AC	E0		   MOVX  A,@DPTR
 8835:	  22AD	F5 02			MOV	NUM2L,A
 8836:
 8837:	  22AF	90 10 4B	   MOV   DPTR,#ZONE6_SET_L
 8838:	  22B2	E0		   MOVX  A,@DPTR
 8839:	  22B3	C3			CLR   C
 8840:	  22B4	9A			SUBB  A,R2
 8841:	  22B5	FE			MOV   R6,A
 8842:	  22B6	90 10 4A	   MOV   DPTR,#ZONE6_SET_H
 8843:	  22B9	E0			MOVX  A,@DPTR
 8844:	  22BA	9B			SUBB	A,R3
 8845:
 8846:	  22BB	50 03		   JNC   TEMP_LESS_THAN_SET_Z6  ;ACTUAL TEMP IS LESS THAN SET HENCE ON TIME =0
 8847:	  22BD	C3			CLR   C
 8848:	  22BE	80 3C			SJMP  HEATER6_OFF
 8849:
 8850:	  22C0				TEMP_LESS_THAN_SET_Z6:
 8851:
 8852:	  22C0	EE			MOV   A,R6
 8853:	  22C1	B4 05 03		CJNE  A,#5,CHECK_LESS_THAN_TEN_Z6
 8854:	  22C4	D3		   SETB  C
 8855:	  22C5	80 35			SJMP  HEATER6_ON
 8856:
 8857:	  22C7				CHECK_LESS_THAN_TEN_Z6:
 8858:
 8859:	  22C7	40 03			JC    ON_OFF_BAND_Z6
 8860:	  22C9	D3			SETB  C
 8861:	  22CA	80 30			SJMP  HEATER6_ON
 8862:
 8863:	  22CC				ON_OFF_BAND_Z6:
 8864:
 8865:	  22CC	12 09 31		LCALL LOOK_UP_TABLE
 8866:
 8867:
 8868:	  22CF	90 24 A9		MOV   DPTR,#TMS32L
 8869:	  22D2	F0		   MOVX  @DPTR,A
 8870:	  22D3	C3		   CLR   C
 8871:	  22D4	FD		   MOV   R5,A
 8872:	  22D5	74 C8		   MOV   A,#HEATER_CYCLE_TIME
 8873:	  22D7	9D		   SUBB  A,R5
 8874:	  22D8	90 24 AB	   MOV   DPTR,#TMS33L
 8875:	  22DB	F0		   MOVX  @DPTR,A
 8876:	  22DC	E4		   CLR   A
 8877:	  22DD	90 24 A8	   MOV   DPTR,#TMS32H
 8878:	  22E0	F0		   MOVX  @DPTR,A
 8879:	  22E1	90 24 AA	   MOV   DPTR,#TMS33H
 8880:	  22E4	F0		   MOVX  @DPTR,A
 8881:
 8882:	  22E5			   DO_NOT_LOAD_DATA_Z6:

ASEM-51 V1.3                                        Copyright (c) 2002 by W.W. Heinz                                        PAGE 160



 Line  I  Addr  Code            Source

 8883:
 8884:	  22E5	90 5F C7	   MOV   DPTR,#TM32_ENABLE_1
 8885:	  22E8	E0		   MOVX  A,@DPTR
 8886:
 8887:	  22E9	A2 59		   MOV   C,HEATER_ON_OFF
 8888:	  22EB	B0 E3		   ANL   C,/TM33D
 8889:	  22ED	92 E0		   MOV   TM32E,C
 8890:
 8891:	  22EF	A2 E1		   MOV   C,TM32D
 8892:	  22F1	92 E2		   MOV   TM33E,C
 8893:	  22F3	F0		   MOVX  @DPTR,A
 8894:
 8895:	  22F4			   CTRL2_ZONE6:
 8896:
 8897:	  22F4	90 5F C7	   MOV   DPTR,#TM32_ENABLE_1
 8898:	  22F7	E0		   MOVX  A,@DPTR
 8899:
 8900:	  22F8	A2 E0		   MOV	C,TM32E
 8901:	  22FA	B0 E1			ANL   C,/TM32D
 8902:
 8903:	  22FC			   HEATER6_ON:
 8904:	  22FC				HEATER6_OFF:
 8905:
 8906:	  22FC	82 59			ANL   C,HEATER_ON_OFF
 8907:
 8908:	  22FE	E5 30		   MOV   A,OUT16_23
 8909:	  2300	92 E4			MOV	HEATER6,C
 8910:	  2302	F5 30		   MOV   OUT16_23,A
 8911:	  2304	22			RET
 8912:
 8913:				;-----------------------------------------------------------
 8914:				;LOW LIMIT COMPARISON FOR EXTRUDER MOTOOR
 8915:				;<NUM2H><NUM2L> - <NUM1H><NUM1L>
 8916:				;-----------------------------------------------------------
 8917:				;ZONE 1 LOW LIMIT CHECK
 8918:				;------------------------------------------------------------
 8919:	  2305			   LOW_LIMIT_CHK:
 8920:
 8921:	  2305	90 10 3F		MOV   DPTR,#LOW_LIMIT_L
 8922:	  2308	E0			MOVX  A,@DPTR
 8923:	  2309	FD			MOV   R5,A
 8924:	  230A	90 10 41		MOV   DPTR,#ZONE1_SET_L
 8925:	  230D	E0		   MOVX	A,@DPTR
 8926:	  230E	C3			CLR	C
 8927:	  230F	9D			SUBB	A,R5
 8928:	  2310	F5 04			MOV	NUM1L,A
 8929:	  2312	90 10 40		MOV   DPTR,#ZONE1_SET_H
 8930:	  2315	E0			MOVX	A,@DPTR
 8931:	  2316	94 00			SUBB	A,#0
 8932:	  2318	50 04		   JNC   TEMP_SET1_OK
 8933:	  231A	C2 70		   CLR   LOW_LIM_Z1
 8934:	  231C	80 13		   SJMP  CHK_LIMIT_ZONE2
 8935:
 8936:	  231E			   TEMP_SET1_OK:
 8937:
 8938:	  231E	F5 05			MOV	NUM1H,A

ASEM-51 V1.3                                        Copyright (c) 2002 by W.W. Heinz                                        PAGE 161



 Line  I  Addr  Code            Source

 8939:	  2320	90 24 44		MOV   DPTR,#ZONE2_ACT_TEMP_H
 8940:	  2323	E0			MOVX  A,@DPTR
 8941:	  2324	F5 03			MOV	NUM2H,A
 8942:	  2326	A3			INC	DPTR
 8943:	  2327	E0		   MOVX  A,@DPTR
 8944:	  2328	F5 02			MOV	NUM2L,A
 8945:	  232A	12 08 61		LCALL	COMPARE
 8946:	  232D	A2 78			MOV	C,RLY33               ;RLY43 IS SET IF (CURRENT TEMP) < (SET POINT - LOW LIMIT)
 8947:	  232F	92 70			MOV	LOW_LIM_Z1,C
 8948:					             ;SET RLY28 IF TEMP IS BELOW LOW LIMIT
 8949:				;-----------------------------------------------------------
 8950:				;ZONE 2 LOW LIMIT CHECK
 8951:				;-----------------------------------------------------------
 8952:	  2331			   CHK_LIMIT_ZONE2:
 8953:
 8954:	  2331	90 10 3F		MOV   DPTR,#LOW_LIMIT_L
 8955:	  2334	E0			MOVX  A,@DPTR
 8956:	  2335	FD			MOV   R5,A
 8957:	  2336	90 10 43		MOV   DPTR,#ZONE2_SET_L
 8958:	  2339	E0		   MOVX	A,@DPTR
 8959:	  233A	C3			CLR	C
 8960:	  233B	9D			SUBB	A,R5
 8961:	  233C	F5 04			MOV	NUM1L,A
 8962:	  233E	90 10 42	   MOV   DPTR,#ZONE2_SET_H
 8963:	  2341	E0			MOVX	A,@DPTR
 8964:	  2342	94 00			SUBB	A,#0
 8965:	  2344	50 04		   JNC   TEMP_SET2_OK
 8966:	  2346	C2 71		   CLR   LOW_LIM_Z2
 8967:	  2348	80 13		   SJMP  CHK_LIMIT_ZONE3
 8968:
 8969:	  234A			   TEMP_SET2_OK:
 8970:
 8971:	  234A	F5 05			MOV	NUM1H,A
 8972:	  234C	90 24 44		MOV   DPTR,#CH21H
 8973:	  234F	E0			MOVX  A,@DPTR
 8974:	  2350	F5 03			MOV	NUM2H,A
 8975:	  2352	A3			INC	DPTR
 8976:	  2353	E0		   MOVX  A,@DPTR
 8977:	  2354	F5 02			MOV	NUM2L,A
 8978:	  2356	12 08 61		LCALL	COMPARE
 8979:	  2359	A2 78			MOV	C,RLY33               ;RLY43 IS SET IF (CURRENT TEMP) < (SET POINT - LOW LIMIT)
 8980:	  235B	92 71			MOV	LOW_LIM_Z2,C
 8981:				;--------------------------------------------------------
 8982:				;ZONE 3 LOW LIMIT CHECK
 8983:				;--------------------------------------------------------
 8984:	  235D			   CHK_LIMIT_ZONE3:
 8985:
 8986:	  235D	90 10 3F		MOV   DPTR,#LOW_LIMIT_L
 8987:	  2360	E0			MOVX  A,@DPTR
 8988:	  2361	FD			MOV   R5,A
 8989:	  2362	90 10 45		MOV   DPTR,#ZONE3_SET_L
 8990:	  2365	E0		   MOVX	A,@DPTR
 8991:	  2366	C3			CLR	C
 8992:	  2367	9D			SUBB	A,R5
 8993:	  2368	F5 04			MOV	NUM1L,A
 8994:	  236A	90 10 44	   MOV   DPTR,#ZONE3_SET_H

ASEM-51 V1.3                                        Copyright (c) 2002 by W.W. Heinz                                        PAGE 162



 Line  I  Addr  Code            Source

 8995:	  236D	E0			MOVX	A,@DPTR
 8996:	  236E	94 00			SUBB	A,#0
 8997:	  2370	50 04		   JNC   TEMP_SET3_OK
 8998:	  2372	C2 72		   CLR   LOW_LIM_Z3
 8999:	  2374	80 13		   SJMP  CHK_LIMIT_ZONE4
 9000:
 9001:	  2376			   TEMP_SET3_OK:
 9002:
 9003:
 9004:	  2376	F5 05			MOV	NUM1H,A
 9005:	  2378	90 24 46		MOV   DPTR,#CH22H
 9006:	  237B	E0			MOVX  A,@DPTR
 9007:	  237C	F5 03			MOV	NUM2H,A
 9008:	  237E	A3			INC	DPTR
 9009:	  237F	E0		   MOVX  A,@DPTR
 9010:	  2380	F5 02			MOV	NUM2L,A
 9011:	  2382	12 08 61		LCALL	COMPARE
 9012:	  2385	A2 78			MOV	C,RLY33               ;RLY33 IS SET IF (CURRENT TEMP) < (SET POINT - LOW LIMIT)
 9013:	  2387	92 72			MOV	LOW_LIM_Z3,C
 9014:
 9015:
 9016:				;----------------------------------------------------------
 9017:				;ZONE 4 LOW LIMIT CHECK
 9018:				;-----------------------------------------------------------
 9019:	  2389				CHK_LIMIT_ZONE4:
 9020:
 9021:	  2389	90 10 3F		MOV   DPTR,#LOW_LIMIT_L
 9022:	  238C	E0			MOVX  A,@DPTR
 9023:	  238D	FD			MOV   R5,A
 9024:	  238E	90 10 47		MOV   DPTR,#ZONE4_SET_L
 9025:	  2391	E0		   MOVX	A,@DPTR
 9026:	  2392	C3			CLR	C
 9027:	  2393	9D			SUBB	A,R5
 9028:	  2394	F5 04			MOV	NUM1L,A
 9029:	  2396	90 10 46	   MOV   DPTR,#ZONE4_SET_H
 9030:	  2399	E0			MOVX	A,@DPTR
 9031:	  239A	94 00			SUBB	A,#0
 9032:	  239C	50 04		   JNC   TEMP_SET4_OK
 9033:	  239E	C2 73		   CLR   LOW_LIM_Z4
 9034:	  23A0	80 13		   SJMP  CHK_LIMIT_ZONE5
 9035:
 9036:	  23A2			   TEMP_SET4_OK:
 9037:
 9038:
 9039:	  23A2	F5 05			MOV	NUM1H,A
 9040:	  23A4	90 24 48		MOV   DPTR,#CH23H
 9041:	  23A7	E0			MOVX  A,@DPTR
 9042:	  23A8	F5 03			MOV	NUM2H,A
 9043:	  23AA	A3			INC	DPTR
 9044:	  23AB	E0		   MOVX  A,@DPTR
 9045:	  23AC	F5 02			MOV	NUM2L,A
 9046:	  23AE	12 08 61		LCALL	COMPARE
 9047:	  23B1	A2 78			MOV	C,RLY33               ;RLY33 IS SET IF (CURRENT TEMP) < (SET POINT - LOW LIMIT)
 9048:	  23B3	92 73			MOV	LOW_LIM_Z4,C
 9049:
 9050:				;-----------------------------------------------------------------

ASEM-51 V1.3                                        Copyright (c) 2002 by W.W. Heinz                                        PAGE 163



 Line  I  Addr  Code            Source

 9051:				;ZONE 5 LOW LIMIT CHECK
 9052:				;-----------------------------------------------------------------
 9053:	  23B5				CHK_LIMIT_ZONE5:
 9054:
 9055:
 9056:	  23B5	90 10 3F		MOV   DPTR,#LOW_LIMIT_L
 9057:	  23B8	E0			MOVX  A,@DPTR
 9058:	  23B9	FD			MOV   R5,A
 9059:	  23BA	90 10 49		MOV   DPTR,#ZONE5_SET_L
 9060:	  23BD	E0		   MOVX	A,@DPTR
 9061:	  23BE	C3			CLR	C
 9062:	  23BF	9D			SUBB	A,R5
 9063:	  23C0	F5 04			MOV	NUM1L,A
 9064:	  23C2	90 10 48	   MOV   DPTR,#ZONE5_SET_H
 9065:	  23C5	E0			MOVX	A,@DPTR
 9066:	  23C6	94 00			SUBB	A,#0
 9067:	  23C8	50 04		   JNC   TEMP_SET5_OK
 9068:	  23CA	C2 74		   CLR   LOW_LIM_Z5
 9069:	  23CC	80 13		   SJMP  CHK_LIMIT_ZONE6
 9070:
 9071:	  23CE			   TEMP_SET5_OK:
 9072:
 9073:
 9074:	  23CE	F5 05			MOV	NUM1H,A
 9075:	  23D0	90 24 4A		MOV   DPTR,#CH24H
 9076:	  23D3	E0			MOVX  A,@DPTR
 9077:	  23D4	F5 03			MOV	NUM2H,A
 9078:	  23D6	A3			INC	DPTR
 9079:	  23D7	E0		   MOVX  A,@DPTR
 9080:	  23D8	F5 02			MOV	NUM2L,A
 9081:	  23DA	12 08 61		LCALL	COMPARE
 9082:	  23DD	A2 78			MOV	C,RLY33               ;RLY33 IS SET IF (CURRENT TEMP) < (SET POINT - LOW LIMIT)
 9083:	  23DF	92 74			MOV	LOW_LIM_Z5,C
 9084:
 9085:				;-----------------------------------------------------------------
 9086:				;ZONE 6 LOW LIMIT CHECK
 9087:				;-----------------------------------------------------------------
 9088:
 9089:
 9090:	  23E1			   CHK_LIMIT_ZONE6:
 9091:
 9092:	  23E1	90 10 3F	   MOV   DPTR,#LOW_LIMIT_L
 9093:	  23E4	E0			MOVX  A,@DPTR
 9094:	  23E5	FD			MOV   R5,A
 9095:	  23E6	90 10 4B		MOV   DPTR,#ZONE6_SET_L
 9096:	  23E9	E0		   MOVX	A,@DPTR
 9097:	  23EA	C3			CLR	C
 9098:	  23EB	9D			SUBB	A,R5
 9099:	  23EC	F5 04			MOV	NUM1L,A
 9100:	  23EE	90 10 4A	   MOV   DPTR,#ZONE6_SET_H
 9101:	  23F1	E0			MOVX	A,@DPTR
 9102:	  23F2	94 00			SUBB	A,#0
 9103:	  23F4	50 04		   JNC   TEMP_SET6_OK
 9104:	  23F6	C2 75		   CLR   LOW_LIM_Z6
 9105:	  23F8	80 13		   SJMP  CHK_LIMIT_ZONE7
 9106:

ASEM-51 V1.3                                        Copyright (c) 2002 by W.W. Heinz                                        PAGE 164



 Line  I  Addr  Code            Source

 9107:	  23FA			   TEMP_SET6_OK:
 9108:
 9109:
 9110:	  23FA	F5 05			MOV	NUM1H,A
 9111:	  23FC	90 24 4C		MOV   DPTR,#CH25H
 9112:	  23FF	E0			MOVX  A,@DPTR
 9113:	  2400	F5 03			MOV	NUM2H,A
 9114:	  2402	A3			INC	DPTR
 9115:	  2403	E0		   MOVX  A,@DPTR
 9116:	  2404	F5 02			MOV	NUM2L,A
 9117:	  2406	12 08 61		LCALL	COMPARE
 9118:	  2409	A2 78			MOV	C,RLY33               ;RLY33 IS SET IF (CURRENT TEMP) < (SET POINT - LOW LIMIT)
 9119:	  240B	92 75			MOV	LOW_LIM_Z6,C
 9120:
 9121:	  240D			   CHK_LIMIT_ZONE7:
 9122:
 9123:	  240D	22			RET
 9124:				;-------------------------------------------------------
 9125:	  240E			   BLOWER_OP:
 9126:
 9127:	  240E	E5 31		   MOV   A,A2D_CHANNEL
 9128:	  2410	B4 00 1F	   CJNE  A,#0,CHK_LIMIT_BLOWER2
 9129:	  2413	90 20 01	   MOV   DPTR,#BLOWER1_L
 9130:	  2416	E0			MOVX  A,@DPTR
 9131:	  2417	FD			MOV   R5,A
 9132:	  2418	90 24 43		MOV   DPTR,#ZONE1_ACT_TEMP_L
 9133:	  241B	E0		   MOVX	A,@DPTR
 9134:	  241C	C3			CLR	C
 9135:	  241D	9D			SUBB	A,R5
 9136:	  241E	F5 04			MOV	NUM1L,A
 9137:	  2420	90 20 00	   MOV   DPTR,#BLOWER1_H
 9138:	  2423	E0		   MOVX  A,@DPTR
 9139:	  2424	FD		   MOV   R5,A
 9140:	  2425	90 24 42	   MOV   DPTR,#ZONE1_ACT_TEMP_H
 9141:	  2428	E0			MOVX	A,@DPTR
 9142:	  2429	9D			SUBB	A,R5
 9143:	  242A	B3		   CPL   C
 9144:	  242B	E5 30		   MOV   A,RLY09_16
 9145:	  242D	92 E0		   MOV   BLOWER1_OP,C
 9146:	  242F	F5 30		   MOV   RLY09_16,A
 9147:	  2431	22		   RET
 9148:				;--------------------------------------------------------
 9149:	  2432			   CHK_LIMIT_BLOWER2:
 9150:
 9151:	  2432	B4 01 1F	   CJNE  A,#1,CHK_LIMIT_BLOWER3
 9152:	  2435	90 20 03	   MOV   DPTR,#BLOWER2_L
 9153:	  2438	E0			MOVX  A,@DPTR
 9154:	  2439	FD			MOV   R5,A
 9155:	  243A	90 24 45		MOV   DPTR,#ZONE2_ACT_TEMP_L
 9156:	  243D	E0		   MOVX	A,@DPTR
 9157:	  243E	C3			CLR	C
 9158:	  243F	9D			SUBB	A,R5
 9159:	  2440	F5 04			MOV	NUM1L,A
 9160:	  2442	90 20 02	   MOV   DPTR,#BLOWER2_H
 9161:	  2445	E0		   MOVX  A,@DPTR
 9162:	  2446	FD		   MOV   R5,A

ASEM-51 V1.3                                        Copyright (c) 2002 by W.W. Heinz                                        PAGE 165



 Line  I  Addr  Code            Source

 9163:	  2447	90 24 44	   MOV   DPTR,#ZONE2_ACT_TEMP_H
 9164:	  244A	E0			MOVX	A,@DPTR
 9165:	  244B	9D			SUBB	A,R5
 9166:	  244C	B3		   CPL   C
 9167:	  244D	E5 30		   MOV   A,RLY09_16
 9168:	  244F	92 E1		   MOV   BLOWER2_OP,C
 9169:	  2451	F5 30		   MOV   RLY09_16,A
 9170:	  2453	22		   RET
 9171:				;--------------------------------------------
 9172:	  2454			   CHK_LIMIT_BLOWER3:
 9173:
 9174:	  2454	B4 02 1F	   CJNE  A,#2,CHK_LIMIT_BLOWER4
 9175:	  2457	90 20 05	   MOV   DPTR,#BLOWER3_L
 9176:	  245A	E0			MOVX  A,@DPTR
 9177:	  245B	FD			MOV   R5,A
 9178:	  245C	90 24 47		MOV   DPTR,#ZONE3_ACT_TEMP_L
 9179:	  245F	E0		   MOVX	A,@DPTR
 9180:	  2460	C3			CLR	C
 9181:	  2461	9D			SUBB	A,R5
 9182:	  2462	F5 04			MOV	NUM1L,A
 9183:	  2464	90 20 04	   MOV   DPTR,#BLOWER3_H
 9184:	  2467	E0		   MOVX  A,@DPTR
 9185:	  2468	FD		   MOV   R5,A
 9186:	  2469	90 24 46	   MOV   DPTR,#ZONE3_ACT_TEMP_H
 9187:	  246C	E0			MOVX	A,@DPTR
 9188:	  246D	9D			SUBB	A,R5
 9189:	  246E	B3		   CPL   C
 9190:	  246F	E5 30		   MOV   A,RLY09_16
 9191:	  2471	92 E2		   MOV   BLOWER3_OP,C
 9192:	  2473	F5 30		   MOV   RLY09_16,A
 9193:	  2475	22		   RET
 9194:				;------------------------------------------------------
 9195:	  2476			   CHK_LIMIT_BLOWER4:
 9196:
 9197:	  2476	B4 03 1F	   CJNE  A,#3,CHK_LIMIT_BLOWER5
 9198:	  2479	90 20 07	   MOV   DPTR,#BLOWER4_L
 9199:	  247C	E0			MOVX  A,@DPTR
 9200:	  247D	FD			MOV   R5,A
 9201:	  247E	90 24 49		MOV   DPTR,#ZONE4_ACT_TEMP_L
 9202:	  2481	E0		   MOVX	A,@DPTR
 9203:	  2482	C3			CLR	C
 9204:	  2483	9D			SUBB	A,R5
 9205:	  2484	F5 04			MOV	NUM1L,A
 9206:	  2486	90 20 06	   MOV   DPTR,#BLOWER4_H
 9207:	  2489	E0		   MOVX  A,@DPTR
 9208:	  248A	FD		   MOV   R5,A
 9209:	  248B	90 24 48	   MOV   DPTR,#ZONE4_ACT_TEMP_H
 9210:	  248E	E0			MOVX	A,@DPTR
 9211:	  248F	9D			SUBB	A,R5
 9212:	  2490	B3		   CPL   C
 9213:	  2491	E5 30		   MOV   A,RLY09_16
 9214:	  2493	92 E3		   MOV   BLOWER4_OP,C
 9215:	  2495	F5 30		   MOV   RLY09_16,A
 9216:	  2497	22		   RET
 9217:				;------------------------------------------------
 9218:	  2498			   CHK_LIMIT_BLOWER5:

ASEM-51 V1.3                                        Copyright (c) 2002 by W.W. Heinz                                        PAGE 166



 Line  I  Addr  Code            Source

 9219:				;---------------------------------------------------
 9220:	  2498	22		   RET
 9221:
 9222:				;-------------------------------------------------------
 9223:	  2499			   CHECK_ALARAM:
 9224:
 9225:	  2499	90 23 CB	   MOV    DPTR,#ALARM_1_L
 9226:	  249C	E0		   MOVX   A,@DPTR
 9227:	  249D	A2 4A		   MOV    C,EMERGENCY_IP
 9228:	  249F	B3		   CPL    C
 9229:	  24A0	92 E0		   MOV    EMERGENCY_PRESSED,C
 9230:	  24A2	F0		   MOVX   @DPTR,A
 9231:
 9232:				;-------------------------------------------------------
 9233:	  24A3			   CHECK_BLOW_PIN_UP_ERROR:
 9234:
 9235:
 9236:	  24A3	A2 3D		   MOV     C,BLOW_PINUP_OP
 9237:	  24A5	B0 49		   ANL     C,/BLOW_PINUP_IP
 9238:	  24A7	92 7E		   MOV     RLY39,C
 9239:
 9240:	  24A9	A2 3A		   MOV     C,BLOW_PINDN_OP
 9241:	  24AB	82 49		   ANL     C,BLOW_PINUP_IP
 9242:	  24AD	72 7E		   ORL     C,RLY39
 9243:	  24AF	90 5F C3	   MOV     DPTR,#TM40_ENABLE_1
 9244:	  24B2	E0			MOVX    A,@DPTR
 9245:	  24B3	92 E0			MOV     TM40E,C
 9246:	  24B5	F0			MOVX    @DPTR,A
 9247:
 9248:				          ;TM40E IS BLOW PIN ERROR TIMER
 9249:
 9250:	  24B6	A2 5A		   MOV     C,AUTO_MAN_SEL
 9251:	  24B8	B0 49		   ANL     C,/BLOW_PINUP_IP           ;BLOW_PINUP_IP BLOW PIN UP I/P
 9252:				  ; ANL     C,/MOULD_OUT_OP
 9253:				  ; ANL     C,/MOULD_OPEN_OP           ;MOULD OPEN O/P
 9254:	  24BA	B0 5C		   ANL     C,/B_HOME_POSN          ;B_HOME_POSN IS HOME POSN
 9255:	  24BC	92 7E		   MOV     RLY39,C
 9256:
 9257:	  24BE	A2 53		   MOV     C,MOULD_OUT_PB_IP                          ;INP7             ;INP 7 IS MOULD OUT P/B
 9258:	  24C0	72 52		   ORL     C,MOULD_IN_PB_IP                   ;INP6             ;INP6 IS MOULD IN P/B
 9259:	  24C2	B0 5A		   ANL     C,/AUTO_MAN_SEL
 9260:	  24C4	B0 49		   ANL     C,/BLOW_PINUP_IP
 9261:	  24C6	72 7E		   ORL     C,RLY39
 9262:	  24C8	92 7E		   MOV     RLY39,C
 9263:
 9264:	  24CA	90 5F C3	   MOV     DPTR,#TM40_ENABLE_1
 9265:	  24CD	E0			MOVX    A,@DPTR
 9266:	  24CE	A2 E1			MOV     C,TM40D
 9267:	  24D0	B0 49		   ANL     C,/BLOW_PINUP_IP
 9268:	  24D2	B0 3A		   ANL     C,/BLOW_PINDN_OP
 9269:	  24D4	72 7E		   ORL     C,RLY39
 9270:
 9271:	  24D6	90 23 CB	   MOV     DPTR,#ALARM_1_L
 9272:	  24D9	E0		   MOVX    A,@DPTR
 9273:	  24DA	92 E3		   MOV     BLOW_PIN_DN_ERR,C
 9274:	  24DC	F0		   MOVX    @DPTR,A

ASEM-51 V1.3                                        Copyright (c) 2002 by W.W. Heinz                                        PAGE 167



 Line  I  Addr  Code            Source

 9275:
 9276:				;--------------------------------------------------------------------------------
 9277:				;MOULD OPEN I/P ERROR
 9278:				;--------------------------------------------------------------------------------
 9279:	  24DD	A2 39		   MOV     C,MOULD_OPEN_OP
 9280:	  24DF	B0 48		   ANL     C,/MOULD_OPEN_IP
 9281:	  24E1	90 5F C3	   MOV     DPTR,#TM40_ENABLE_1
 9282:	  24E4	E0		   MOVX    A,@DPTR
 9283:	  24E5	92 E2		   MOV     TM41E,C
 9284:	  24E7	F0		   MOVX    @DPTR,A
 9285:
 9286:	  24E8	A2 39		   MOV     C,MOULD_OPEN_OP
 9287:	  24EA	B0 48		   ANL     C,/MOULD_OPEN_IP
 9288:	  24EC	82 E3		   ANL     C,TM41D
 9289:	  24EE	92 7E		   MOV     RLY39,C
 9290:
 9291:	  24F0	A2 5A		   MOV     C,AUTO_MAN_SEL
 9292:	  24F2	B0 48		   ANL     C,/MOULD_OPEN_IP
 9293:	  24F4	B0 5C		   ANL     C,/B_HOME_POSN
 9294:	  24F6	72 7E		   ORL     C,RLY39
 9295:
 9296:	  24F8	90 23 CB	   MOV     DPTR,#ALARM_1_L
 9297:	  24FB	E0		   MOVX    A,@DPTR
 9298:	  24FC	92 E2		   MOV     MOULD_OPEN_ERR,C
 9299:	  24FE	F0		   MOVX    @DPTR,A
 9300:
 9301:				;------------------------------------------------------------------------------------
 9302:				;MOULD OUT ERROR
 9303:				;-----------------------------------------------------------------------------------
 9304:	  24FF	A2 3C		   MOV     C,MOULD_OUT_OP
 9305:	  2501	B0 4D		   ANL     C,/MOULD_OUT_IP
 9306:	  2503	90 5F C3	   MOV     DPTR,#TM40_ENABLE_1
 9307:	  2506	E0		   MOVX    A,@DPTR
 9308:	  2507	92 E4		   MOV     TM42E,C
 9309:	  2509	F0		   MOVX    @DPTR,A
 9310:
 9311:
 9312:	  250A	A2 3C		   MOV     C,MOULD_OUT_OP
 9313:	  250C	B0 4D		   ANL     C,/MOULD_OUT_IP
 9314:	  250E	82 E5		   ANL     C,TM42D
 9315:	  2510	92 7E		   MOV     RLY39,C
 9316:
 9317:	  2512	A2 5A		   MOV     C,AUTO_MAN_SEL
 9318:	  2514	B0 4D		   ANL     C,/MOULD_OUT_IP
 9319:	  2516	B0 5C		   ANL     C,/B_HOME_POSN
 9320:	  2518	72 7E		   ORL     C,RLY39
 9321:
 9322:	  251A	90 23 CB	   MOV     DPTR,#ALARM_1_L
 9323:	  251D	E0		   MOVX    A,@DPTR
 9324:	  251E	92 E1		   MOV     MOULD_OUT_ERR,C
 9325:	  2520	F0		   MOVX    @DPTR,A
 9326:
 9327:				;-----------------------------------------------------------------------------------------
 9328:
 9329:
 9330:	  2521			   CHECK_TEMP_ERROR:

ASEM-51 V1.3                                        Copyright (c) 2002 by W.W. Heinz                                        PAGE 168



 Line  I  Addr  Code            Source

 9331:
 9332:	  2521	90 5F 45	   MOV    DPTR,#RLY552_559
 9333:	  2524	E0		   MOVX   A,@DPTR
 9334:
 9335:	  2525	A2 70		   MOV    C,LOW_LIM_Z1
 9336:	  2527	B0 E0		   ANL    C,/ZONE1_SEL
 9337:	  2529	92 7E		   MOV    RLY39,C
 9338:
 9339:
 9340:	  252B	A2 71		   MOV    C,LOW_LIM_Z2
 9341:	  252D	B0 E1		   ANL    C,/ZONE2_SEL
 9342:	  252F	72 7E		   ORL    C,RLY39
 9343:	  2531	92 7E		   MOV    RLY39,C
 9344:
 9345:	  2533	A2 72		   MOV    C,LOW_LIM_Z3
 9346:	  2535	B0 E2		   ANL    C,/ZONE3_SEL
 9347:	  2537	72 7E		   ORL    C,RLY39
 9348:	  2539	92 7E		   MOV    RLY39,C
 9349:
 9350:	  253B	A2 73		   MOV    C,LOW_LIM_Z4
 9351:	  253D	B0 E3		   ANL    C,/ZONE4_SEL
 9352:	  253F	72 7E		   ORL    C,RLY39
 9353:	  2541	92 7E		   MOV    RLY39,C
 9354:
 9355:	  2543	A2 74		   MOV    C,LOW_LIM_Z5
 9356:	  2545	B0 E4		   ANL    C,/ZONE5_SEL
 9357:	  2547	72 7E		   ORL    C,RLY39
 9358:	  2549	92 7E		   MOV    RLY39,C
 9359:
 9360:	  254B	A2 75		   MOV    C,LOW_LIM_Z6
 9361:	  254D	B0 E5		   ANL    C,/ZONE6_SEL
 9362:	  254F	72 7E		   ORL    C,RLY39
 9363:
 9364:
 9365:
 9366:
 9367:	  2551	90 5F C3	   MOV    DPTR,#TM40_ENABLE_1
 9368:	  2554	E0		   MOVX   A,@DPTR
 9369:	  2555	92 E6		   MOV    TM43E,C
 9370:	  2557	F0		   MOVX   @DPTR,A
 9371:
 9372:				   ;MOV    DPTR,#TM40_ENABLE_1
 9373:				   ;MOVX   A,@DPTR
 9374:				   ;JNB    TM43D,ZONE1_ERROR
 9375:
 9376:				   ;CLR    EXTRUDER_OP
 9377:				   ;MOVX   @DPTR,A
 9378:
 9379:
 9380:	  2558			   ZONE1_ERROR:
 9381:
 9382:	  2558	90 5F 43	   MOV    DPTR,#RLY536_543
 9383:	  255B	E0		   MOVX   A,@DPTR
 9384:	  255C	A2 E4		   MOV    C,EXTRUDER_ON
 9385:	  255E	A2 70		   MOV    C,LOW_LIM_Z1
 9386:	  2560	90 5F C3	   MOV    DPTR,#TM40_ENABLE_1

ASEM-51 V1.3                                        Copyright (c) 2002 by W.W. Heinz                                        PAGE 169



 Line  I  Addr  Code            Source

 9387:	  2563	E0		   MOVX   A,@DPTR
 9388:	  2564	82 E7		   ANL    C,TM43D
 9389:	  2566	90 23 CB	   MOV    DPTR,#ALARM_1_L
 9390:	  2569	E0		   MOVX   A,@DPTR
 9391:	  256A	92 E4		   MOV    ZONE1_LOW_LIMIT_ERR,C
 9392:	  256C	F0		   MOVX   @DPTR,A
 9393:
 9394:
 9395:	  256D			   ZONE2_ERROR:
 9396:
 9397:	  256D	90 5F 43	   MOV    DPTR,#RLY536_543
 9398:	  2570	E0		   MOVX   A,@DPTR
 9399:	  2571	A2 E4		   MOV    C,EXTRUDER_ON
 9400:	  2573	A2 71		   MOV    C,LOW_LIM_Z2
 9401:	  2575	90 5F C3	   MOV    DPTR,#TM40_ENABLE_1
 9402:	  2578	E0		   MOVX   A,@DPTR
 9403:	  2579	82 E7		   ANL    C,TM43D
 9404:	  257B	90 23 CB	   MOV    DPTR,#ALARM_1_L
 9405:	  257E	E0		   MOVX   A,@DPTR
 9406:	  257F	92 E5		   MOV    ZONE2_LOW_LIMIT_ERR,C
 9407:	  2581	F0		   MOVX   @DPTR,A
 9408:
 9409:	  2582			   ZONE3_ERROR:
 9410:
 9411:	  2582	90 5F 43	   MOV    DPTR,#RLY536_543
 9412:	  2585	E0		   MOVX   A,@DPTR
 9413:	  2586	A2 E4		   MOV    C,EXTRUDER_ON
 9414:	  2588	A2 72		   MOV    C,LOW_LIM_Z3
 9415:	  258A	90 5F C3	   MOV    DPTR,#TM40_ENABLE_1
 9416:	  258D	E0		   MOVX   A,@DPTR
 9417:	  258E	82 E7		   ANL    C,TM43D
 9418:	  2590	90 23 CB	   MOV    DPTR,#ALARM_1_L
 9419:	  2593	E0		   MOVX   A,@DPTR
 9420:	  2594	92 E6		   MOV    ZONE3_LOW_LIMIT_ERR,C
 9421:	  2596	F0		   MOVX   @DPTR,A
 9422:
 9423:	  2597			   ZONE4_ERROR:
 9424:
 9425:	  2597	90 5F 43	   MOV    DPTR,#RLY536_543
 9426:	  259A	E0		   MOVX   A,@DPTR
 9427:	  259B	A2 E4		   MOV    C,EXTRUDER_ON
 9428:	  259D	A2 73		   MOV    C,LOW_LIM_Z4
 9429:	  259F	90 5F C3	   MOV    DPTR,#TM40_ENABLE_1
 9430:	  25A2	E0		   MOVX   A,@DPTR
 9431:	  25A3	82 E7		   ANL    C,TM43D
 9432:	  25A5	90 23 CB	   MOV    DPTR,#ALARM_1_L
 9433:	  25A8	E0		   MOVX   A,@DPTR
 9434:	  25A9	92 E7		   MOV    ZONE4_LOW_LIMIT_ERR,C
 9435:	  25AB	F0		   MOVX   @DPTR,A
 9436:
 9437:	  25AC			   ZONE5_ERROR:
 9438:
 9439:	  25AC	90 5F 43	   MOV    DPTR,#RLY536_543
 9440:	  25AF	E0		   MOVX   A,@DPTR
 9441:	  25B0	A2 E4		   MOV    C,EXTRUDER_ON
 9442:	  25B2	A2 74		   MOV    C,LOW_LIM_Z5

ASEM-51 V1.3                                        Copyright (c) 2002 by W.W. Heinz                                        PAGE 170



 Line  I  Addr  Code            Source

 9443:	  25B4	90 5F C3	   MOV    DPTR,#TM40_ENABLE_1
 9444:	  25B7	E0		   MOVX   A,@DPTR
 9445:	  25B8	82 E7		   ANL    C,TM43D
 9446:	  25BA	90 23 CA	   MOV    DPTR,#ALARM_1_H
 9447:	  25BD	E0		   MOVX   A,@DPTR
 9448:	  25BE	92 E0		   MOV    ZONE5_LOW_LIMIT_ERR,C
 9449:	  25C0	F0		   MOVX   @DPTR,A
 9450:
 9451:	  25C1			   ZONE6_ERROR:
 9452:
 9453:	  25C1	90 5F 43	   MOV    DPTR,#RLY536_543
 9454:	  25C4	E0		   MOVX   A,@DPTR
 9455:	  25C5	A2 E4		   MOV    C,EXTRUDER_ON
 9456:	  25C7	A2 75		   MOV    C,LOW_LIM_Z6
 9457:	  25C9	90 5F C3	   MOV    DPTR,#TM40_ENABLE_1
 9458:	  25CC	E0		   MOVX   A,@DPTR
 9459:	  25CD	82 E7		   ANL    C,TM43D
 9460:	  25CF	90 23 CA	   MOV    DPTR,#ALARM_1_H
 9461:	  25D2	E0		   MOVX   A,@DPTR
 9462:	  25D3	92 E1		   MOV    ZONE6_LOW_LIMIT_ERR,C
 9463:	  25D5	F0		   MOVX   @DPTR,A
 9464:
 9465:
 9466:	  25D6	22		   RET
 9467:
 9468:
 9469:
 9470:				;****************************************************************************
 9471:				;UPDATE COUNTERS
 9472:				;****************************************************************************
 9473:		N      0001	RCLK00			EQU	01H	;RISING CLOCK SIGNAL FOR ALL
 9474:		N      0002	RCLK01			EQU	02H	;COUNTER WILL BE STORED IN
 9475:		N      0004	RCLK02			EQU	04H	;ONE BYTE LOCATION WE WILL
 9476:		N      0008	RCLK03			EQU	08H	;AND THAT LOCATION WITH RCLKxx
 9477:		N      0010	RCLK04			EQU	10H	;TO CHECK IF RISING EDGE IS
 9478:		N      0020	RCLK05			EQU	20H	;DETECTED AT CLK INPUT OF
 9479:		N      0040	RCLK06			EQU	40H	;COUNTER xx
 9480:		N      0080	RCLK07			EQU	80H
 9481:
 9482:	  25D7			   CTR_HANDLER:
 9483:
 9484:	  25D7	E5 32		   MOV	A,CTR_PREV_CLK
 9485:	  25D9	85 33 32		MOV	CTR_PREV_CLK,CTR_CLK
 9486:	  25DC	F4			CPL	A
 9487:	  25DD	55 33			ANL	A,CTR_CLK
 9488:	  25DF	FF			MOV	R7,A	;STORE RISING CLOCK PULSES IN R7
 9489:
 9490:	  25E0			   CT00_CHK:
 9491:
 9492:	  25E0	E5 34		   MOV   A,CTR_RESET
 9493:	  25E2	30 E0 0F	   JNB	CT00R,CT00_UPDATE
 9494:	  25E5	E4			CLR   A
 9495:	  25E6	90 23 00		MOV	DPTR,#CTC00H                                ;R0 ,#CTC00L
 9496:	  25E9	F0			MOVX	@DPTR,A
 9497:	  25EA	A3			INC	DPTR
 9498:	  25EB	F0			MOVX	@DPTR,A

ASEM-51 V1.3                                        Copyright (c) 2002 by W.W. Heinz                                        PAGE 171



 Line  I  Addr  Code            Source

 9499:	  25EC	E5 35			MOV   A,CTR_DONE                       ;COUNTER0_1
 9500:	  25EE	C2 E0			CLR	CT00D
 9501:	  25F0	F5 35			MOV   CTR_DONE,A
 9502:	  25F2	80 35			SJMP	CT01_CHK
 9503:
 9504:	  25F4			   CT00_UPDATE:
 9505:
 9506:	  25F4	E5 35		   MOV   A,CTR_DONE
 9507:	  25F6	20 E0 30	   JB	   CT00D,CT01_CHK
 9508:	  25F9	EF			MOV	A,R7
 9509:	  25FA	54 01			ANL	A,#RCLK00
 9510:	  25FC	60 2B			JZ	   CT01_CHK
 9511:	  25FE	90 23 01		MOV	DPTR,#CTC00L
 9512:	  2601	E0			MOVX	A,@DPTR
 9513:	  2602	24 01			ADD	A,#01H
 9514:	  2604	F0			MOVX	@DPTR,A
 9515:	  2605	90 23 00		MOV	DPTR,#CTC00H
 9516:	  2608	E0			MOVX	A,@DPTR
 9517:	  2609	34 00			ADDC	A,#00H
 9518:	  260B	F0			MOVX	@DPTR,A
 9519:
 9520:	  260C			   CT00_DONE:
 9521:
 9522:
 9523:	  260C	90 10 91		MOV	DPTR,#CTS00L
 9524:	  260F	E0		   MOVX  A,@DPTR
 9525:	  2610	F9		   MOV   R1,A
 9526:	  2611	90 23 01	   MOV   DPTR,#CTC00L
 9527:	  2614	E0			MOVX	A,@DPTR
 9528:	  2615	C3			CLR	C
 9529:	  2616	99			SUBB	A,R1
 9530:	  2617	90 10 90		MOV	DPTR,#CTS00H
 9531:	  261A	E0		   MOVX  A,@DPTR
 9532:	  261B	F9		   MOV   R1,A
 9533:	  261C	90 23 00		MOV   DPTR,#CTC00H
 9534:	  261F	E0			MOVX	A,@DPTR
 9535:	  2620	99			SUBB	A,R1
 9536:	  2621	40 06			JC	   CT01_CHK
 9537:	  2623	E5 35			MOV   A,CTR_DONE
 9538:	  2625	D2 E0			SETB	CT00D
 9539:	  2627	F5 35			MOV   CTR_DONE,A
 9540:
 9541:
 9542:				;*************************************************
 9543:	  2629			   CT01_CHK:
 9544:
 9545:	  2629	E5 34		   MOV   A,CTR_RESET
 9546:	  262B	30 E1 0F	   JNB	CT01R,CT01_UPDATE
 9547:	  262E	E4			CLR   A
 9548:	  262F	90 23 02		MOV	DPTR,#CTC01H                                ;R0 ,#CTC00L
 9549:	  2632	F0			MOVX	@DPTR,A
 9550:	  2633	A3			INC	DPTR
 9551:	  2634	F0			MOVX	@DPTR,A
 9552:	  2635	E5 35			MOV   A,CTR_DONE
 9553:	  2637	C2 E1			CLR	CT01D
 9554:	  2639	F5 35			MOV   CTR_DONE,A

ASEM-51 V1.3                                        Copyright (c) 2002 by W.W. Heinz                                        PAGE 172



 Line  I  Addr  Code            Source

 9555:	  263B	80 35			SJMP	CT02_CHK
 9556:
 9557:	  263D			   CT01_UPDATE:
 9558:
 9559:	  263D	E5 35		   MOV   A,CTR_DONE
 9560:	  263F	20 E1 30	   JB	   CT01D,CT02_CHK
 9561:	  2642	EF			MOV	A,R7
 9562:	  2643	54 02			ANL	A,#RCLK01
 9563:	  2645	60 2B			JZ	   CT02_CHK
 9564:	  2647	90 23 03		MOV	DPTR,#CTC01L
 9565:	  264A	E0			MOVX	A,@DPTR
 9566:	  264B	24 01			ADD	A,#01H
 9567:	  264D	F0			MOVX	@DPTR,A
 9568:	  264E	90 23 02		MOV	DPTR,#CTC01H
 9569:	  2651	E0			MOVX	A,@DPTR
 9570:	  2652	34 00			ADDC	A,#00H
 9571:	  2654	F0			MOVX	@DPTR,A
 9572:
 9573:	  2655			   CT01_DONE:
 9574:
 9575:
 9576:	  2655	90 10 93		MOV	DPTR,#CTS01L
 9577:	  2658	E0		   MOVX  A,@DPTR
 9578:	  2659	F9		   MOV   R1,A
 9579:	  265A	90 23 03	   MOV   DPTR,#CTC01L
 9580:	  265D	E0			MOVX	A,@DPTR
 9581:	  265E	C3			CLR	C
 9582:	  265F	99			SUBB	A,R1
 9583:	  2660	90 10 92		MOV	DPTR,#CTS01H
 9584:	  2663	E0		   MOVX  A,@DPTR
 9585:	  2664	F9		   MOV   R1,A
 9586:	  2665	90 23 02		MOV   DPTR,#CTC01H
 9587:	  2668	E0			MOVX	A,@DPTR
 9588:	  2669	99			SUBB	A,R1
 9589:	  266A	40 06			JC	   CT02_CHK
 9590:	  266C	E5 35			MOV   A,CTR_DONE
 9591:	  266E	D2 E1			SETB	CT01D
 9592:	  2670	F5 35			MOV   CTR_DONE,A
 9593:				;******************************************************
 9594:	  2672			   CT02_CHK:
 9595:
 9596:	  2672	E5 34		   MOV   A,CTR_RESET
 9597:	  2674	30 E2 0F	   JNB	CT02R,CT02_UPDATE
 9598:	  2677	E4			CLR   A
 9599:	  2678	90 23 04		MOV	DPTR,#CTC02H                                ;R0 ,#CTC00L
 9600:	  267B	F0			MOVX	@DPTR,A
 9601:	  267C	A3			INC	DPTR
 9602:	  267D	F0			MOVX	@DPTR,A
 9603:	  267E	E5 35			MOV   A,CTR_DONE
 9604:	  2680	C2 E2			CLR	CT02D
 9605:	  2682	F5 35			MOV   CTR_DONE,A
 9606:	  2684	80 35			SJMP	CT03_CHK
 9607:
 9608:	  2686			   CT02_UPDATE:
 9609:
 9610:	  2686	E5 35		   MOV   A,CTR_DONE

ASEM-51 V1.3                                        Copyright (c) 2002 by W.W. Heinz                                        PAGE 173



 Line  I  Addr  Code            Source

 9611:	  2688	20 E2 30	   JB	   CT02D,CT03_CHK
 9612:	  268B	EF			MOV	A,R7
 9613:	  268C	54 04			ANL	A,#RCLK02
 9614:	  268E	60 2B			JZ	   CT03_CHK
 9615:	  2690	90 23 05		MOV	DPTR,#CTC02L
 9616:	  2693	E0			MOVX	A,@DPTR
 9617:	  2694	24 01			ADD	A,#01H
 9618:	  2696	F0			MOVX	@DPTR,A
 9619:	  2697	90 23 04		MOV	DPTR,#CTC02H
 9620:	  269A	E0			MOVX	A,@DPTR
 9621:	  269B	34 00			ADDC	A,#00H
 9622:	  269D	F0			MOVX	@DPTR,A
 9623:
 9624:	  269E			   CT02_DONE:
 9625:
 9626:
 9627:	  269E	90 10 95		MOV	DPTR,#CTS02L
 9628:	  26A1	E0		   MOVX  A,@DPTR
 9629:	  26A2	F9		   MOV   R1,A
 9630:	  26A3	90 23 05	   MOV   DPTR,#CTC02L
 9631:	  26A6	E0			MOVX	A,@DPTR
 9632:	  26A7	C3			CLR	C
 9633:	  26A8	99			SUBB	A,R1
 9634:	  26A9	90 10 94		MOV	DPTR,#CTS02H
 9635:	  26AC	E0		   MOVX  A,@DPTR
 9636:	  26AD	F9		   MOV   R1,A
 9637:	  26AE	90 23 04		MOV   DPTR,#CTC02H
 9638:	  26B1	E0			MOVX	A,@DPTR
 9639:	  26B2	99			SUBB	A,R1
 9640:	  26B3	40 06			JC	   CT03_CHK
 9641:	  26B5	E5 35			MOV   A,CTR_DONE
 9642:	  26B7	D2 E2			SETB	CT02D
 9643:	  26B9	F5 35			MOV   CTR_DONE,A
 9644:
 9645:	  26BB			   CT03_CHK:
 9646:
 9647:
 9648:	  26BB			   CT04_CHK:
 9649:
 9650:
 9651:	  26BB			   CT05_CHK:
 9652:
 9653:
 9654:				;-----------------------------------------------------------------
 9655:	  26BB			   CT06_CHK:
 9656:
 9657:	  26BB	E5 34		   MOV   A,CTR_RESET
 9658:	  26BD	30 E6 0F	   JNB	CT06R,CT06_UPDATE
 9659:	  26C0	E4			CLR   A
 9660:	  26C1	90 23 0C		MOV	DPTR,#CTC06H                                ;R0 ,#CTC00L
 9661:	  26C4	F0			MOVX	@DPTR,A
 9662:	  26C5	A3			INC	DPTR
 9663:	  26C6	F0			MOVX	@DPTR,A
 9664:	  26C7	E5 35			MOV   A,CTR_DONE
 9665:	  26C9	C2 E6			CLR	CT06D
 9666:	  26CB	F5 35			MOV   CTR_DONE,A

ASEM-51 V1.3                                        Copyright (c) 2002 by W.W. Heinz                                        PAGE 174



 Line  I  Addr  Code            Source

 9667:	  26CD	80 35			SJMP	CT07_CHK
 9668:
 9669:	  26CF			   CT06_UPDATE:
 9670:
 9671:	  26CF	E5 35		   MOV   A,CTR_DONE
 9672:	  26D1	20 E6 30	   JB	   CT06D,CT07_CHK
 9673:	  26D4	EF			MOV	A,R7
 9674:	  26D5	54 40			ANL	A,#RCLK06
 9675:	  26D7	60 2B			JZ	   CT07_CHK
 9676:	  26D9	90 23 0D		MOV	DPTR,#CTC06L
 9677:	  26DC	E0			MOVX	A,@DPTR
 9678:	  26DD	24 01			ADD	A,#01H
 9679:	  26DF	F0			MOVX	@DPTR,A
 9680:	  26E0	90 23 0C		MOV	DPTR,#CTC06H
 9681:	  26E3	E0			MOVX	A,@DPTR
 9682:	  26E4	34 00			ADDC	A,#00H
 9683:	  26E6	F0			MOVX	@DPTR,A
 9684:
 9685:	  26E7			   CT06_DONE:
 9686:
 9687:
 9688:	  26E7	90 10 9D		MOV	DPTR,#CTS06L
 9689:	  26EA	E0		   MOVX  A,@DPTR
 9690:	  26EB	F9		   MOV   R1,A
 9691:	  26EC	90 23 0D	   MOV   DPTR,#CTC06L
 9692:	  26EF	E0			MOVX	A,@DPTR
 9693:	  26F0	C3			CLR	C
 9694:	  26F1	99			SUBB	A,R1
 9695:	  26F2	90 10 9C		MOV	DPTR,#CTS06H
 9696:	  26F5	E0		   MOVX  A,@DPTR
 9697:	  26F6	F9		   MOV   R1,A
 9698:	  26F7	90 23 0C		MOV   DPTR,#CTC06H
 9699:	  26FA	E0			MOVX	A,@DPTR
 9700:	  26FB	99			SUBB	A,R1
 9701:	  26FC	40 06			JC	   CT07_CHK
 9702:	  26FE	E5 35			MOV   A,CTR_DONE
 9703:	  2700	D2 E6			SETB	CT06D
 9704:	  2702	F5 35			MOV   CTR_DONE,A
 9705:
 9706:
 9707:
 9708:	  2704			   CT07_CHK:
 9709:
 9710:
 9711:	  2704	22		   RET
 9712:
 9713:
 9714:				;------------------------------------------------------------------
 9715:
 9716:	  2705				PROD_COUNTER:
 9717:
 9718:	  2705	E5 33		   MOV   A,CTR_CLK
 9719:	  2707	A2 21		   MOV	C,EXHAUST_TM08D	;CYCLE COUNTER LOWER 4 DIGITS
 9720:	  2709	92 E1		   MOV	CT01C,C
 9721:	  270B	F5 33		   MOV   CTR_CLK,A
 9722:	  270D	E5 35		   MOV   A,CTR_DONE

ASEM-51 V1.3                                        Copyright (c) 2002 by W.W. Heinz                                        PAGE 175



 Line  I  Addr  Code            Source

 9723:	  270F	A2 E1		   MOV	C,CT01D
 9724:	  2711	E5 34			MOV   A,CTR_RESET
 9725:	  2713	92 E1			MOV	CT01R,C
 9726:	  2715	F5 34		   MOV   CTR_RESET,A
 9727:
 9728:	  2717	E5 35		   MOV   A,CTR_DONE
 9729:	  2719	A2 E1		   MOV	C,CT01D	             ;CYCLE COUNTER HIGH 4 DIGITS
 9730:	  271B	E5 33		   MOV   A,CTR_CLK
 9731:	  271D	92 E0			MOV	CT00C,C
 9732:	  271F	F5 33			MOV   CTR_CLK,A
 9733:
 9734:	  2721	E5 35			MOV   A,CTR_DONE
 9735:	  2723	A2 E0			MOV	C,CT00D
 9736:	  2725	E5 34			MOV   A,CTR_RESET
 9737:	  2727	92 E0			MOV	CT00R,C
 9738:	  2729	F5 34		   MOV   CTR_RESET,A
 9739:
 9740:	  272B	E5 33		   MOV   A,CTR_CLK
 9741:	  272D	A2 21		   MOV	C,EXHAUST_TM08D	;HOURLY PRODUCTION COUNTER
 9742:	  272F	92 E2		   MOV	CT02C,C
 9743:	  2731	F5 33		   MOV   CTR_CLK,A
 9744:				;------------------------------------------
 9745:	  2733	90 5F 41	   MOV   DPTR,#RLY520_527
 9746:	  2736	E0		   MOVX  A,@DPTR
 9747:	  2737	30 E6 07	   JNB   PROD_CNT_RST,DO_NOT_RESET_HOURLY_COUNTER
 9748:	  273A	E4		   CLR   A
 9749:	  273B	90 23 04	   MOV   DPTR,#CTC02H
 9750:	  273E	F0		   MOVX  @DPTR,A
 9751:	  273F	A3		   INC   DPTR
 9752:	  2740	F0		   MOVX  @DPTR,A
 9753:
 9754:	  2741			   DO_NOT_RESET_HOURLY_COUNTER:
 9755:
 9756:	  2741	22		   RET
 9757:
 9758:
 9759:				   END
 9760:
 9761:
 9762:
 9763:
 9764:
 9765:
 9766:
 9767:
 9768:
 9769:
 9770:
 9771:
 9772:
 9773:
 9774:
 9775:
 9776:
 9777:
 9778:

ASEM-51 V1.3                                        Copyright (c) 2002 by W.W. Heinz                                        PAGE 176



 Line  I  Addr  Code            Source

 9779:
 9780:
 9781:
 9782:
 9783:
 9784:
 9785:
 9786:
 9787:
 9788:
 9789:
 9790:
 9791:
 9792:
 9793:
 9794:
 9795:
 9796:
 9797:
 9798:
 9799:
 9800:
 9801:
 9802:
 9803:
 9804:
 9805:
 9806:
 9807:
 9808:
 9809:
 9810:
 9811:
 9812:
 9813:
 9814:
 9815:
 9816:
 9817:
 9818:
 9819:
 9820:
 9821:
 9822:
 9823:
 9824:
 9825:
 9826:
 9827:
 9828:
 9829:
 9830:
 9831:
 9832:
 9833:
 9834:

ASEM-51 V1.3                                        Copyright (c) 2002 by W.W. Heinz                                        PAGE 177



 Line  I  Addr  Code            Source

 9835:
 9836:
 9837:
 9838:
 9839:
 9840:
 9841:
 9842:
 9843:
 9844:
 9845:
 9846:
 9847:
 9848:
 9849:
 9850:
 9851:
 9852:
 9853:
 9854:
 9855:
 9856:
 9857:
 9858:
 9859:
 9860:
 9861:
 9862:
 9863:
 9864:
 9865:
 9866:
 9867:
 9868:
 9869:
 9870:
 9871:
 9872:
 9873:
 9874:
 9875:
 9876:
 9877:
 9878:
 9879:
 9880:
 9881:
 9882:
 9883:
 9884:
 9885:
 9886:
 9887:
 9888:



ASEM-51 V1.3                                        Copyright (c) 2002 by W.W. Heinz                                        PAGE 178






                     register banks used:  ---

                     no errors




ASEM-51 V1.3                                        Copyright (c) 2002 by W.W. Heinz                                        PAGE 179





	       L I S T   O F   S Y M B O L S
	       =============================


SYMBOL				  TYPE     VALUE	LINE
------------------------------------------------------------
??ASEM_51			  NUMBER    8051
??VERSION			  NUMBER    0130
A2D_CHANNEL			  NUMBER    0031	 457
AC				  BIT	      D6
ACC				  DATA	      E0
ADD_LRC_ASC			  CODE	    0791	3137
ADIVLOOP			  CODE	    0831	3319
ADROP				  CODE	    0854	3345
ALARM_1_H			  NUMBER    23CA	 867
ALARM_1_L			  NUMBER    23CB	 878
ALARM_BIT_1_H			  NUMBER    5FC4	1437
ALARM_BIT_1_L			  NUMBER    5FC5	1440
ASCII_TO_HEX			  CODE	    07EE	3236
AUTO_MAN_SEL			  NUMBER    005A	 364
AUTO_MAN_SEL_BIT		  NUMBER    00E0	1236
A_T_H_1				  CODE	    07F5	3243
A_T_H_2				  CODE	    07F9	3248
A_T_H_3				  CODE	    0804	3259
A_T_H_4				  CODE	    0808	3264
B				  DATA	      F0
BAND				  NUMBER    003B	 507
BAND_H				  NUMBER    103C	 555
BAND_L				  NUMBER    103D	 556
BIGPUMP_OP			  NUMBER    0061	 381
BIG_PUMP_PB			  NUMBER    00E3	1273
BIT_CNT				  NUMBER    000B	 125
BIT_NOT_ON			  CODE	    02DF	2149
BIT_NOT_ON_FN_CODE_02		  CODE	    042E	2422
BIT_READ_MORE_THAN_8		  NUMBER    0002	 145
BIT_START_ADDRESS		  NUMBER    5F00	1139
BIT_START_ADDRESS_INPUT		  NUMBER    0F00	 521
BLOWER1_H			  NUMBER    2000	 722
BLOWER1_L			  NUMBER    2001	 723
BLOWER1_OP			  NUMBER    00E0	 447
BLOWER2_H			  NUMBER    2002	 725
BLOWER2_L			  NUMBER    2003	 726
BLOWER2_OP			  NUMBER    00E1	 448
BLOWER3_H			  NUMBER    2004	 728
BLOWER3_L			  NUMBER    2005	 729
BLOWER3_OP			  NUMBER    00E2	 449
BLOWER4_H			  NUMBER    2006	 731
BLOWER4_L			  NUMBER    2007	 732
BLOWER4_OP			  NUMBER    00E3	 450
BLOWER_OP			  CODE	    240E	9125
BLOWING_OP			  NUMBER    003F	 302
BLOWING_PB			  NUMBER    00E6	1227
BLOWING_TM07D			  NUMBER    001F	 212
BLOWING_TM07E			  NUMBER    001E	 209
BLOWPINUP_DELAY_TM104D		  NUMBER    00E1	1451
BLOWPINUP_DELAY_TM104E		  NUMBER    00E0	1448

ASEM-51 V1.3                                        Copyright (c) 2002 by W.W. Heinz                                        PAGE 180



SYMBOL				  TYPE     VALUE	LINE
------------------------------------------------------------
BLOW_DELAY_TM06D		  NUMBER    001D	 206
BLOW_DELAY_TM06E		  NUMBER    001C	 203
BLOW_PINDN_OP			  NUMBER    003A	 297
BLOW_PINDN_PB_IP		  NUMBER    0055	 350
BLOW_PINUP_IP			  NUMBER    0049	 335
BLOW_PINUP_OP			  NUMBER    003D	 300
BLOW_PINUP_PB			  NUMBER    00E1	1267
BLOW_PINUP_PB_IP		  NUMBER    0054	 349
BLOW_PIN_DN_DLY_TM04D		  NUMBER    0019	 194
BLOW_PIN_DN_DLY_TM04E		  NUMBER    0018	 191
BLOW_PIN_DN_ERR			  NUMBER    00E3	 883
BLOW_PIN_DN_OVER		  NUMBER    006B	 395
BLOW_PIN_DN_PB			  NUMBER    00E2	1215
BLOW_PIN_HYDRA			  NUMBER    00E0	1181
BYPASS_SINGLE_CUT		  CODE	    1C92	7555
BYTE_CNT			  NUMBER    0008	 122
BYTE_CNT_LOADED_FN_CODE_01	  CODE	    02AD	2100
BYTE_CNT_LOADED_FN_CODE_02	  CODE	    03FC	2373
B_FIRST_CYCLE			  NUMBER    0007	 150
B_HOME_POSN			  NUMBER    005C	 369
CAL_DPTR			  CODE	    01AA	1905
CAL_LRC				  CODE	    07C4	3198
CAL_START_ADDRESS		  CODE	    070B	2996
CH00H				  NUMBER    2420	 894
CH00L				  NUMBER    2421	 897
CH01H				  NUMBER    2422	 900
CH01L				  NUMBER    2423	 903
CH02H				  NUMBER    2424	 906
CH02L				  NUMBER    2425	 909
CH03H				  NUMBER    2426	 912
CH03L				  NUMBER    2427	 915
CH04H				  NUMBER    2428	 918
CH04L				  NUMBER    2429	 921
CH05H				  NUMBER    242A	 924
CH05L				  NUMBER    242B	 927
CH06H				  NUMBER    242C	 930
CH06L				  NUMBER    242D	 933
CH07H				  NUMBER    242E	 936
CH07L				  NUMBER    242F	 939
CH19H				  NUMBER    2440	 942
CH19L				  NUMBER    2441	 945
CH20H				  NUMBER    2442	 948
CH20L				  NUMBER    2443	 951
CH21H				  NUMBER    2444	 954
CH21L				  NUMBER    2445	 957
CH22H				  NUMBER    2446	 960
CH22L				  NUMBER    2447	 963
CH23H				  NUMBER    2448	 966
CH23L				  NUMBER    2449	 969
CH24H				  NUMBER    244A	 972
CH24L				  NUMBER    244B	 975
CH25H				  NUMBER    244C	 978
CH25L				  NUMBER    244D	 981
CH26H				  NUMBER    244E	 984
CH26L				  NUMBER    244F	 987
CHECK_2				  CODE	    0348	2222

ASEM-51 V1.3                                        Copyright (c) 2002 by W.W. Heinz                                        PAGE 181



SYMBOL				  TYPE     VALUE	LINE
------------------------------------------------------------
CHECK_2_FN_CODE_02		  CODE	    0497	2495
CHECK_3				  CODE	    0351	2229
CHECK_3_FN_CODE_02		  CODE	    04A0	2502
CHECK_4				  CODE	    035A	2236
CHECK_4_FN_CODE_02		  CODE	    04A9	2509
CHECK_5				  CODE	    0363	2243
CHECK_5_FN_CODE_02		  CODE	    04B2	2516
CHECK_6				  CODE	    036C	2250
CHECK_6_FN_CODE_02		  CODE	    04BB	2523
CHECK_7				  CODE	    0375	2257
CHECK_7_FN_CODE_02		  CODE	    04C4	2530
CHECK_ALARAM			  CODE	    2499	9223
CHECK_AUTO_MAN_RESET		  CODE	    1FA1	8142
CHECK_BLOW_PIN_UP_ERROR		  CODE	    24A3	9233
CHECK_CARRY			  CODE	    098E	3666
CHECK_CARRY_TM01		  CODE	    09DC	3731
CHECK_CARRY_TM02		  CODE	    0A29	3792
CHECK_CARRY_TM03		  CODE	    0A76	3853
CHECK_CARRY_TM04		  CODE	    0AC3	3915
CHECK_CARRY_TM05		  CODE	    0B10	3977
CHECK_CARRY_TM06		  CODE	    0B5D	4039
CHECK_CARRY_TM07		  CODE	    0BAA	4101
CHECK_CARRY_TM08		  CODE	    0BF7	4164
CHECK_CARRY_TM09		  CODE	    0C44	4227
CHECK_CARRY_TM10		  CODE	    0C91	4290
CHECK_CARRY_TM100		  CODE	    0F66	4926
CHECK_CARRY_TM101		  CODE	    0FB3	4988
CHECK_CARRY_TM102		  CODE	    1000	5050
CHECK_CARRY_TM103		  CODE	    104D	5112
CHECK_CARRY_TM104		  CODE	    109E	5178
CHECK_CARRY_TM105		  CODE	    10FE	5251
CHECK_CARRY_TM106		  CODE	    115E	5324
CHECK_CARRY_TM107		  CODE	    11BE	5397
CHECK_CARRY_TM11		  CODE	    0CDE	4352
CHECK_CARRY_TM12		  CODE	    0D2B	4414
CHECK_CARRY_TM120		  CODE	    121E	5471
CHECK_CARRY_TM121		  CODE	    127E	5549
CHECK_CARRY_TM122		  CODE	    12DE	5627
CHECK_CARRY_TM123		  CODE	    133E	5704
CHECK_CARRY_TM124		  CODE	    139E	5781
CHECK_CARRY_TM125		  CODE	    13FE	5858
CHECK_CARRY_TM126		  CODE	    145E	5935
CHECK_CARRY_TM127		  CODE	    14BE	6012
CHECK_CARRY_TM13		  CODE	    0D78	4478
CHECK_CARRY_TM14		  CODE	    0DC5	4540
CHECK_CARRY_TM15		  CODE	    0E12	4603
CHECK_CARRY_TM16		  CODE	    0E3C	4665
CHECK_CARRY_TM17		  CODE	    0E7F	4728
CHECK_CARRY_TM18		  CODE	    0ECC	4794
CHECK_CARRY_TM19		  CODE	    0F19	4863
CHECK_EMERGENCY			  CODE	    1FB8	8160
CHECK_FN_01_QUERY		  CODE	    0164	1833
CHECK_FN_CODE_02_QUERY		  CODE	    016A	1838
CHECK_FN_CODE_05_QUERY		  CODE	    0170	1844
CHECK_FN_CODE_06_QUERY		  CODE	    015E	1828
CHECK_FN_CODE_0F_QUERY		  CODE	    0176	1849

ASEM-51 V1.3                                        Copyright (c) 2002 by W.W. Heinz                                        PAGE 182



SYMBOL				  TYPE     VALUE	LINE
------------------------------------------------------------
CHECK_FN_CODE_10_QUERY		  CODE	    017C	1855
CHECK_FOR_MORE_THAN_1_BIT	  CODE	    02B2	2107
CHECK_FOR_MORE_THAN_1_BIT_FN_CO	  CODE	    0401	2380
CHECK_INCREASING_TREND		  CODE	    2121	8458
CHECK_LESS_THAN_TEN_Z1		  CODE	    20E6	8416
CHECK_LESS_THAN_TEN_Z2		  CODE	    215B	8512
CHECK_LESS_THAN_TEN_Z3		  CODE	    21B6	8597
CHECK_LESS_THAN_TEN_Z4		  CODE	    2211	8683
CHECK_LESS_THAN_TEN_Z5		  CODE	    226C	8773
CHECK_LESS_THAN_TEN_Z6		  CODE	    22C7	8857
CHECK_NEXT_BIT			  CODE	    02CD	2128
CHECK_NEXT_BIT_FN_CODE_02	  CODE	    041C	2401
CHECK_QUERY_LESS_THAN_10H	  CODE	    0156	1821
CHECK_SERIAL_COMMUNICATION	  CODE	    06E3	2957
CHECK_TEMP_ERROR		  CODE	    2521	9330
CHECK_ZONE1			  CODE	    1FDC	8203
CHECK_ZONE2			  CODE	    1FFD	8227
CHECK_ZONE3			  CODE	    201E	8252
CHECK_ZONE4			  CODE	    203F	8276
CHECK_ZONE5			  CODE	    2060	8300
CHECK_ZONE6			  CODE	    2081	8324
CHECK_ZONE7			  CODE	    20A2	8346
CHK_CUTTER_ONTIME		  CODE	    1C5D	7508
CHK_LIMIT_BLOWER2		  CODE	    2432	9149
CHK_LIMIT_BLOWER3		  CODE	    2454	9172
CHK_LIMIT_BLOWER4		  CODE	    2476	9195
CHK_LIMIT_BLOWER5		  CODE	    2498	9218
CHK_LIMIT_ZONE2			  CODE	    2331	8952
CHK_LIMIT_ZONE3			  CODE	    235D	8984
CHK_LIMIT_ZONE4			  CODE	    2389	9019
CHK_LIMIT_ZONE5			  CODE	    23B5	9053
CHK_LIMIT_ZONE6			  CODE	    23E1	9090
CHK_LIMIT_ZONE7			  CODE	    240D	9121
CHK_LOW_LIMIT			  CODE	    1FB8	8161
CHK_MOULD_CLOSE			  CODE	    1BE2	7406
CHK_TMC00H			  CODE	    097B	3651
CHK_TMC00L			  CODE	    097F	3656
CHK_TMC01H			  CODE	    09C9	3716
CHK_TMC01L			  CODE	    09CD	3721
CHK_TMC02H			  CODE	    0A16	3777
CHK_TMC02L			  CODE	    0A1A	3782
CHK_TMC03H			  CODE	    0A63	3838
CHK_TMC03L			  CODE	    0A67	3843
CHK_TMC04H			  CODE	    0AB0	3900
CHK_TMC04L			  CODE	    0AB4	3905
CHK_TMC05H			  CODE	    0AFD	3962
CHK_TMC05L			  CODE	    0B01	3967
CHK_TMC06H			  CODE	    0B4A	4024
CHK_TMC06L			  CODE	    0B4E	4029
CHK_TMC07H			  CODE	    0B97	4086
CHK_TMC07L			  CODE	    0B9B	4091
CHK_TMC08H			  CODE	    0BE4	4149
CHK_TMC08L			  CODE	    0BE8	4154
CHK_TMC09H			  CODE	    0C31	4212
CHK_TMC09L			  CODE	    0C35	4217
CHK_TMC100H			  CODE	    0F53	4911

ASEM-51 V1.3                                        Copyright (c) 2002 by W.W. Heinz                                        PAGE 183



SYMBOL				  TYPE     VALUE	LINE
------------------------------------------------------------
CHK_TMC100L			  CODE	    0F57	4916
CHK_TMC101H			  CODE	    0FA0	4973
CHK_TMC101L			  CODE	    0FA4	4978
CHK_TMC102H			  CODE	    0FED	5035
CHK_TMC102L			  CODE	    0FF1	5040
CHK_TMC103H			  CODE	    103A	5097
CHK_TMC103L			  CODE	    103E	5102
CHK_TMC104H			  CODE	    108B	5163
CHK_TMC104L			  CODE	    108F	5168
CHK_TMC105H			  CODE	    10EB	5236
CHK_TMC105L			  CODE	    10EF	5241
CHK_TMC106H			  CODE	    114B	5309
CHK_TMC106L			  CODE	    114F	5314
CHK_TMC107H			  CODE	    11AB	5382
CHK_TMC107L			  CODE	    11AF	5387
CHK_TMC10H			  CODE	    0C7E	4275
CHK_TMC10L			  CODE	    0C82	4280
CHK_TMC11H			  CODE	    0CCB	4337
CHK_TMC11L			  CODE	    0CCF	4342
CHK_TMC120H			  CODE	    120B	5456
CHK_TMC120L			  CODE	    120F	5461
CHK_TMC121H			  CODE	    126B	5534
CHK_TMC121L			  CODE	    126F	5539
CHK_TMC122H			  CODE	    12CB	5612
CHK_TMC122L			  CODE	    12CF	5617
CHK_TMC123H			  CODE	    132B	5689
CHK_TMC123L			  CODE	    132F	5694
CHK_TMC124H			  CODE	    138B	5766
CHK_TMC124L			  CODE	    138F	5771
CHK_TMC125H			  CODE	    13EB	5843
CHK_TMC125L			  CODE	    13EF	5848
CHK_TMC126H			  CODE	    144B	5920
CHK_TMC126L			  CODE	    144F	5925
CHK_TMC127H			  CODE	    14AB	5997
CHK_TMC127L			  CODE	    14AF	6002
CHK_TMC12H			  CODE	    0D18	4399
CHK_TMC12L			  CODE	    0D1C	4404
CHK_TMC13H			  CODE	    0D65	4463
CHK_TMC13L			  CODE	    0D69	4468
CHK_TMC14H			  CODE	    0DB2	4525
CHK_TMC14L			  CODE	    0DB6	4530
CHK_TMC15H			  CODE	    0DFF	4588
CHK_TMC15L			  CODE	    0E03	4593
CHK_TMC16H			  CODE	    0E3C	4650
CHK_TMC16L			  CODE	    0E3C	4655
CHK_TMC17H			  CODE	    0E6C	4713
CHK_TMC17L			  CODE	    0E70	4718
CHK_TMC18H			  CODE	    0EB9	4779
CHK_TMC18L			  CODE	    0EBD	4784
CHK_TMC19H			  CODE	    0F06	4848
CHK_TMC19L			  CODE	    0F0A	4853
CHK_TMC20L			  CODE	    1516	6092
CHK_TMC21L			  CODE	    156E	6157
CHK_TMC22L			  CODE	    15C6	6223
CHK_TMC23L			  CODE	    161E	6289
CHK_TMC24L			  CODE	    1676	6354

ASEM-51 V1.3                                        Copyright (c) 2002 by W.W. Heinz                                        PAGE 184



SYMBOL				  TYPE     VALUE	LINE
------------------------------------------------------------
CHK_TMC25L			  CODE	    16CE	6419
CHK_TMC26L			  CODE	    1726	6484
CHK_TMC27L			  CODE	    177E	6549
CHK_TMC28L			  CODE	    17D6	6615
CHK_TMC29L			  CODE	    182E	6680
CHK_TMC30L			  CODE	    1886	6745
CHK_TMC31L			  CODE	    18DE	6810
CHK_TMC32L			  CODE	    1936	6875
CHK_TMC33L			  CODE	    198E	6940
CHK_TMC40L			  CODE	    19E6	7009
CHK_TMC41L			  CODE	    1A3E	7076
CHK_TMC42L			  CODE	    1A96	7142
CHK_TMC43L			  CODE	    1AEE	7206
CLEAR_NXT_INT_RAM		  CODE	    00B5	1676
CLR_BIT_01			  CODE	    0562	2673
CLR_BIT_02			  CODE	    0569	2679
CLR_BIT_03			  CODE	    0570	2685
CLR_BIT_04			  CODE	    0577	2691
CLR_BIT_05			  CODE	    057E	2698
CLR_BIT_06			  CODE	    0585	2704
CLR_BIT_07			  CODE	    058C	2711
CLS_SLWDN_IP			  NUMBER    0056	 351
COIL_NOT_SET			  CODE	    0559	2666
COMPARE				  CODE	    0861	3366
COMPARE_TEMP5			  CODE	    224A	8744
CONTROL_TEMP			  CODE	    20C0	8370
CONTROL_TEMP2			  CODE	    2139	8482
CONT_MUL_32			  CODE	    0905	3513
CONV_ASC			  CODE	    07AF	3168
COUNTER_BITS			  NUMBER    0033	 465
COUNT_1S			  NUMBER    000F	 129
CT00C				  NUMBER    00E0	 469
CT00D				  NUMBER    00E0	 492
CT00R				  NUMBER    00E0	 480
CT00_CHK			  CODE	    25E0	9490
CT00_DONE			  CODE	    260C	9520
CT00_UPDATE			  CODE	    25F4	9504
CT01C				  NUMBER    00E1	 470
CT01D				  NUMBER    00E1	 493
CT01R				  NUMBER    00E1	 481
CT01_CHK			  CODE	    2629	9543
CT01_DONE			  CODE	    2655	9573
CT01_UPDATE			  CODE	    263D	9557
CT02C				  NUMBER    00E2	 471
CT02D				  NUMBER    00E2	 494
CT02R				  NUMBER    00E2	 482
CT02_CHK			  CODE	    2672	9594
CT02_DONE			  CODE	    269E	9624
CT02_UPDATE			  CODE	    2686	9608
CT03C				  NUMBER    00E3	 472
CT03D				  NUMBER    00E3	 495
CT03R				  NUMBER    00E3	 483
CT03_CHK			  CODE	    26BB	9645
CT04C				  NUMBER    00E4	 473
CT04D				  NUMBER    00E4	 496
CT04R				  NUMBER    00E4	 484

ASEM-51 V1.3                                        Copyright (c) 2002 by W.W. Heinz                                        PAGE 185



SYMBOL				  TYPE     VALUE	LINE
------------------------------------------------------------
CT04_CHK			  CODE	    26BB	9648
CT05C				  NUMBER    00E5	 474
CT05D				  NUMBER    00E5	 497
CT05R				  NUMBER    00E5	 485
CT05_CHK			  CODE	    26BB	9651
CT06C				  NUMBER    00E6	 475
CT06D				  NUMBER    00E6	 498
CT06R				  NUMBER    00E6	 486
CT06_CHK			  CODE	    26BB	9655
CT06_DONE			  CODE	    26E7	9685
CT06_UPDATE			  CODE	    26CF	9669
CT07C				  NUMBER    00E7	 476
CT07D				  NUMBER    00E7	 499
CT07R				  NUMBER    00E7	 487
CT07_CHK			  CODE	    2704	9708
CTC00H				  NUMBER    2300	 734
CTC00L				  NUMBER    2301	 735
CTC01H				  NUMBER    2302	 737
CTC01L				  NUMBER    2303	 738
CTC02H				  NUMBER    2304	 740
CTC02L				  NUMBER    2305	 741
CTC03H				  NUMBER    2306	 743
CTC03L				  NUMBER    2307	 744
CTC04H				  NUMBER    2308	 746
CTC04L				  NUMBER    2309	 747
CTC05H				  NUMBER    230A	 749
CTC05L				  NUMBER    230B	 750
CTC06H				  NUMBER    230C	 752
CTC06L				  NUMBER    230D	 753
CTC07H				  NUMBER    230E	 755
CTC07L				  NUMBER    230F	 756
CTRL2_ZONE2			  CODE	    2188	8550
CTRL2_ZONE3			  CODE	    21E3	8636
CTRL2_ZONE4			  CODE	    223E	8722
CTRL2_ZONE5			  CODE	    2299	8812
CTRL2_ZONE6			  CODE	    22F4	8895
CTR_CLK				  NUMBER    0033	 467
CTR_DONE			  NUMBER    0035	 490
CTR_HANDLER			  CODE	    25D7	9482
CTR_PREV_CLK			  NUMBER    0032	 458
CTR_RESET			  NUMBER    0034	 478
CTS00H				  NUMBER    1090	 672
CTS00L				  NUMBER    1091	 673
CTS01H				  NUMBER    1092	 675
CTS01L				  NUMBER    1093	 676
CTS02H				  NUMBER    1094	 678
CTS02L				  NUMBER    1095	 679
CTS03H				  NUMBER    1096	 681
CTS03L				  NUMBER    1097	 682
CTS04H				  NUMBER    1098	 684
CTS04L				  NUMBER    1099	 685
CTS05H				  NUMBER    109A	 687
CTS05L				  NUMBER    109B	 688
CTS06H				  NUMBER    109C	 690
CTS06L				  NUMBER    109D	 691
CTS07H				  NUMBER    109E	 693

ASEM-51 V1.3                                        Copyright (c) 2002 by W.W. Heinz                                        PAGE 186



SYMBOL				  TYPE     VALUE	LINE
------------------------------------------------------------
CTS07L				  NUMBER    109F	 694
CUTTER1_PB			  NUMBER    00E5	1224
CUTTER2_OP			  NUMBER    003E	 301
CUTTER2_PB			  NUMBER    00E7	1230
CUTTERON_TIME2_TM15D		  NUMBER    002F	 265
CUTTERON_TIME2_TM15E		  NUMBER    002E	 262
CUTTER_DELAY_NOT_STARTED	  CODE	    1C42	7482
CUTTER_DELAY_OVER		  CODE	    1C6F	7526
CUTTER_DLY_TM02D		  NUMBER    0015	 180
CUTTER_DLY_TM02E		  NUMBER    0014	 177
CUTTER_ON_TM03D			  NUMBER    0017	 186
CUTTER_ON_TM03E			  NUMBER    0016	 183
CUTTER_TIME_NOT_ON		  CODE	    1C67	7516
CY				  BIT	      D7
CYCLE_TIME_H			  NUMBER    23C0	 849
CYCLE_TIME_L			  NUMBER    23C1	 850
DC_INPUT0			  NUMBER    0029	 332
DC_INPUT1			  NUMBER    002A	 343
DELAY_OVER			  NUMBER    0006	 149
DIV_16BIT			  CODE	    082A	3315
DONT_CLEAR_PARISON_R		  CODE	    1EBD	7967
DONT_LOAD_OPS			  CODE	    08A5	3425
DONT_SET_PARISON_R		  CODE	    1EC5	7974
DOUBLE_CUT_SEL			  NUMBER    005D	 372
DOUBLE_CUT_SEL_BIT		  NUMBER    00E2	1242
DOWN				  CODE	    0146	1804
DOWN_FN_01			  CODE	    028F	2075
DOWN_FN_02			  CODE	    03DE	2348
DO_NOT_INC_BYTE_COUNTER_1	  CODE	    0389	2283
DO_NOT_LOAD_CYCLE_TIME		  CODE	    1C5D	7501
DO_NOT_LOAD_DATA_Z2		  CODE	    2179	8537
DO_NOT_LOAD_DATA_Z3		  CODE	    21D4	8622
DO_NOT_LOAD_DATA_Z4		  CODE	    222F	8708
DO_NOT_LOAD_DATA_Z5		  CODE	    228A	8798
DO_NOT_LOAD_DATA_Z6		  CODE	    22E5	8882
DO_NOT_RESET_HOURLY_COUNTER	  CODE	    2741	9754
DO_NOT_RESET_TM_ENABLE		  CODE	    1DEC	7817
DPH				  DATA	      83
DPL				  DATA	      82
EA				  BIT	      AF
EMERGENCY_IP			  NUMBER    004A	 336
EMERGENCY_PRESSED		  NUMBER    00E0	 880
END_CHARACTER_1			  NUMBER    000D	1533
END_CHARACTER_2			  NUMBER    000A	1534
ES				  BIT	      AC
ET0				  BIT	      A9
ET1				  BIT	      AB
EX0				  BIT	      A8
EX1				  BIT	      AA
EXHAUST_TM08D			  NUMBER    0021	 221
EXHAUST_TM08E			  NUMBER    0020	 218
EXTI0				  CODE	    0003
EXTI1				  CODE	    0013
EXTRUDER_MTR			  NUMBER    004B	 337
EXTRUDER_OFF			  NUMBER    00E6	1254
EXTRUDER_ON			  NUMBER    00E4	1248

ASEM-51 V1.3                                        Copyright (c) 2002 by W.W. Heinz                                        PAGE 187



SYMBOL				  TYPE     VALUE	LINE
------------------------------------------------------------
EXTRUDER_OP			  NUMBER    0067	 387
F0				  BIT	      D5
FIRST_BYTE			  NUMBER    0004	 147
FLAG_ADDRESS_RLY512		  NUMBER    5F40	1176
FN_CODE_01_QUERY		  CODE	    024C	2025
FN_CODE_02_QUERY		  CODE	    039B	2297
FN_CODE_03_REPLY		  CODE	    0186	1870
FN_CODE_05_QUERY		  CODE	    04EA	2575
FN_CODE_06_QUERY		  CODE	    01EC	1959
FN_CODE_0F_QUERY		  CODE	    05B6	2748
FN_CODE_10_QUERY		  CODE	    0634	2841
GENERAL_BIT_1			  NUMBER    0009	 155
GENERAL_BIT_2			  NUMBER    000A	 156
GENERAL_BIT_3			  NUMBER    000B	 157
GENERAL_BIT_4			  NUMBER    000C	 158
GENERAL_BIT_5			  NUMBER    000D	 159
GENERAL_BIT_6			  NUMBER    000E	 160
GENERAL_BIT_7			  NUMBER    000F	 161
GENERAL_PURPOSE_BITS_1		  NUMBER    0020	 141
GENERAL_PURPOSE_BITS_2		  NUMBER    0021	 152
GET_NEXT_DATA			  CODE	    01BD	1917
HEADER				  NUMBER    003A	1535
HEADER_SLAVE_ID			  CODE	    0721	3014
HEATER1				  NUMBER    0062	 382
HEATER1_OFF			  CODE	    2135	8473
HEATER1_ON			  CODE	    2135	8472
HEATER2				  NUMBER    0063	 383
HEATER2_OFF			  CODE	    2190	8560
HEATER2_ON			  CODE	    2190	8559
HEATER3				  NUMBER    0064	 384
HEATER3_OFF			  CODE	    21EB	8646
HEATER3_ON			  CODE	    21EB	8645
HEATER4				  NUMBER    0065	 385
HEATER4_OFF			  CODE	    2246	8732
HEATER4_ON			  CODE	    2246	8731
HEATER5				  NUMBER    0066	 386
HEATER5_OFF			  CODE	    22A1	8821
HEATER5_ON			  CODE	    22A1	8820
HEATER6				  NUMBER    00E4	 451
HEATER6_OFF			  CODE	    22FC	8904
HEATER6_ON			  CODE	    22FC	8903
HEATER7_OP			  NUMBER    00E5	 452
HEATER_CYCLE_TIME		  NUMBER    00C8	8372
HEATER_ON_OFF			  NUMBER    0059	 361
HEATER_ON_OFF_BIT		  NUMBER    00E1	1239
HEX_TO_ASCII			  CODE	    080A	3271
HOME_POSN_NOT_ACHIEVED		  CODE	    1BA8	7356
HUND_MSEC_BIT			  NUMBER    0008	 154
H_T_A_1				  CODE	    0814	3279
H_T_A_2				  CODE	    0818	3284
H_T_A_3				  CODE	    0823	3293
H_T_A_4				  CODE	    0827	3298
IE				  DATA	      A8
IE0				  BIT	      89
IE1				  BIT	      8B
INCREMENT_BYTE_CNT		  CODE	    02A2	2087

ASEM-51 V1.3                                        Copyright (c) 2002 by W.W. Heinz                                        PAGE 188



SYMBOL				  TYPE     VALUE	LINE
------------------------------------------------------------
INCREMENT_BYTE_CNT_FN_CODE_02	  CODE	    03F1	2360
INIT				  CODE	    0026	1552
INITALISE_RECEIVE		  CODE	    06F5	2977
INIT_1				  CODE	    0048	1567
INIT_RCVE			  CODE	    007E	1628
INIT_TIMER0			  CODE	    0051	1581
INIT_TIMER1			  CODE	    0075	1616
INIT_XMIT			  CODE	    0088	1640
INPUT_ADDRESS			  NUMBER    F800	 105
INT0				  BIT	      B2
INT1				  BIT	      B3
IP				  DATA	      B8
IP_DEBOUNCE			  NUMBER    0037	 503
ISR_T0				  CODE	    0061	1595
IT0				  BIT	      88
IT1				  BIT	      8A
JUMP_BACK			  CODE	    0184	1863
LADDER				  CODE	    1B6D	7302
LADDER_INIT_2			  CODE	    1B25	7256
LAST_BYTE			  NUMBER    0005	 148
LOAD_OPS			  CODE	    0883	3404
LOAD_OUTPUT			  CODE	    087B	3397
LOAD_TRANSMIT_BUFFER_FN_CODE_01	  CODE	    0271	2048
LOAD_TRANSMIT_BUFFER_FN_CODE_02	  CODE	    03C0	2321
LOCATE_BIT			  CODE	    02D7	2141
LOCATE_BIT_FN_CODE_02		  CODE	    0426	2414
LOCKING_SEL			  NUMBER    0058	 358
LOCKING_SEL_BIT			  NUMBER    00E3	1245
LOOK_UP_TABLE			  CODE	    0931	3562
LOOP1_CALLRC			  CODE	    07CA	3207
LOOP1_SERIAL			  CODE	    0737	3049
LOOP2_SERIAL			  CODE	    073F	3056
LOOP2_TRANS			  CODE	    0783	3114
LOOP3_TRANS			  CODE	    0786	3118
LOW_LIMIT_CHK			  CODE	    2305	8919
LOW_LIMIT_H			  NUMBER    103E	 558
LOW_LIMIT_L			  NUMBER    103F	 559
LOW_LIM_Z1			  NUMBER    0070	 406
LOW_LIM_Z2			  NUMBER    0071	 409
LOW_LIM_Z3			  NUMBER    0072	 412
LOW_LIM_Z4			  NUMBER    0073	 415
LOW_LIM_Z5			  NUMBER    0074	 418
LOW_LIM_Z6			  NUMBER    0075	 421
LOW_LIM_Z7			  NUMBER    0076	 424
LOW_LIM_Z8			  NUMBER    0077	 427
LRC_CODE			  NUMBER    000C	 126
LRC_HI				  NUMBER    000D	 127
LRC_LO				  NUMBER    000E	 128
LUT_RTU_ASC			  CODE	    07B4	3174
MAIN				  CODE	    0092	1650
MAIN_LOOP			  CODE	    00E3	1734
MAIN_ROUTINE			  CODE	    00E6	1741
MLD_CLS_DLY_NOT_STARTED		  CODE	    1BFA	7426
MLD_CLS_TM_D			  NUMBER    0041	 311
MLD_CLS_TM_E			  NUMBER    0040	 308
MORE_THAN_EIGHT_TO_READ		  CODE	    0306	2175

ASEM-51 V1.3                                        Copyright (c) 2002 by W.W. Heinz                                        PAGE 189



SYMBOL				  TYPE     VALUE	LINE
------------------------------------------------------------
MORE_THAN_EIGHT_TO_READ_FN_CODE	  CODE	    0455	2448
MOULDCLOSE_SLOW_TM10D		  NUMBER    0025	 233
MOULDCLOSE_SLOW_TM10E		  NUMBER    0024	 230
MOULDIN_DLY_TM14D		  NUMBER    002D	 259
MOULDIN_DLY_TM14E		  NUMBER    002C	 256
MOULDIN_SLOW_TM09D		  NUMBER    0023	 227
MOULDIN_SLOW_TM09E		  NUMBER    0022	 224
MOULDOUT_DLY_TM19D		  NUMBER    0037	 288
MOULDOUT_DLY_TM19E		  NUMBER    0036	 285
MOULDOUT_SLOW_TM11D		  NUMBER    0027	 239
MOULDOUT_SLOW_TM11E		  NUMBER    0026	 236
MOULD_CLOSE_DLY_TM01D		  NUMBER    0013	 174
MOULD_CLOSE_DLY_TM01E		  NUMBER    0012	 171
MOULD_CLOSE_IP			  NUMBER    0057	 352
MOULD_CLOSE_NOT_OVER		  CODE	    1C38	7469
MOULD_CLOSE_OP			  NUMBER    0038	 295
MOULD_CLOSE_OVER		  NUMBER    0069	 393
MOULD_CLOSE_PB			  NUMBER    00E0	1209
MOULD_CLOSE_PB_IP		  NUMBER    0050	 345
MOULD_IN_DLY_NOT_STARTED	  CODE	    1BB6	7370
MOULD_IN_ERR			  NUMBER    00E4	 873
MOULD_IN_IP			  NUMBER    004C	 338
MOULD_IN_NOT_OVER		  CODE	    1BEC	7414
MOULD_IN_OP			  NUMBER    003B	 298
MOULD_IN_OVER			  NUMBER    0068	 392
MOULD_IN_PB			  NUMBER    00E3	1218
MOULD_IN_PB_IP			  NUMBER    0052	 347
MOULD_IN_SLOW_IP		  NUMBER    004E	 340
MOULD_IN_TM00D			  NUMBER    0011	 168
MOULD_IN_TM00E			  NUMBER    0010	 165
MOULD_OPEN_ERR			  NUMBER    00E2	 882
MOULD_OPEN_IP			  NUMBER    0048	 334
MOULD_OPEN_OP			  NUMBER    0039	 296
MOULD_OPEN_PB			  NUMBER    00E1	1212
MOULD_OPEN_PB_IP		  NUMBER    0051	 346
MOULD_OPEN_SLOW_TM105D		  NUMBER    00E3	1457
MOULD_OPEN_SLOW_TM105E		  NUMBER    00E2	1454
MOULD_OUT_ERR			  NUMBER    00E1	 881
MOULD_OUT_IP			  NUMBER    004D	 339
MOULD_OUT_NOT_OVER		  CODE	    1CE2	7611
MOULD_OUT_OP			  NUMBER    003C	 299
MOULD_OUT_OVER			  NUMBER    006A	 394
MOULD_OUT_PB			  NUMBER    00E4	1221
MOULD_OUT_PB_IP			  NUMBER    0053	 348
MOULD_OUT_SLOW_IP		  NUMBER    004F	 341
MOV_RES_LEFT			  CODE	    0922	3545
MULTIPLICATION			  CODE	    08FC	3504
MUL_OV_32			  CODE	    0921	3541
NEXT_BYTE_FN_CODE_0F		  CODE	    05FA	2795
NEXT_DATA			  CODE	    05E0	2775
NEXT_DATA_REG			  CODE	    0641	2849
NEXT_LOCN			  CODE	    00CB	1708
NEXT_LOCN1			  CODE	    00C9	1704
NON_BATBACKUP_WORDS		  NUMBER    2388	 762
NON_BATT_BITS			  CODE	    00BE	1691
NON_BAT_BACKUP_BITS		  NUMBER    5FC0	1331

ASEM-51 V1.3                                        Copyright (c) 2002 by W.W. Heinz                                        PAGE 190



SYMBOL				  TYPE     VALUE	LINE
------------------------------------------------------------
NOT_100MSEC			  CODE	    14F1	6065
NOT_10MSEC			  CODE	    0954	3624
NOT_EQUAL			  CODE	    0878	3388
NOT_LESS			  CODE	    0872	3381
NOT_MY_SCAN			  CODE	    08D2	3466
NOT_MY_SCAN_TC			  CODE	    0123	1768
NO_DPTR_INCREASE		  CODE	    01C8	1926
NO_INCREMENT_BYTE_CNT		  CODE	    02A5	2092
NO_INCREMENT_BYTE_CNT_FN_CODE_0	  CODE	    03F4	2365
NUM1H				  NUMBER    0005	3361
NUM1L				  NUMBER    0004	3360
NUM2H				  NUMBER    0003	3363
NUM2L				  NUMBER    0002	3362
ON_OFF_BAND_Z1			  CODE	    20EB	8422
ON_OFF_BAND_Z2			  CODE	    2160	8518
ON_OFF_BAND_Z3			  CODE	    21BB	8603
ON_OFF_BAND_Z4			  CODE	    2216	8689
ON_OFF_BAND_Z5			  CODE	    2271	8779
ON_OFF_BAND_Z6			  CODE	    22CC	8863
OUT00				  NUMBER    00E0	1143
OUT01				  NUMBER    00E1	1144
OUT02				  NUMBER    00E2	1145
OUT03				  NUMBER    00E3	1146
OUT04				  NUMBER    00E4	1147
OUT05				  NUMBER    00E5	1148
OUT06				  NUMBER    00E6	1149
OUT07				  NUMBER    00E7	1150
OUT08				  NUMBER    00E0	1154
OUT09				  NUMBER    00E1	1155
OUT0_7				  NUMBER    0027	 293
OUT10				  NUMBER    00E2	1156
OUT11				  NUMBER    00E3	1157
OUT12				  NUMBER    00E4	1158
OUT13				  NUMBER    00E5	1159
OUT14				  NUMBER    00E6	1160
OUT15				  NUMBER    00E7	1161
OUT16				  NUMBER    00E0	1164
OUT16_23			  NUMBER    0030	 444
OUT17				  NUMBER    00E1	1165
OUT18				  NUMBER    00E2	1166
OUT19				  NUMBER    00E3	1167
OUT20				  NUMBER    00E4	1168
OUT21				  NUMBER    00E5	1169
OUT22				  NUMBER    00E6	1170
OUT23				  NUMBER    00E7	1171
OUT8_15				  NUMBER    002C	 378
OUTPUT00_07			  NUMBER    5F00	1142
OUTPUT08_15			  NUMBER    5F01	1153
OUTPUT16_23			  NUMBER    5F02	1163
OUTPUT_ADDRESS			  NUMBER    E800	 104
OUT_ISRT0			  CODE	    0074	1609
OUT_RCVE			  CODE	    075F	3085
OUT_TRANS			  CODE	    0788	3122
OV				  BIT	      D2
P				  BIT	      D0
P0				  DATA	      80

ASEM-51 V1.3                                        Copyright (c) 2002 by W.W. Heinz                                        PAGE 191



SYMBOL				  TYPE     VALUE	LINE
------------------------------------------------------------
P1				  DATA	      90
P2				  DATA	      A0
P3				  DATA	      B0
PARISON1_DLY_D			  NUMBER    00E1	1480
PARISON1_DLY_E			  NUMBER    00E0	1477
PARISON1_TIM_D			  NUMBER    00E3	1486
PARISON1_TIM_E			  NUMBER    00E2	1483
PARISON2_DLY_D			  NUMBER    00E5	1492
PARISON2_DLY_E			  NUMBER    00E4	1489
PARISON2_TIM_D			  NUMBER    00E7	1498
PARISON2_TIM_E			  NUMBER    00E6	1495
PARISON3_DLY_D			  NUMBER    00E1	1507
PARISON3_DLY_E			  NUMBER    00E0	1504
PARISON3_TIM_D			  NUMBER    00E3	1513
PARISON3_TIM_E			  NUMBER    00E2	1510
PARISON4_DLY_D			  NUMBER    00E5	1519
PARISON4_DLY_E			  NUMBER    00E4	1516
PARISON4_TIM_D			  NUMBER    00E7	1525
PARISON4_TIM_E			  NUMBER    00E6	1522
PARISON_DLY_TM12D		  NUMBER    0029	 247
PARISON_DLY_TM12E		  NUMBER    0028	 244
PARISON_ON_TIME_TM13D		  NUMBER    002B	 253
PARISON_ON_TIME_TM13E		  NUMBER    002A	 250
PARISON_SEL			  NUMBER    006D	 397
PARISON_SEL_BIT			  NUMBER    00E6	1284
PARISON_START			  NUMBER    006C	 396
PARISON_THICK_PB		  NUMBER    00E5	1280
PARISON_THIN_PB			  NUMBER    00E4	1276
PCON				  DATA	      87
PINDN_SLOW_TM102D		  NUMBER    0045	 323
PINDN_SLOW_TM102E		  NUMBER    0044	 320
PINDN_TM101D			  NUMBER    0043	 317
PINDN_TM101E			  NUMBER    0042	 314
PINUP_SLOW_TM103D		  NUMBER    0047	 329
PINUP_SLOW_TM103E		  NUMBER    0046	 326
POWER_ON_STATE			  NUMBER    0036	 502
PREBLOW_TM05D			  NUMBER    001B	 200
PREBLOW_TM05E			  NUMBER    001A	 197
PREV_DCINP0			  NUMBER    001E	 136
PREV_DCINP1			  NUMBER    001F	 137
PREV_RECEIPE			  NUMBER    001D	 135
PROD_CNT_RST			  NUMBER    00E6	1200
PROD_COUNTER			  CODE	    2705	9716
PS				  BIT	      BC
PSW				  DATA	      D0
PT0				  BIT	      B9
PT1				  BIT	      BB
PX0				  BIT	      B8
PX1				  BIT	      BA
R0_ADDR				  NUMBER    0000	3032
RB8				  BIT	      9A
RCLK00				  NUMBER    0001	9473
RCLK01				  NUMBER    0002	9474
RCLK02				  NUMBER    0004	9475
RCLK03				  NUMBER    0008	9476
RCLK04				  NUMBER    0010	9477

ASEM-51 V1.3                                        Copyright (c) 2002 by W.W. Heinz                                        PAGE 192



SYMBOL				  TYPE     VALUE	LINE
------------------------------------------------------------
RCLK05				  NUMBER    0020	9478
RCLK06				  NUMBER    0040	9479
RCLK07				  NUMBER    0080	9480
RCVE				  CODE	    0743	3064
RCVE_OVER			  NUMBER    0000	 143
RD				  BIT	      B7
READ_ADC			  CODE	    08D3	3472
READ_INPUTS			  CODE	    08A6	3430
READ_LESS_THAN_EIGHT		  CODE	    033F	2214
READ_LESS_THAN_EIGHT_FN_CODE_02	  CODE	    048E	2487
READ_MORE_THAN_1_BIT		  CODE	    02E5	2155
READ_MORE_THAN_1_BIT_FN_CODE_02	  CODE	    0434	2428
RELOAD_BACK_DATA		  CODE	    058E	2716
REMAINDER			  NUMBER    0039	 505
REN				  BIT	      9C
REPEAT				  CODE	    02D3	2135
REPEAT_05_REPLY			  CODE	    0594	2726
REPEAT_0F_REPLY			  CODE	    0605	2812
REPEAT_FN_CODE_02		  CODE	    0422	2408
REPEAT_TRANSFER_FROM_RX_TX	  CODE	    022A	1999
REPEAT_TRANSFER_FROM_RX_TX_FN_C	  CODE	    069E	2907
REPLY_05_START			  CODE	    058F	2720
REPLY_BIT_LOADED		  CODE	    037C	2270
REPLY_BIT_LOADED_FN_CODE_02	  CODE	    04CB	2543
RESET				  CODE	    0000
RESET_SERIAL_COMMUNICATION	  CODE	    06F1	2970
RESET_WATCHDOG			  CODE	    093A	3584
RI				  BIT	      98
RLY01				  NUMBER    0058	 357
RLY01_08			  NUMBER    002B	 355
RLY02				  NUMBER    0059	 360
RLY03				  NUMBER    005A	 363
RLY04				  NUMBER    005B	 366
RLY05				  NUMBER    005C	 368
RLY06				  NUMBER    005D	 371
RLY07				  NUMBER    005E	 374
RLY08				  NUMBER    005F	 375
RLY09_16			  NUMBER    0030	 443
RLY1536_1543			  NUMBER    5FC0	1334
RLY1537				  NUMBER    00E0	1338
RLY1538				  NUMBER    00E1	1341
RLY1539				  NUMBER    00E2	1344
RLY1540				  NUMBER    00E3	1347
RLY1541				  NUMBER    00E4	1350
RLY1542				  NUMBER    00E5	1353
RLY1543				  NUMBER    00E6	1356
RLY1544				  NUMBER    00E7	1359
RLY1544_1551			  NUMBER    5FC1	1363
RLY1545				  NUMBER    00E0	1367
RLY1546				  NUMBER    00E1	1370
RLY1547				  NUMBER    00E2	1373
RLY1548				  NUMBER    00E3	1376
RLY1549				  NUMBER    00E4	1379
RLY1550				  NUMBER    00E5	1382
RLY1551				  NUMBER    00E6	1385
RLY1552				  NUMBER    00E7	1388

ASEM-51 V1.3                                        Copyright (c) 2002 by W.W. Heinz                                        PAGE 193



SYMBOL				  TYPE     VALUE	LINE
------------------------------------------------------------
RLY1552_1559			  NUMBER    5FC2	1394
RLY1553				  NUMBER    00E0	1399
RLY1554				  NUMBER    00E1	1402
RLY1555				  NUMBER    00E2	1405
RLY1556				  NUMBER    00E3	1408
RLY1557				  NUMBER    00E4	1411
RLY1558				  NUMBER    00E5	1414
RLY1559				  NUMBER    00E6	1417
RLY1560				  NUMBER    00E7	1420
RLY1560_1567			  NUMBER    5FC3	1424
RLY1568_1575			  NUMBER    5FC4	1438
RLY1576_1583			  NUMBER    5FC5	1441
RLY1584_1591			  NUMBER    5FC6	1445
RLY17_24			  NUMBER    002D	 390
RLY25				  NUMBER    0070	 407
RLY25_32			  NUMBER    002E	 404
RLY26				  NUMBER    0071	 410
RLY27				  NUMBER    0072	 413
RLY28				  NUMBER    0073	 416
RLY29				  NUMBER    0074	 419
RLY30				  NUMBER    0075	 422
RLY31				  NUMBER    0076	 425
RLY32				  NUMBER    0077	 428
RLY33				  NUMBER    0078	 432
RLY33_40			  NUMBER    002F	 430
RLY34				  NUMBER    0079	 433
RLY35				  NUMBER    007A	 434
RLY36				  NUMBER    007B	 435
RLY37				  NUMBER    007C	 436
RLY38				  NUMBER    007D	 437
RLY39				  NUMBER    007E	 438
RLY40				  NUMBER    007F	 439
RLY512				  NUMBER    00E0	1180
RLY512_519			  NUMBER    5F40	1178
RLY513				  NUMBER    00E1	1183
RLY514				  NUMBER    00E2	1184
RLY515				  NUMBER    00E3	1185
RLY516				  NUMBER    00E4	1186
RLY517				  NUMBER    00E5	1187
RLY518				  NUMBER    00E6	1188
RLY519				  NUMBER    00E7	1189
RLY520				  NUMBER    00E0	1193
RLY520_527			  NUMBER    5F41	1191
RLY521				  NUMBER    00E1	1194
RLY522				  NUMBER    00E2	1195
RLY523				  NUMBER    00E3	1196
RLY524				  NUMBER    00E4	1197
RLY525				  NUMBER    00E5	1198
RLY526				  NUMBER    00E6	1199
RLY527				  NUMBER    00E7	1202
RLY528				  NUMBER    00E0	1208
RLY528_535			  NUMBER    5F42	1206
RLY529				  NUMBER    00E1	1211
RLY530				  NUMBER    00E2	1214
RLY531				  NUMBER    00E3	1217
RLY532				  NUMBER    00E4	1220

ASEM-51 V1.3                                        Copyright (c) 2002 by W.W. Heinz                                        PAGE 194



SYMBOL				  TYPE     VALUE	LINE
------------------------------------------------------------
RLY533				  NUMBER    00E5	1223
RLY534				  NUMBER    00E6	1226
RLY535				  NUMBER    00E7	1229
RLY536				  NUMBER    00E0	1235
RLY536_543			  NUMBER    5F43	1233
RLY537				  NUMBER    00E1	1238
RLY538				  NUMBER    00E2	1241
RLY539				  NUMBER    00E3	1244
RLY540				  NUMBER    00E4	1247
RLY541				  NUMBER    00E5	1250
RLY542				  NUMBER    00E6	1253
RLY543				  NUMBER    00E7	1256
RLY544				  NUMBER    00E0	1262
RLY544_551			  NUMBER    5F44	1260
RLY545				  NUMBER    00E1	1266
RLY546				  NUMBER    00E2	1269
RLY547				  NUMBER    00E3	1272
RLY548				  NUMBER    00E4	1275
RLY549				  NUMBER    00E5	1279
RLY550				  NUMBER    00E6	1283
RLY551				  NUMBER    00E7	1287
RLY552				  NUMBER    00E0	1293
RLY552_559			  NUMBER    5F45	1291
RLY553				  NUMBER    00E1	1296
RLY554				  NUMBER    00E2	1299
RLY555				  NUMBER    00E3	1302
RLY556				  NUMBER    00E4	1305
RLY557				  NUMBER    00E5	1308
RLY558				  NUMBER    00E6	1311
RLY559				  NUMBER    00E7	1314
RLY560_567			  NUMBER    5F46	1318
RLY592_599			  NUMBER    5F4A	1323
RS0				  BIT	      D3
RS1				  BIT	      D4
RSLT_0				  NUMBER    001A	 132
RSLT_1				  NUMBER    001B	 133
RXD				  BIT	      B0
RX_BUF				  NUMBER    0400	 512
SAVE_DATA			  CODE	    05E7	2783
SBUF				  DATA	      99
SCON				  DATA	      98
SCRATCHPAD_0			  NUMBER    0080	 460
SCRATCHPAD_1			  NUMBER    0081	 461
SCRATCHPAD_2			  NUMBER    0082	 462
SCRATCHPAD_3			  NUMBER    0083	 463
SEALING_DELAY_TM17D		  NUMBER    0033	 276
SEALING_DELAY_TM17E		  NUMBER    0032	 273
SEALING_PB			  NUMBER    00E0	1263
SEALING_SEL			  NUMBER    00E5	1251
SEALING_TIME_TM18D		  NUMBER    0035	 282
SEALING_TIME_TM18E		  NUMBER    0034	 279
SECOND_CLK			  NUMBER    001C	 134
SERIAL				  CODE	    0730	3034
SET_BIT_01			  CODE	    052B	2622
SET_BIT_02			  CODE	    0532	2628
SET_BIT_03			  CODE	    0539	2634

ASEM-51 V1.3                                        Copyright (c) 2002 by W.W. Heinz                                        PAGE 195



SYMBOL				  TYPE     VALUE	LINE
------------------------------------------------------------
SET_BIT_04			  CODE	    0540	2640
SET_BIT_05			  CODE	    0547	2647
SET_BIT_06			  CODE	    054E	2653
SET_BIT_07			  CODE	    0555	2660
SET_EXTRUDER_DONE		  CODE	    1F9C	8133
SET_TMR01_DONE			  CODE	    09E2	3740
SET_TMR02_DONE			  CODE	    0A2F	3801
SET_TMR03_DONE			  CODE	    0A7C	3862
SET_TMR04_DONE			  CODE	    0AC9	3924
SET_TMR05_DONE			  CODE	    0B16	3986
SET_TMR06_DONE			  CODE	    0B63	4048
SET_TMR07_DONE			  CODE	    0BB0	4110
SET_TMR08_DONE			  CODE	    0BFD	4173
SET_TMR09_DONE			  CODE	    0C4A	4236
SET_TMR100_DONE			  CODE	    0F6C	4935
SET_TMR101_DONE			  CODE	    0FB9	4997
SET_TMR102_DONE			  CODE	    1006	5059
SET_TMR103_DONE			  CODE	    1053	5121
SET_TMR104_DONE			  CODE	    10A9	5190
SET_TMR105_DONE			  CODE	    1109	5263
SET_TMR106_DONE			  CODE	    1169	5336
SET_TMR107_DONE			  CODE	    11C9	5409
SET_TMR10_DONE			  CODE	    0C97	4299
SET_TMR11_DONE			  CODE	    0CE4	4361
SET_TMR120_DONE			  CODE	    1229	5483
SET_TMR121_DONE			  CODE	    1289	5561
SET_TMR122_DONE			  CODE	    12E9	5639
SET_TMR123_DONE			  CODE	    1349	5716
SET_TMR124_DONE			  CODE	    13A9	5793
SET_TMR125_DONE			  CODE	    1409	5870
SET_TMR126_DONE			  CODE	    1469	5947
SET_TMR127_DONE			  CODE	    14C9	6024
SET_TMR12_DONE			  CODE	    0D31	4423
SET_TMR13_DONE			  CODE	    0D7E	4487
SET_TMR14_DONE			  CODE	    0DCB	4549
SET_TMR15_DONE			  CODE	    0E18	4612
SET_TMR16_DONE			  CODE	    0E3C	4674
SET_TMR17_DONE			  CODE	    0E85	4737
SET_TMR18_DONE			  CODE	    0ED2	4803
SET_TMR19_DONE			  CODE	    0F1F	4872
SET_TMR20_DONE			  CODE	    1525	6106
SET_TMR21_DONE			  CODE	    157D	6171
SET_TMR22_DONE			  CODE	    15D5	6237
SET_TMR23_DONE			  CODE	    162D	6303
SET_TMR24_DONE			  CODE	    1685	6368
SET_TMR25_DONE			  CODE	    16DD	6433
SET_TMR26_DONE			  CODE	    1735	6498
SET_TMR27_DONE			  CODE	    178D	6563
SET_TMR28_DONE			  CODE	    17E5	6629
SET_TMR29_DONE			  CODE	    183D	6694
SET_TMR30_DONE			  CODE	    1895	6759
SET_TMR31_DONE			  CODE	    18ED	6824
SET_TMR32_DONE			  CODE	    1945	6889
SET_TMR33_DONE			  CODE	    199D	6954
SET_TMR40_DONE			  CODE	    19F5	7023
SET_TMR41_DONE			  CODE	    1A4D	7090

ASEM-51 V1.3                                        Copyright (c) 2002 by W.W. Heinz                                        PAGE 196



SYMBOL				  TYPE     VALUE	LINE
------------------------------------------------------------
SET_TMR42_DONE			  CODE	    1AA5	7156
SET_TMR43_DONE			  CODE	    1AFD	7220
SET_TMR_DONE			  CODE	    0994	3675
SINGLE_CUT_NOT_SEL		  CODE	    1C8C	7549
SINT				  CODE	    0023
SM0				  BIT	      9F
SM1				  BIT	      9E
SM2				  BIT	      9D
SMALLPUMP_OP			  NUMBER    0060	 380
SMALL_PUMP_PB			  NUMBER    00E2	1270
SP				  DATA	      81
START_ADDRESS_DATA_REG		  NUMBER    1000	 514
START_CURRENT_LOCNS		  NUMBER    1000	 523
START_PARISON_TIMERS		  CODE	    1EC5	7977
START_SEQUENCE			  CODE	    1B9E	7343
START_TRANSMISSION_OF_REPLY	  CODE	    06ED	2964
T0				  BIT	      B4
T1				  BIT	      B5
TB8				  BIT	      9B
TCON				  DATA	      88
TC_DEBOUNCE			  NUMBER    0038	 504
TEMP				  NUMBER    0009	 123
TEMP1				  NUMBER    0010	 130
TEMP2				  NUMBER    0011	 131
TEMP_CAL_FACTOR_HI		  NUMBER    0018	  92
TEMP_CAL_FACTOR_LO		  NUMBER    00A0	  93
TEMP_CUR_VALUES			  NUMBER    2420	 891
TEMP_DIFF_5_TO_10		  NUMBER    0004	8373
TEMP_IP_12_H			  NUMBER    F819	 108
TEMP_IP_12_L			  NUMBER    F818	 107
TEMP_LESS_THAN_SET		  CODE	    20DF	8409
TEMP_LESS_THAN_SET_Z2		  CODE	    2154	8505
TEMP_LESS_THAN_SET_Z3		  CODE	    21AF	8590
TEMP_LESS_THAN_SET_Z4		  CODE	    220A	8676
TEMP_LESS_THAN_SET_Z5		  CODE	    2265	8766
TEMP_LESS_THAN_SET_Z6		  CODE	    22C0	8850
TEMP_SET1_OK			  CODE	    231E	8936
TEMP_SET2_OK			  CODE	    234A	8969
TEMP_SET3_OK			  CODE	    2376	9001
TEMP_SET4_OK			  CODE	    23A2	9036
TEMP_SET5_OK			  CODE	    23CE	9071
TEMP_SET6_OK			  CODE	    23FA	9107
TEN_MSEC_BIT			  NUMBER    0003	 146
TF0				  BIT	      8D
TF1				  BIT	      8F
TH0				  DATA	      8C
TH1				  DATA	      8D
THICK_OP			  NUMBER    00E7	 454
THIN_OP				  NUMBER    00E6	 453
TI				  BIT	      99
TIMECT				  NUMBER    000A	 124
TIMER0				  CODE	    000B
TIMER1				  CODE	    001B
TIME_LESS_HUND_MILLISEC		  CODE	    14E8	6057
TIME_LESS_TEM_MILLISEC		  CODE	    0949	3615
TL0				  DATA	      8A

ASEM-51 V1.3                                        Copyright (c) 2002 by W.W. Heinz                                        PAGE 197



SYMBOL				  TYPE     VALUE	LINE
------------------------------------------------------------
TL1				  DATA	      8B
TM00D				  NUMBER    0011	 169
TM00E				  NUMBER    0010	 166
TM00_HANDLER			  CODE	    0954	3627
TM01D				  NUMBER    0013	 175
TM01E				  NUMBER    0012	 172
TM01_HANDLER			  CODE	    09A1	3692
TM02D				  NUMBER    0015	 181
TM02E				  NUMBER    0014	 178
TM02_HANDLER			  CODE	    09EF	3754
TM03D				  NUMBER    0017	 187
TM03E				  NUMBER    0016	 184
TM03_HANDLER			  CODE	    0A3C	3815
TM04D				  NUMBER    0019	 195
TM04E				  NUMBER    0018	 192
TM04_HANDLER			  CODE	    0A89	3877
TM05D				  NUMBER    001B	 201
TM05E				  NUMBER    001A	 198
TM05_HANDLER			  CODE	    0AD6	3938
TM06D				  NUMBER    001D	 207
TM06E				  NUMBER    001C	 204
TM06_HANDLER			  CODE	    0B23	4000
TM07D				  NUMBER    001F	 213
TM07E				  NUMBER    001E	 210
TM07_HANDLER			  CODE	    0B70	4062
TM08D				  NUMBER    0021	 222
TM08E				  NUMBER    0020	 219
TM08_HANDLER			  CODE	    0BBD	4124
TM09D				  NUMBER    0023	 228
TM09E				  NUMBER    0022	 225
TM09_HANDLER			  CODE	    0C0A	4187
TM100D				  NUMBER    0041	 310
TM100E				  NUMBER    0040	 307
TM100_HANDLER			  CODE	    0F2C	4887
TM100_TM103			  NUMBER    0028	 304
TM101D				  NUMBER    0043	 316
TM101E				  NUMBER    0042	 313
TM101_HANDLER			  CODE	    0F79	4949
TM102D				  NUMBER    0045	 322
TM102E				  NUMBER    0044	 319
TM102_HANDLER			  CODE	    0FC6	5011
TM103D				  NUMBER    0047	 328
TM103E				  NUMBER    0046	 325
TM103_HANDLER			  CODE	    1013	5073
TM104D				  NUMBER    00E1	1450
TM104E				  NUMBER    00E0	1447
TM104_ENABLE			  NUMBER    5FC6	1444
TM104_HANDLER			  CODE	    1060	5135
TM105D				  NUMBER    00E3	1456
TM105E				  NUMBER    00E2	1453
TM105_HANDLER			  CODE	    10C0	5210
TM106D				  NUMBER    00E5	1461
TM106E				  NUMBER    00E4	1460
TM106_HANDLER			  CODE	    1120	5283
TM107D				  NUMBER    00E7	1463
TM107E				  NUMBER    00E6	1462

ASEM-51 V1.3                                        Copyright (c) 2002 by W.W. Heinz                                        PAGE 198



SYMBOL				  TYPE     VALUE	LINE
------------------------------------------------------------
TM107_HANDLER			  CODE	    1180	5356
TM108_HANDLER			  CODE	    11E0	5429
TM10D				  NUMBER    0025	 234
TM10E				  NUMBER    0024	 231
TM10_HANDLER			  CODE	    0C57	4251
TM11D				  NUMBER    0027	 240
TM11E				  NUMBER    0026	 237
TM11_HANDLER			  CODE	    0CA4	4313
TM120D				  NUMBER    00E1	1479
TM120E				  NUMBER    00E0	1476
TM120_ENABLE_1			  NUMBER    5FCA	1474
TM120_END			  CODE	    1240	5505
TM120_HANDLER			  CODE	    11E0	5430
TM121D				  NUMBER    00E3	1485
TM121E				  NUMBER    00E2	1482
TM121_END			  CODE	    12A0	5583
TM121_HANDLER			  CODE	    1240	5508
TM122D				  NUMBER    00E5	1491
TM122E				  NUMBER    00E4	1488
TM122_END			  CODE	    1300	5661
TM122_HANDLER			  CODE	    12A0	5586
TM123D				  NUMBER    00E7	1497
TM123E				  NUMBER    00E6	1494
TM123_END			  CODE	    1360	5738
TM123_HANDLER			  CODE	    1300	5663
TM124D				  NUMBER    00E1	1506
TM124E				  NUMBER    00E0	1503
TM124_ENABLE_1			  NUMBER    5FCB	1501
TM124_END			  CODE	    13C0	5815
TM124_HANDLER			  CODE	    1360	5740
TM125D				  NUMBER    00E3	1512
TM125E				  NUMBER    00E2	1509
TM125_END			  CODE	    1420	5892
TM125_HANDLER			  CODE	    13C0	5817
TM126D				  NUMBER    00E5	1518
TM126E				  NUMBER    00E4	1515
TM126_END			  CODE	    1480	5969
TM126_HANDLER			  CODE	    1420	5894
TM127D				  NUMBER    00E7	1524
TM127E				  NUMBER    00E6	1521
TM127_END			  CODE	    14E0	6046
TM127_HANDLER			  CODE	    1480	5971
TM128_HANDLER			  CODE	    14E0	6048
TM12D				  NUMBER    0029	 248
TM12E				  NUMBER    0028	 245
TM12_HANDLER			  CODE	    0CF1	4375
TM13D				  NUMBER    002B	 254
TM13E				  NUMBER    002A	 251
TM13_HANDLER			  CODE	    0D3E	4439
TM14D				  NUMBER    002D	 260
TM14E				  NUMBER    002C	 257
TM14_HANDLER			  CODE	    0D8B	4501
TM15D				  NUMBER    002F	 266
TM15E				  NUMBER    002E	 263
TM15_HANDLER			  CODE	    0DD8	4563
TM16D				  NUMBER    0031	 271

ASEM-51 V1.3                                        Copyright (c) 2002 by W.W. Heinz                                        PAGE 199



SYMBOL				  TYPE     VALUE	LINE
------------------------------------------------------------
TM16E				  NUMBER    0030	 270
TM16_HANDLER			  CODE	    0E25	4626
TM17D				  NUMBER    0033	 277
TM17E				  NUMBER    0032	 274
TM17_HANDLER			  CODE	    0E45	4689
TM18D				  NUMBER    0035	 283
TM18E				  NUMBER    0034	 280
TM18_HANDLER			  CODE	    0E92	4755
TM19D				  NUMBER    0037	 289
TM19E				  NUMBER    0036	 286
TM19_HANDLER			  CODE	    0EDF	4824
TM20D				  NUMBER    00E1	1340
TM20E				  NUMBER    00E0	1337
TM20_ENABLE_1			  NUMBER    5FC0	1335
TM20_HANDLER			  CODE	    14F4	6071
TM21D				  NUMBER    00E3	1346
TM21E				  NUMBER    00E2	1343
TM21_HANDLER			  CODE	    154C	6137
TM22D				  NUMBER    00E5	1352
TM22E				  NUMBER    00E4	1349
TM22_HANDLER			  CODE	    15A4	6202
TM23D				  NUMBER    00E7	1358
TM23E				  NUMBER    00E6	1355
TM23_HANDLER			  CODE	    15FC	6268
TM24D				  NUMBER    00E1	1369
TM24E				  NUMBER    00E0	1366
TM24_ENABLE_1			  NUMBER    5FC1	1364
TM24_HANDLER			  CODE	    1654	6334
TM25D				  NUMBER    00E3	1375
TM25E				  NUMBER    00E2	1372
TM25_HANDLER			  CODE	    16AC	6399
TM26D				  NUMBER    00E5	1381
TM26E				  NUMBER    00E4	1378
TM26_HANDLER			  CODE	    1704	6464
TM27D				  NUMBER    00E7	1387
TM27E				  NUMBER    00E6	1384
TM27_HANDLER			  CODE	    175C	6529
TM28D				  NUMBER    00E1	1401
TM28E				  NUMBER    00E0	1398
TM28_ENABLE_1			  NUMBER    5FC2	1395
TM28_HANDLER			  CODE	    17B4	6594
TM29D				  NUMBER    00E3	1407
TM29E				  NUMBER    00E2	1404
TM29_HANDLER			  CODE	    180C	6660
TM30D				  NUMBER    00E5	1413
TM30E				  NUMBER    00E4	1410
TM30_HANDLER			  CODE	    1864	6725
TM31D				  NUMBER    00E7	1419
TM31E				  NUMBER    00E6	1416
TM31_HANDLER			  CODE	    18BC	6790
TM32D				  NUMBER    00E1	1469
TM32E				  NUMBER    00E0	1468
TM32_ENABLE_1			  NUMBER    5FC7	1465
TM32_HANDLER			  CODE	    1914	6855
TM33D				  NUMBER    00E3	1471
TM33E				  NUMBER    00E2	1470

ASEM-51 V1.3                                        Copyright (c) 2002 by W.W. Heinz                                        PAGE 200



SYMBOL				  TYPE     VALUE	LINE
------------------------------------------------------------
TM33_HANDLER			  CODE	    196C	6920
TM34_HANDLER			  CODE	    19C4	6985
TM40D				  NUMBER    00E1	1428
TM40E				  NUMBER    00E0	1427
TM40_ENABLE_1			  NUMBER    5FC3	1425
TM40_HANDLER			  CODE	    19C4	6989
TM41D				  NUMBER    00E3	1430
TM41E				  NUMBER    00E2	1429
TM41_HANDLER			  CODE	    1A1C	7056
TM42D				  NUMBER    00E5	1432
TM42E				  NUMBER    00E4	1431
TM42_HANDLER			  CODE	    1A74	7122
TM43D				  NUMBER    00E7	1434
TM43E				  NUMBER    00E6	1433
TM43_HANDLER			  CODE	    1ACC	7186
TM44_HANDLER			  CODE	    1B24	7252
TMC00H				  NUMBER    2388	 765
TMC00L				  NUMBER    2389	 766
TMC01H				  NUMBER    238A	 768
TMC01L				  NUMBER    238B	 769
TMC02H				  NUMBER    238C	 771
TMC02L				  NUMBER    238D	 772
TMC03H				  NUMBER    238E	 774
TMC03L				  NUMBER    238F	 775
TMC04H				  NUMBER    2390	 777
TMC04L				  NUMBER    2391	 778
TMC05H				  NUMBER    2392	 780
TMC05L				  NUMBER    2393	 781
TMC06H				  NUMBER    2394	 783
TMC06L				  NUMBER    2395	 784
TMC07H				  NUMBER    2396	 786
TMC07L				  NUMBER    2397	 787
TMC08H				  NUMBER    2398	 789
TMC08L				  NUMBER    2399	 790
TMC09H				  NUMBER    239A	 792
TMC09L				  NUMBER    239B	 793
TMC100H				  NUMBER    24B6	1060
TMC100L				  NUMBER    24B7	1061
TMC101H				  NUMBER    24B8	1063
TMC101L				  NUMBER    24B9	1064
TMC102H				  NUMBER    24BA	1066
TMC102L				  NUMBER    24BB	1067
TMC103H				  NUMBER    24BC	1069
TMC103L				  NUMBER    24BD	1070
TMC104H				  NUMBER    24BE	1072
TMC104L				  NUMBER    24BF	1073
TMC105H				  NUMBER    24C0	1075
TMC105L				  NUMBER    24C1	1076
TMC106H				  NUMBER    24C2	1078
TMC106L				  NUMBER    24C3	1079
TMC107H				  NUMBER    24C4	1081
TMC107L				  NUMBER    24C5	1082
TMC10H				  NUMBER    239C	 795
TMC10L				  NUMBER    239D	 796
TMC11H				  NUMBER    239E	 798
TMC11L				  NUMBER    239F	 799

ASEM-51 V1.3                                        Copyright (c) 2002 by W.W. Heinz                                        PAGE 201



SYMBOL				  TYPE     VALUE	LINE
------------------------------------------------------------
TMC120H				  NUMBER    24E8	1096
TMC120L				  NUMBER    24E9	1097
TMC121H				  NUMBER    24EA	1099
TMC121L				  NUMBER    24EB	1100
TMC122H				  NUMBER    24EC	1102
TMC122L				  NUMBER    24ED	1103
TMC123H				  NUMBER    24EE	1105
TMC123L				  NUMBER    24EF	1106
TMC124H				  NUMBER    24F0	1108
TMC124L				  NUMBER    24F1	1109
TMC125H				  NUMBER    24F2	1111
TMC125L				  NUMBER    24F3	1112
TMC126H				  NUMBER    24F4	1114
TMC126L				  NUMBER    24F5	1115
TMC127H				  NUMBER    24F6	1117
TMC127L				  NUMBER    24F7	1118
TMC12H				  NUMBER    23A0	 801
TMC12L				  NUMBER    23A1	 802
TMC13H				  NUMBER    23A2	 804
TMC13L				  NUMBER    23A3	 805
TMC14H				  NUMBER    23A4	 807
TMC14L				  NUMBER    23A5	 808
TMC15H				  NUMBER    23A6	 810
TMC15L				  NUMBER    23A7	 811
TMC16H				  NUMBER    23A8	 813
TMC16L				  NUMBER    23A9	 814
TMC17H				  NUMBER    23AA	 816
TMC17L				  NUMBER    23AB	 817
TMC18H				  NUMBER    23AC	 819
TMC18L				  NUMBER    23AD	 820
TMC19H				  NUMBER    23AE	 822
TMC19L				  NUMBER    23AF	 823
TMC20H				  NUMBER    23B0	 825
TMC20L				  NUMBER    23B1	 826
TMC21H				  NUMBER    23B2	 828
TMC21L				  NUMBER    23B3	 829
TMC22H				  NUMBER    23B4	 831
TMC22L				  NUMBER    23B5	 832
TMC23H				  NUMBER    23B6	 834
TMC23L				  NUMBER    23B7	 835
TMC24H				  NUMBER    23B8	 837
TMC24L				  NUMBER    23B9	 838
TMC25H				  NUMBER    23BA	 840
TMC25L				  NUMBER    23BB	 841
TMC26H				  NUMBER    23BC	 843
TMC26L				  NUMBER    23BD	 844
TMC27H				  NUMBER    23BE	 846
TMC27L				  NUMBER    23BF	 847
TMC28H				  NUMBER    24AC	1045
TMC28L				  NUMBER    24AD	1046
TMC29H				  NUMBER    24AE	1048
TMC29L				  NUMBER    24AF	1049
TMC30H				  NUMBER    24B0	1051
TMC30L				  NUMBER    24B1	1052
TMC31H				  NUMBER    24B2	1054
TMC31L				  NUMBER    24B3	1055

ASEM-51 V1.3                                        Copyright (c) 2002 by W.W. Heinz                                        PAGE 202



SYMBOL				  TYPE     VALUE	LINE
------------------------------------------------------------
TMC32H				  NUMBER    24B4	1057
TMC32L				  NUMBER    24B5	1058
TMC33H				  NUMBER    24C6	1085
TMC33L				  NUMBER    24C7	1086
TMC34H				  NUMBER    24C8	1088
TMC34L				  NUMBER    24C9	1089
TMC40H				  NUMBER    23C2	 852
TMC40L				  NUMBER    23C3	 853
TMC41H				  NUMBER    23C4	 855
TMC41L				  NUMBER    23C5	 856
TMC42H				  NUMBER    23C6	 858
TMC42L				  NUMBER    23C7	 859
TMC43H				  NUMBER    23C8	 861
TMC43L				  NUMBER    23C9	 862
TMOD				  DATA	      89
TMR00_NOT_DONE			  CODE	    0990	3670
TMR01_NOT_DONE			  CODE	    09DE	3735
TMR02_NOT_DONE			  CODE	    0A2B	3796
TMR03_NOT_DONE			  CODE	    0A78	3857
TMR04_NOT_DONE			  CODE	    0AC5	3919
TMR05_NOT_DONE			  CODE	    0B12	3981
TMR06_NOT_DONE			  CODE	    0B5F	4043
TMR07_NOT_DONE			  CODE	    0BAC	4105
TMR08_11_ENABLE_DONE		  NUMBER    0024	 216
TMR08_NOT_DONE			  CODE	    0BF9	4168
TMR09_NOT_DONE			  CODE	    0C46	4231
TMR0_3_ENABLE_DONE		  NUMBER    0022	 163
TMR0_NOT_ENABLED		  CODE	    0998	3680
TMR100_NOT_DONE			  CODE	    0F68	4930
TMR100_NOT_ENABLED		  CODE	    0F70	4940
TMR101_NOT_DONE			  CODE	    0FB5	4992
TMR101_NOT_ENABLED		  CODE	    0FBD	5002
TMR102_NOT_DONE			  CODE	    1002	5054
TMR102_NOT_ENABLED		  CODE	    100A	5064
TMR103_NOT_DONE			  CODE	    104F	5116
TMR103_NOT_ENABLED		  CODE	    1057	5126
TMR104_NOT_DONE			  CODE	    10A0	5182
TMR104_NOT_ENABLED		  CODE	    10B2	5198
TMR105_NOT_DONE			  CODE	    1100	5255
TMR105_NOT_ENABLED		  CODE	    1112	5271
TMR106_NOT_DONE			  CODE	    1160	5328
TMR106_NOT_ENABLED		  CODE	    1172	5344
TMR107_NOT_DONE			  CODE	    11C0	5401
TMR107_NOT_ENABLED		  CODE	    11D2	5417
TMR10_NOT_DONE			  CODE	    0C93	4294
TMR10_NOT_ENABLED		  CODE	    0C9B	4304
TMR11_NOT_DONE			  CODE	    0CE0	4356
TMR11_NOT_ENABLED		  CODE	    0CE8	4366
TMR120_NOT_DONE			  CODE	    1220	5475
TMR120_NOT_ENABLED		  CODE	    1232	5492
TMR121_NOT_DONE			  CODE	    1280	5553
TMR121_NOT_ENABLED		  CODE	    1292	5570
TMR122_NOT_DONE			  CODE	    12E0	5631
TMR122_NOT_ENABLED		  CODE	    12F2	5648
TMR123_NOT_DONE			  CODE	    1340	5708
TMR123_NOT_ENABLED		  CODE	    1352	5725

ASEM-51 V1.3                                        Copyright (c) 2002 by W.W. Heinz                                        PAGE 203



SYMBOL				  TYPE     VALUE	LINE
------------------------------------------------------------
TMR124_NOT_DONE			  CODE	    13A0	5785
TMR124_NOT_ENABLED		  CODE	    13B2	5802
TMR125_NOT_DONE			  CODE	    1400	5862
TMR125_NOT_ENABLED		  CODE	    1412	5879
TMR126_NOT_DONE			  CODE	    1460	5939
TMR126_NOT_ENABLED		  CODE	    1472	5956
TMR127_NOT_DONE			  CODE	    14C0	6016
TMR127_NOT_ENABLED		  CODE	    14D2	6033
TMR12_15_ENABLE_DONE		  NUMBER    0025	 242
TMR12_NOT_DONE			  CODE	    0D2D	4418
TMR12_NOT_ENABLED		  CODE	    0D35	4428
TMR13_NOT_DONE			  CODE	    0D7A	4482
TMR13_NOT_ENABLED		  CODE	    0D82	4492
TMR14_NOT_DONE			  CODE	    0DC7	4544
TMR14_NOT_ENABLED		  CODE	    0DCF	4554
TMR15_NOT_DONE			  CODE	    0E14	4607
TMR15_NOT_ENABLED		  CODE	    0E1C	4617
TMR16_19_ENABLE_DONE		  NUMBER    0026	 268
TMR16_NOT_DONE			  CODE	    0E3C	4669
TMR16_NOT_ENABLED		  CODE	    0E3C	4679
TMR17_NOT_DONE			  CODE	    0E81	4732
TMR17_NOT_ENABLED		  CODE	    0E89	4742
TMR18_NOT_DONE			  CODE	    0ECE	4798
TMR18_NOT_ENABLED		  CODE	    0ED6	4808
TMR19_NOT_DONE			  CODE	    0F1B	4867
TMR19_NOT_ENABLED		  CODE	    0F23	4877
TMR1_NOT_ENABLED		  CODE	    09E6	3745
TMR20_NOT_DONE			  CODE	    151C	6098
TMR20_NOT_ENABLED		  CODE	    1535	6119
TMR21_NOT_DONE			  CODE	    1574	6163
TMR21_NOT_ENABLED		  CODE	    158D	6184
TMR22_NOT_DONE			  CODE	    15CC	6229
TMR22_NOT_ENABLED		  CODE	    15E5	6250
TMR23_NOT_DONE			  CODE	    1624	6295
TMR23_NOT_ENABLED		  CODE	    163D	6316
TMR24_NOT_DONE			  CODE	    167C	6360
TMR24_NOT_ENABLED		  CODE	    1695	6381
TMR25_NOT_DONE			  CODE	    16D4	6425
TMR25_NOT_ENABLED		  CODE	    16ED	6446
TMR26_NOT_DONE			  CODE	    172C	6490
TMR26_NOT_ENABLED		  CODE	    1745	6511
TMR27_NOT_DONE			  CODE	    1784	6555
TMR27_NOT_ENABLED		  CODE	    179D	6576
TMR28_NOT_DONE			  CODE	    17DC	6621
TMR28_NOT_ENABLED		  CODE	    17F5	6642
TMR29_NOT_DONE			  CODE	    1834	6686
TMR29_NOT_ENABLED		  CODE	    184D	6707
TMR2_NOT_ENABLED		  CODE	    0A33	3806
TMR30_NOT_DONE			  CODE	    188C	6751
TMR30_NOT_ENABLED		  CODE	    18A5	6772
TMR31_NOT_DONE			  CODE	    18E4	6816
TMR31_NOT_ENABLED		  CODE	    18FD	6837
TMR32_NOT_DONE			  CODE	    193C	6881
TMR32_NOT_ENABLED		  CODE	    1955	6902
TMR33_NOT_DONE			  CODE	    1994	6946
TMR33_NOT_ENABLED		  CODE	    19AD	6967

ASEM-51 V1.3                                        Copyright (c) 2002 by W.W. Heinz                                        PAGE 204



SYMBOL				  TYPE     VALUE	LINE
------------------------------------------------------------
TMR3_NOT_ENABLED		  CODE	    0A80	3867
TMR40_NOT_DONE			  CODE	    19EC	7015
TMR40_NOT_ENABLED		  CODE	    1A05	7036
TMR41_NOT_DONE			  CODE	    1A44	7082
TMR41_NOT_ENABLED		  CODE	    1A5D	7104
TMR42_NOT_DONE			  CODE	    1A9C	7148
TMR42_NOT_ENABLED		  CODE	    1AB5	7169
TMR43_NOT_DONE			  CODE	    1AF4	7212
TMR43_NOT_ENABLED		  CODE	    1B0D	7233
TMR4_7_ENABLE_DONE		  NUMBER    0023	 189
TMR4_NOT_ENABLED		  CODE	    0ACD	3929
TMR5_NOT_ENABLED		  CODE	    0B1A	3991
TMR6_NOT_ENABLED		  CODE	    0B67	4053
TMR7_NOT_ENABLED		  CODE	    0BB4	4115
TMR8_NOT_ENABLED		  CODE	    0C01	4178
TMR9_NOT_ENABLED		  CODE	    0C4E	4241
TMR_HANDLER			  CODE	    0941	3606
TMS00H				  NUMBER    1050	 586
TMS00L				  NUMBER    1051	 587
TMS01H				  NUMBER    1052	 589
TMS01L				  NUMBER    1053	 590
TMS02H				  NUMBER    1054	 592
TMS02L				  NUMBER    1055	 593
TMS03H				  NUMBER    1056	 595
TMS03L				  NUMBER    1057	 596
TMS04H				  NUMBER    1058	 598
TMS04L				  NUMBER    1059	 599
TMS05H				  NUMBER    105A	 601
TMS05L				  NUMBER    105B	 602
TMS06H				  NUMBER    105C	 604
TMS06L				  NUMBER    105D	 605
TMS07H				  NUMBER    105E	 607
TMS07L				  NUMBER    105F	 608
TMS08H				  NUMBER    1060	 610
TMS08L				  NUMBER    1061	 611
TMS09H				  NUMBER    1062	 613
TMS09L				  NUMBER    1063	 614
TMS100H				  NUMBER    1078	 646
TMS100L				  NUMBER    1079	 647
TMS101H				  NUMBER    107A	 649
TMS101L				  NUMBER    107B	 650
TMS102H				  NUMBER    107C	 652
TMS102L				  NUMBER    107D	 653
TMS103H				  NUMBER    107E	 655
TMS103L				  NUMBER    107F	 656
TMS104H				  NUMBER    1080	 659
TMS104L				  NUMBER    1081	 660
TMS105H				  NUMBER    1082	 662
TMS105L				  NUMBER    1083	 663
TMS106H				  NUMBER    1084	 665
TMS106L				  NUMBER    1085	 666
TMS107H				  NUMBER    1086	 668
TMS107L				  NUMBER    1087	 669
TMS10H				  NUMBER    1064	 616
TMS10L				  NUMBER    1065	 617
TMS11H				  NUMBER    1066	 619

ASEM-51 V1.3                                        Copyright (c) 2002 by W.W. Heinz                                        PAGE 205



SYMBOL				  TYPE     VALUE	LINE
------------------------------------------------------------
TMS11L				  NUMBER    1067	 620
TMS120H				  NUMBER    101E	 525
TMS120L				  NUMBER    101F	 526
TMS121H				  NUMBER    1020	 528
TMS121L				  NUMBER    1021	 529
TMS122H				  NUMBER    1022	 531
TMS122L				  NUMBER    1023	 532
TMS123H				  NUMBER    1024	 534
TMS123L				  NUMBER    1025	 535
TMS124H				  NUMBER    1026	 537
TMS124L				  NUMBER    1027	 538
TMS125H				  NUMBER    1028	 540
TMS125L				  NUMBER    1029	 541
TMS126H				  NUMBER    102A	 543
TMS126L				  NUMBER    102B	 544
TMS127H				  NUMBER    102C	 546
TMS127L				  NUMBER    102D	 547
TMS12H				  NUMBER    1068	 622
TMS12L				  NUMBER    1069	 623
TMS13H				  NUMBER    106A	 625
TMS13L				  NUMBER    106B	 626
TMS14H				  NUMBER    106C	 628
TMS14L				  NUMBER    106D	 629
TMS15H				  NUMBER    106E	 631
TMS15L				  NUMBER    106F	 632
TMS16H				  NUMBER    1070	 634
TMS16L				  NUMBER    1071	 635
TMS17H				  NUMBER    1072	 637
TMS17L				  NUMBER    1073	 638
TMS18H				  NUMBER    1074	 640
TMS18L				  NUMBER    1075	 641
TMS19H				  NUMBER    1076	 643
TMS19L				  NUMBER    1077	 644
TMS20H				  NUMBER    2480	 990
TMS20L				  NUMBER    2481	 991
TMS21H				  NUMBER    2482	 993
TMS21L				  NUMBER    2483	 994
TMS22H				  NUMBER    2484	 996
TMS22L				  NUMBER    2485	 997
TMS23H				  NUMBER    2486	 999
TMS23L				  NUMBER    2487	1000
TMS24H				  NUMBER    2488	1002
TMS24L				  NUMBER    2489	1003
TMS25H				  NUMBER    248A	1005
TMS25L				  NUMBER    248B	1006
TMS26H				  NUMBER    248C	1008
TMS26L				  NUMBER    248D	1009
TMS27H				  NUMBER    248E	1011
TMS27L				  NUMBER    248F	1012
TMS28H				  NUMBER    24A0	1026
TMS28L				  NUMBER    24A1	1027
TMS29H				  NUMBER    24A2	1029
TMS29L				  NUMBER    24A3	1030
TMS30H				  NUMBER    24A4	1032
TMS30L				  NUMBER    24A5	1033
TMS31H				  NUMBER    24A6	1035

ASEM-51 V1.3                                        Copyright (c) 2002 by W.W. Heinz                                        PAGE 206



SYMBOL				  TYPE     VALUE	LINE
------------------------------------------------------------
TMS31L				  NUMBER    24A7	1036
TMS32H				  NUMBER    24A8	1038
TMS32L				  NUMBER    24A9	1039
TMS33H				  NUMBER    24AA	1041
TMS33L				  NUMBER    24AB	1042
TMS40H				  NUMBER    2490	1014
TMS40L				  NUMBER    2491	1015
TMS41H				  NUMBER    2492	1017
TMS41L				  NUMBER    2493	1018
TMS42H				  NUMBER    2494	1020
TMS42L				  NUMBER    2495	1021
TMS43H				  NUMBER    2496	1023
TMS43L				  NUMBER    2497	1024
TR0				  BIT	      8C
TR1				  BIT	      8E
TRANS				  CODE	    076A	3097
TRANSMIT			  CODE	    0146	1806
TRANSMIT_DATA			  CODE	    0189	1874
TRANSMIT_DATA_START		  CODE	    06D3	2946
TRANSMIT_REPLY			  CODE	    0227	1992
TRANSMIT_REPLY_FN_CODE_10H	  CODE	    069B	2900
TRANSMIT_START_FN_CODE_01	  CODE	    0379	2264
TRANSMIT_START_FN_CODE_02	  CODE	    04C8	2537
TRANS_OVER			  NUMBER    0001	 144
TXD				  BIT	      B1
TX_BUF				  NUMBER    0500	 513
WDT_RST_BYPASS			  CODE	    00DD	1727
WDT_RST_NOT_ENAB		  CODE	    00A5	1664
WR				  BIT	      B6
ZERO_BIT_32			  CODE	    091D	3536
ZONE1_ACT_TEMP_H		  NUMBER    2442	 947
ZONE1_ACT_TEMP_L		  NUMBER    2443	 950
ZONE1_COUNTS_H			  NUMBER    2420	 893
ZONE1_COUNTS_L			  NUMBER    2421	 896
ZONE1_ERROR			  CODE	    2558	9380
ZONE1_LOW_LIMIT_ERR		  NUMBER    00E4	 884
ZONE1_PREV_H			  NUMBER    24CA	1091
ZONE1_PREV_L			  NUMBER    24CB	1092
ZONE1_SEL			  NUMBER    00E0	1294
ZONE1_SET_H			  NUMBER    1040	 561
ZONE1_SET_L			  NUMBER    1041	 562
ZONE2_ACT_TEMP_H		  NUMBER    2444	 953
ZONE2_ACT_TEMP_L		  NUMBER    2445	 956
ZONE2_COUNTS_H			  NUMBER    2422	 899
ZONE2_COUNTS_L			  NUMBER    2423	 902
ZONE2_ERROR			  CODE	    256D	9395
ZONE2_LOW_LIMIT_ERR		  NUMBER    00E5	 885
ZONE2_SEL			  NUMBER    00E1	1297
ZONE2_SET_H			  NUMBER    1042	 564
ZONE2_SET_L			  NUMBER    1043	 565
ZONE3_ACT_TEMP_H		  NUMBER    2446	 959
ZONE3_ACT_TEMP_L		  NUMBER    2447	 962
ZONE3_COUNTS_H			  NUMBER    2424	 905
ZONE3_COUNTS_L			  NUMBER    2425	 908
ZONE3_ERROR			  CODE	    2582	9409
ZONE3_LOW_LIMIT_ERR		  NUMBER    00E6	 886

ASEM-51 V1.3                                        Copyright (c) 2002 by W.W. Heinz                                        PAGE 207



SYMBOL				  TYPE     VALUE	LINE
------------------------------------------------------------
ZONE3_SEL			  NUMBER    00E2	1300
ZONE3_SET_H			  NUMBER    1044	 567
ZONE3_SET_L			  NUMBER    1045	 568
ZONE4_ACT_TEMP_H		  NUMBER    2448	 965
ZONE4_ACT_TEMP_L		  NUMBER    2449	 968
ZONE4_COUNTS_H			  NUMBER    2426	 911
ZONE4_COUNTS_L			  NUMBER    2427	 914
ZONE4_ERROR			  CODE	    2597	9423
ZONE4_LOW_LIMIT_ERR		  NUMBER    00E7	 887
ZONE4_SEL			  NUMBER    00E3	1303
ZONE4_SET_H			  NUMBER    1046	 570
ZONE4_SET_L			  NUMBER    1047	 571
ZONE5_ACT_TEMP_H		  NUMBER    244A	 971
ZONE5_ACT_TEMP_L		  NUMBER    244B	 974
ZONE5_COUNTS_H			  NUMBER    2428	 917
ZONE5_COUNTS_L			  NUMBER    2429	 920
ZONE5_ERROR			  CODE	    25AC	9437
ZONE5_LOW_LIMIT_ERR		  NUMBER    00E0	 869
ZONE5_SEL			  NUMBER    00E4	1306
ZONE5_SET_H			  NUMBER    1048	 573
ZONE5_SET_L			  NUMBER    1049	 574
ZONE6_ACT_TEMP_H		  NUMBER    244C	 977
ZONE6_ACT_TEMP_L		  NUMBER    244D	 980
ZONE6_COUNTS_H			  NUMBER    242A	 923
ZONE6_COUNTS_L			  NUMBER    242B	 926
ZONE6_ERROR			  CODE	    25C1	9451
ZONE6_LOW_LIMIT_ERR		  NUMBER    00E1	 870
ZONE6_SEL			  NUMBER    00E5	1309
ZONE6_SET_H			  NUMBER    104A	 576
ZONE6_SET_L			  NUMBER    104B	 577
ZONE7_ACT_TEMP_H		  NUMBER    244E	 983
ZONE7_ACT_TEMP_L		  NUMBER    244F	 986
ZONE7_COUNTS_H			  NUMBER    242C	 929
ZONE7_COUNTS_L			  NUMBER    242D	 932
ZONE7_LOW_LIMIT_ERR		  NUMBER    00E2	 871
ZONE7_SEL			  NUMBER    00E6	1312
ZONE7_SET_H			  NUMBER    104C	 579
ZONE7_SET_L			  NUMBER    104D	 580
ZONE8_ACT_TEMP_H		  NUMBER    2440	 941
ZONE8_ACT_TEMP_L		  NUMBER    2441	 944
ZONE8_COUNTS_H			  NUMBER    242E	 935
ZONE8_COUNTS_L			  NUMBER    242F	 938
ZONE8_LOW_LIMIT_ERR		  NUMBER    00E3	 872
ZONE8_SEL			  NUMBER    00E7	1315
ZONE8_SET_H			  NUMBER    104E	 582
ZONE8_SET_L			  NUMBER    104F	 583
ZONE_DISPLAY			  CODE	    1FB9	8173
